 Editor

 Timestamp is 584dec71 (Sun Dec 11 19:16:49 2016)

 Preferred load address is 00400000

 Start         Length     Name                   Class
 0001:00000000 00028f91H .textbss                DATA
 0002:00000000 000054f0H .text$di                CODE
 0002:000054f0 0004f470H .text$mn                CODE
 0002:00054960 000050d0H .text$x                 CODE
 0002:00059a30 00001106H .text$yd                CODE
 0003:00000000 00000104H .CRT$XCA                DATA
 0003:00000104 00000104H .CRT$XCAA               DATA
 0003:00000208 00000104H .CRT$XCL                DATA
 0003:0000030c 00000160H .CRT$XCU                DATA
 0003:0000046c 00000104H .CRT$XCZ                DATA
 0003:00000570 00000104H .CRT$XIA                DATA
 0003:00000674 00000104H .CRT$XIAA               DATA
 0003:00000778 00000104H .CRT$XIAC               DATA
 0003:0000087c 00000104H .CRT$XIZ                DATA
 0003:00000980 00000104H .CRT$XPA                DATA
 0003:00000a84 00000104H .CRT$XPZ                DATA
 0003:00000b88 00000104H .CRT$XTA                DATA
 0003:00000c8c 00000104H .CRT$XTZ                DATA
 0003:00000d90 00004c6cH .rdata                  DATA
 0003:000059fc 00000ab0H .rdata$r                DATA
 0003:000064ac 000001a8H .rdata$zzzdbg           DATA
 0003:00006654 00000104H .rtc$IAA                DATA
 0003:00006758 00000178H .rtc$IMZ                DATA
 0003:000068d0 00000104H .rtc$IZZ                DATA
 0003:000069d4 00000104H .rtc$TAA                DATA
 0003:00006ad8 00000178H .rtc$TMZ                DATA
 0003:00006c50 00000108H .rtc$TZZ                DATA
 0003:00006d58 000040c4H .xdata$x                DATA
 0003:0000ae1c 00000000H .edata                  DATA
 0004:00000000 00000180H .data                   DATA
 0004:00000180 00000570H .data$r                 DATA
 0004:000006f0 000005b4H .bss                    DATA
 0005:00000000 000004dcH .idata$5                DATA
 0005:000004dc 00000064H .idata$2                DATA
 0005:00000540 00000014H .idata$3                DATA
 0005:00000554 000004dcH .idata$4                DATA
 0005:00000a30 00001d53H .idata$6                DATA
 0006:00000000 00000176H .gfids$y                DATA
 0007:00000000 00000104H .00cfg                  DATA
 0008:00000000 00000170H .rsrc$01                DATA
 0008:00000170 000002ccH .rsrc$02                DATA

  Address         Publics by Value              Rva+Base       Lib:Object

 0000:00000000       ___guard_longjmp_count     00000000     <absolute>
 0000:00000000       ___guard_iat_table         00000000     <absolute>
 0000:00000000       ___guard_fids_count        00000000     <absolute>
 0000:00000000       ___guard_longjmp_table     00000000     <absolute>
 0000:00000000       ___safe_se_handler_table   00000000     <absolute>
 0000:00000000       ___guard_iat_count         00000000     <absolute>
 0000:00000000       ___safe_se_handler_count   00000000     <absolute>
 0000:00000000       ___dynamic_value_reloc_table 00000000     <absolute>
 0000:00000000       ___guard_fids_table        00000000     <absolute>
 0000:00000100       ___guard_flags             00000100     <absolute>
 0000:00000000       ___ImageBase               00400000     <linker-defined>
 0001:00000000       __enc$textbss$begin        00401000     <linker-defined>
 0001:00028f91       __enc$textbss$end          00429f91     <linker-defined>
 0002:000054f0       ??0ChangeMapMessage@@QAE@H@Z 0042f4f0 f   ChangeMapMessage.obj
 0002:00005590       ??1ChangeMapMessage@@QAE@XZ 0042f590 f   ChangeMapMessage.obj
 0002:000055f0       ?__empty_global_delete@@YAXPAX@Z 0042f5f0 f i ChangeMapMessage.obj
 0002:00005620       ?__global_delete@@YAXPAXI@Z 0042f620 f i ChangeMapMessage.obj
 0002:00005620       ?__empty_global_delete@@YAXPAXI@Z 0042f620 f i ChangeMapMessage.obj
 0002:00005650       ?process@ChangeMapMessage@@UAEXXZ 0042f650 f   ChangeMapMessage.obj
 0002:000056d0       ?setCurrentMapID@Editor@@QAEXH@Z 0042f6d0 f i ChangeMapMessage.obj
 0002:00005720       ??$?6U?$char_traits@D@std@@@std@@YAAAV?$basic_ostream@DU?$char_traits@D@std@@@0@AAV10@PBD@Z 0042f720 f i ChangeModeMessage.obj
 0002:00005ce0       ??$endl@DU?$char_traits@D@std@@@std@@YAAAV?$basic_ostream@DU?$char_traits@D@std@@@0@AAV10@@Z 0042fce0 f i ChangeModeMessage.obj
 0002:00005d80       ??0ChangeModeMessage@@QAE@H@Z 0042fd80 f   ChangeModeMessage.obj
 0002:00005df0       ??0_Sentry_base@?$basic_ostream@DU?$char_traits@D@std@@@std@@QAE@AAV12@@Z 0042fdf0 f i ChangeModeMessage.obj
 0002:00005ee0       ??0sentry@?$basic_ostream@DU?$char_traits@D@std@@@std@@QAE@AAV12@@Z 0042fee0 f i ChangeModeMessage.obj
 0002:00006060       ??1ChangeModeMessage@@QAE@XZ 00430060 f   ChangeModeMessage.obj
 0002:000060c0       ??1_Sentry_base@?$basic_ostream@DU?$char_traits@D@std@@@std@@QAE@XZ 004300c0 f i ChangeModeMessage.obj
 0002:000061e0       ??1sentry@?$basic_ostream@DU?$char_traits@D@std@@@std@@QAE@XZ 004301e0 f i ChangeModeMessage.obj
 0002:000062a0       ??Bsentry@?$basic_ostream@DU?$char_traits@D@std@@@std@@QBE_NXZ 004302a0 f i ChangeModeMessage.obj
 0002:000062e0       ?eof@?$char_traits@D@std@@SAHXZ 004302e0 f i ChangeModeMessage.obj
 0002:00006320       ?eq_int_type@?$char_traits@D@std@@SA_NABH0@Z 00430320 f i ChangeModeMessage.obj
 0002:00006380       ?length@?$char_traits@D@std@@SAIPBD@Z 00430380 f i ChangeModeMessage.obj
 0002:00006400       ?process@ChangeModeMessage@@UAEXXZ 00430400 f   ChangeModeMessage.obj
 0002:000064d0       ?setEditGridValue@Editor@@QAEXH@Z 004304d0 f i ChangeModeMessage.obj
 0002:00006520       ??0EditGridMessage@@QAE@HHH@Z 00430520 f   EditGridMessage.obj
 0002:000065b0       ??1EditGridMessage@@QAE@XZ 004305b0 f   EditGridMessage.obj
 0002:00006610       ?getGrid@Editor@@QAEPAVGrid@@XZ 00430610 f i EditGridMessage.obj
 0002:00006650       ?getGridVisualizer@Editor@@QAEPAVGridVisualizer@@XZ 00430650 f i EditGridMessage.obj
 0002:00006690       ?process@EditGridMessage@@UAEXXZ 00430690 f   EditGridMessage.obj
 0002:00006740       ?setModified@GridVisualizer@@QAEXXZ 00430740 f i EditGridMessage.obj
 0002:00006780       ??$?0$$V@?$_Compressed_pair@U?$_Wrap_alloc@V?$allocator@D@std@@@std@@V?$_String_val@U?$_Simple_types@D@std@@@2@$00@std@@QAE@U_Zero_then_variadic_args_t@1@@Z 00430780 f i Editor.obj
 0002:000067e0       ??$?0AAU?$_Wrap_alloc@V?$allocator@D@std@@@std@@@?$_Wrap_alloc@V?$allocator@U_Container_proxy@std@@@std@@@std@@QAE@AAU?$_Wrap_alloc@V?$allocator@D@std@@@1@@Z 004307e0 f i Editor.obj
 0002:00006850       ??$?0ABV?$allocator@D@std@@$$V@?$_Compressed_pair@U?$_Wrap_alloc@V?$allocator@D@std@@@std@@V?$_String_val@U?$_Simple_types@D@std@@@2@$00@std@@QAE@U_One_then_variadic_args_t@1@ABV?$allocator@D@1@@Z 00430850 f i Editor.obj
 0002:000068c0       ??$?0ABV?$allocator@D@std@@@?$_Wrap_alloc@V?$allocator@D@std@@@std@@QAE@ABV?$allocator@D@1@@Z 004308c0 f i Editor.obj
 0002:00006930       ??$?0ABV?$allocator@D@std@@X@?$_String_alloc@U?$_String_base_types@DV?$allocator@D@std@@@std@@@std@@QAE@ABV?$allocator@D@1@@Z 00430930 f i Editor.obj
 0002:000069f0       ??$?0D@?$allocator@U_Container_proxy@std@@@std@@QAE@ABV?$allocator@D@1@@Z 004309f0 f i Editor.obj
 0002:00006a30       ??$?0PADX@?$basic_string@DU?$char_traits@D@std@@V?$allocator@D@2@@std@@QAE@PAD0ABV?$allocator@D@1@@Z 00430a30 f i Editor.obj
 0002:00006b40       ??$?0U?$_Wrap_alloc@V?$allocator@D@std@@@std@@$$V@?$_Compressed_pair@U?$_Wrap_alloc@V?$allocator@D@std@@@std@@V?$_String_val@U?$_Simple_types@D@std@@@2@$00@std@@QAE@U_One_then_variadic_args_t@1@$$QAU?$_Wrap_alloc@V?$allocator@D@std@@@1@@Z 00430b40 f i Editor.obj
 0002:00006bb0       ??$?0U?$_Wrap_alloc@V?$allocator@D@std@@@std@@X@?$_String_alloc@U?$_String_base_types@DV?$allocator@D@std@@@std@@@std@@QAE@$$QAU?$_Wrap_alloc@V?$allocator@D@std@@@1@@Z 00430bb0 f i Editor.obj
 0002:00006c70       ??$?6DU?$char_traits@D@std@@V?$allocator@D@1@@std@@YAAAV?$basic_ostream@DU?$char_traits@D@std@@@0@AAV10@ABV?$basic_string@DU?$char_traits@D@std@@V?$allocator@D@2@@0@@Z 00430c70 f i Editor.obj
 0002:000071d0       ??$?HDU?$char_traits@D@std@@V?$allocator@D@1@@std@@YA?AV?$basic_string@DU?$char_traits@D@std@@V?$allocator@D@2@@0@$$QAV10@0@Z 004311d0 f i Editor.obj
 0002:000072f0       ??$?HDU?$char_traits@D@std@@V?$allocator@D@1@@std@@YA?AV?$basic_string@DU?$char_traits@D@std@@V?$allocator@D@2@@0@$$QAV10@ABV10@@Z 004312f0 f i Editor.obj
 0002:00007380       ??$?HDU?$char_traits@D@std@@V?$allocator@D@1@@std@@YA?AV?$basic_string@DU?$char_traits@D@std@@V?$allocator@D@2@@0@ABV10@0@Z 00431380 f i Editor.obj
 0002:000074e0       ??$_Debug_pointer@$$CBD@std@@YAXPBDPB_WI@Z 004314e0 f i Editor.obj
 0002:00007550       ??$_Debug_pointer@D@std@@YAXPADPB_WI@Z 00431550 f i Editor.obj
 0002:000075c0       ??$_Debug_pointer_if@$$CBD@std@@YAX_NPBDPB_WI@Z 004315c0 f i Editor.obj
 0002:00007640       ??$_Debug_range2@PAD@std@@YAXPAD0PB_WIUrandom_access_iterator_tag@0@@Z 00431640 f i Editor.obj
 0002:000076f0       ??$_Debug_range@PAD@std@@YAXPAD0PB_WI@Z 004316f0 f i Editor.obj
 0002:00007760       ??$_Fgetc@D@std@@YA_NAADPAU_iobuf@@@Z 00431760 f i Editor.obj
 0002:000077e0       ??$_Fputc@D@std@@YA_NDPAU_iobuf@@@Z 004317e0 f i Editor.obj
 0002:00007870       ??$_Integral_to_string@DH@std@@YA?AV?$basic_string@DU?$char_traits@D@std@@V?$allocator@D@2@@0@H@Z 00431870 f i Editor.obj
 0002:000079c0       ??$_UIntegral_to_buff@DI@std@@YAPADPADI@Z 004319c0 f i Editor.obj
 0002:00007ad0       ??$_Unchecked@PAD@std@@YAPADPAD@Z 00431ad0 f i Editor.obj
 0002:00007b10       ??$_Unfancy@$$CBD@std@@YAPBDPBD@Z 00431b10 f i Editor.obj
 0002:00007b50       ??$_Unfancy@D@std@@YAPADPAD@Z 00431b50 f i Editor.obj
 0002:00007b90       ??$_Unfancy@U_Container_proxy@std@@@std@@YAPAU_Container_proxy@0@PAU10@@Z 00431b90 f i Editor.obj
 0002:00007bd0       ??$_Ungetc@D@std@@YA_NABDPAU_iobuf@@@Z 00431bd0 f i Editor.obj
 0002:00007c60       ??$addressof@D@std@@YAPADAAD@Z 00431c60 f i Editor.obj
 0002:00007ca0       ??$addressof@PAD@std@@YAPAPADAAPAD@Z 00431ca0 f i Editor.obj
 0002:00007ce0       ??$addressof@U_Container_proxy@std@@@std@@YAPAU_Container_proxy@0@AAU10@@Z 00431ce0 f i Editor.obj
 0002:00007d20       ??$construct@PADAAPAD@?$_Wrap_alloc@V?$allocator@D@std@@@std@@QAEXPAPADAAPAD@Z 00431d20 f i Editor.obj
 0002:00007d90       ??$construct@PADAAPAD@?$allocator@D@std@@QAEXPAPADAAPAD@Z 00431d90 f i Editor.obj
 0002:00007e40       ??$construct@PADAAPAD@?$allocator_traits@V?$allocator@D@std@@@std@@SAXAAV?$allocator@D@1@PAPADAAPAD@Z 00431e40 f i Editor.obj
 0002:00007ea0       ??$construct@U_Container_proxy@std@@U12@@?$_Wrap_alloc@V?$allocator@U_Container_proxy@std@@@std@@@std@@QAEXPAU_Container_proxy@1@$$QAU21@@Z 00431ea0 f i Editor.obj
 0002:00007f10       ??$construct@U_Container_proxy@std@@U12@@?$allocator@U_Container_proxy@std@@@std@@QAEXPAU_Container_proxy@1@$$QAU21@@Z 00431f10 f i Editor.obj
 0002:00007fc0       ??$construct@U_Container_proxy@std@@U12@@?$allocator_traits@V?$allocator@U_Container_proxy@std@@@std@@@std@@SAXAAV?$allocator@U_Container_proxy@std@@@1@PAU_Container_proxy@1@$$QAU31@@Z 00431fc0 f i Editor.obj
 0002:00008020       ??$destroy@PAD@?$_Wrap_alloc@V?$allocator@D@std@@@std@@QAEXPAPAD@Z 00432020 f i Editor.obj
 0002:00008080       ??$destroy@PAD@?$allocator@D@std@@QAEXPAPAD@Z 00432080 f i Editor.obj
 0002:000080c0       ??$destroy@PAD@?$allocator_traits@V?$allocator@D@std@@@std@@SAXAAV?$allocator@D@1@PAPAD@Z 004320c0 f i Editor.obj
 0002:00008110       ??$destroy@U_Container_proxy@std@@@?$_Wrap_alloc@V?$allocator@U_Container_proxy@std@@@std@@@std@@QAEXPAU_Container_proxy@1@@Z 00432110 f i Editor.obj
 0002:00008170       ??$destroy@U_Container_proxy@std@@@?$allocator@U_Container_proxy@std@@@std@@QAEXPAU_Container_proxy@1@@Z 00432170 f i Editor.obj
 0002:000081b0       ??$destroy@U_Container_proxy@std@@@?$allocator_traits@V?$allocator@U_Container_proxy@std@@@std@@@std@@SAXAAV?$allocator@U_Container_proxy@std@@@1@PAU_Container_proxy@1@@Z 004321b0 f i Editor.obj
 0002:00008200       ??$end@D$0BF@@std@@YAPADAAY0BF@D@Z 00432200 f i Editor.obj
 0002:00008240       ??$forward@AAPAD@std@@YAAAPADAAPAD@Z 00432240 f i Editor.obj
 0002:00008280       ??$forward@AAU?$_Wrap_alloc@V?$allocator@D@std@@@std@@@std@@YAAAU?$_Wrap_alloc@V?$allocator@D@std@@@0@AAU10@@Z 00432280 f i Editor.obj
 0002:000082c0       ??$forward@ABV?$allocator@D@std@@@std@@YAABV?$allocator@D@0@ABV10@@Z 004322c0 f i Editor.obj
 0002:00008300       ??$forward@U?$_Wrap_alloc@V?$allocator@D@std@@@std@@@std@@YA$$QAU?$_Wrap_alloc@V?$allocator@D@std@@@0@AAU10@@Z 00432300 f i Editor.obj
 0002:00008340       ??$forward@U_Container_proxy@std@@@std@@YA$$QAU_Container_proxy@0@AAU10@@Z 00432340 f i Editor.obj
 0002:00008380       ??$forward@V?$basic_string@DU?$char_traits@D@std@@V?$allocator@D@2@@std@@@std@@YA$$QAV?$basic_string@DU?$char_traits@D@std@@V?$allocator@D@2@@0@AAV10@@Z 00432380 f i Editor.obj
 0002:000083c0       ??$move@AAU?$_Wrap_alloc@V?$allocator@D@std@@@std@@@std@@YA$$QAU?$_Wrap_alloc@V?$allocator@D@std@@@0@AAU10@@Z 004323c0 f i Editor.obj
 0002:00008400       ??$move@AAV?$basic_string@DU?$char_traits@D@std@@V?$allocator@D@2@@std@@@std@@YA$$QAV?$basic_string@DU?$char_traits@D@std@@V?$allocator@D@2@@0@AAV10@@Z 00432400 f i Editor.obj
 0002:00008440       ??$use_facet@V?$codecvt@DDU_Mbstatet@@@std@@@std@@YAABV?$codecvt@DDU_Mbstatet@@@0@ABVlocale@0@@Z 00432440 f i Editor.obj
 0002:00008640       ??0?$_Iterator012@Urandom_access_iterator_tag@std@@DHPBDABDU_Iterator_base12@2@@std@@QAE@XZ 00432640 f i Editor.obj
 0002:000086a0       ??0?$_String_alloc@U?$_String_base_types@DV?$allocator@D@std@@@std@@@std@@QAE@XZ 004326a0 f i Editor.obj
 0002:00008750       ??0?$_String_const_iterator@V?$_String_val@U?$_Simple_types@D@std@@@std@@@std@@QAE@PBDPBU_Container_base12@1@@Z 00432750 f i Editor.obj
 0002:00008810       ??0?$_String_iterator@V?$_String_val@U?$_Simple_types@D@std@@@std@@@std@@QAE@PADPBU_Container_base12@1@@Z 00432810 f i Editor.obj
 0002:00008870       ??0?$_String_val@U?$_Simple_types@D@std@@@std@@QAE@XZ 00432870 f i Editor.obj
 0002:00008930       ??0?$_Wrap_alloc@V?$allocator@D@std@@@std@@QAE@$$QAU01@@Z 00432930 f i Editor.obj
 0002:000089a0       ??0?$_Wrap_alloc@V?$allocator@D@std@@@std@@QAE@XZ 004329a0 f i Editor.obj
 0002:00008a00       ??0?$allocator@D@std@@QAE@ABV01@@Z 00432a00 f i Editor.obj
 0002:00008a40       ??0?$allocator@D@std@@QAE@XZ 00432a40 f i Editor.obj
 0002:00008a80       ??0?$basic_filebuf@DU?$char_traits@D@std@@@std@@QAE@PAU_iobuf@@@Z 00432a80 f i Editor.obj
 0002:00008b50       ??0?$basic_ifstream@DU?$char_traits@D@std@@@std@@QAE@ABV?$basic_string@DU?$char_traits@D@std@@V?$allocator@D@2@@1@HH@Z 00432b50 f i Editor.obj
 0002:00008d00       ??0?$basic_string@DU?$char_traits@D@std@@V?$allocator@D@2@@std@@QAE@$$QAV01@@Z 00432d00 f i Editor.obj
 0002:00008dd0       ??0?$basic_string@DU?$char_traits@D@std@@V?$allocator@D@2@@std@@QAE@ID@Z 00432dd0 f i Editor.obj
 0002:00008e90       ??0?$basic_string@DU?$char_traits@D@std@@V?$allocator@D@2@@std@@QAE@PBD@Z 00432e90 f i Editor.obj
 0002:00008f50       ??0?$basic_string@DU?$char_traits@D@std@@V?$allocator@D@2@@std@@QAE@XZ 00432f50 f i Editor.obj
 0002:00008ff0       ??0?$fpos@U_Mbstatet@@@std@@QAE@U_Mbstatet@@_J@Z 00432ff0 f i Editor.obj
 0002:00009070       ??0?$fpos@U_Mbstatet@@@std@@QAE@_J@Z 00433070 f i Editor.obj
 0002:000090f0       ??0Editor@@QAE@XZ          004330f0 f   Editor.obj
 0002:00009240       ??0InputManager@@QAE@XZ    00433240 f i Editor.obj
 0002:00009280       ??0_Bxty@?$_String_val@U?$_Simple_types@D@std@@@std@@QAE@XZ 00433280 f i Editor.obj
 0002:000092c0       ??0_Container_base12@std@@QAE@XZ 004332c0 f i Editor.obj
 0002:00009310       ??0_Container_proxy@std@@QAE@XZ 00433310 f i Editor.obj
 0002:00009360       ??0_Iterator_base12@std@@QAE@XZ 00433360 f i Editor.obj
 0002:000093b0       ??0bad_cast@std@@QAE@ABV01@@Z 004333b0 f i Editor.obj
 0002:00009420       ??0bad_cast@std@@QAE@XZ    00433420 f i Editor.obj
 0002:00009490       ??0exception@std@@QAE@ABV01@@Z 00433490 f i Editor.obj
 0002:00009520       ??0exception@std@@QAE@QBDH@Z 00433520 f i Editor.obj
 0002:00009590       ??1?$_Compressed_pair@U?$_Wrap_alloc@V?$allocator@D@std@@@std@@V?$_String_val@U?$_Simple_types@D@std@@@2@$00@std@@QAE@XZ 00433590 f i Editor.obj
 0002:000095e0       ??1?$_Iterator012@Urandom_access_iterator_tag@std@@DHPBDABDU_Iterator_base12@2@@std@@QAE@XZ 004335e0 f i Editor.obj
 0002:00009630       ??1?$_String_alloc@U?$_String_base_types@DV?$allocator@D@std@@@std@@@std@@QAE@XZ 00433630 f i Editor.obj
 0002:000096c0       ??1?$_String_const_iterator@V?$_String_val@U?$_Simple_types@D@std@@@std@@@std@@QAE@XZ 004336c0 f i Editor.obj
 0002:00009710       ??1?$_String_iterator@V?$_String_val@U?$_Simple_types@D@std@@@std@@@std@@QAE@XZ 00433710 f i Editor.obj
 0002:00009760       ??1?$_String_val@U?$_Simple_types@D@std@@@std@@QAE@XZ 00433760 f i Editor.obj
 0002:000097c0       ??1?$basic_filebuf@DU?$char_traits@D@std@@@std@@UAE@XZ 004337c0 f i Editor.obj
 0002:00009890       ??1?$basic_ifstream@DU?$char_traits@D@std@@@std@@UAE@XZ 00433890 f i Editor.obj
 0002:00009940       ??1?$basic_string@DU?$char_traits@D@std@@V?$allocator@D@2@@std@@QAE@XZ 00433940 f i Editor.obj
 0002:000099e0       ??1Editor@@UAE@XZ          004339e0 f   Editor.obj
 0002:00009ab0       ??1InputManager@@QAE@XZ    00433ab0 f i Editor.obj
 0002:00009b40       ??1_Bxty@?$_String_val@U?$_Simple_types@D@std@@@std@@QAE@XZ 00433b40 f i Editor.obj
 0002:00009b80       ??1_Container_base12@std@@QAE@XZ 00433b80 f i Editor.obj
 0002:00009c10       ??1_Iterator_base12@std@@QAE@XZ 00433c10 f i Editor.obj
 0002:00009d00       ??1bad_cast@std@@UAE@XZ    00433d00 f i Editor.obj
 0002:00009d50       ??1exception@std@@UAE@XZ   00433d50 f i Editor.obj
 0002:00009dc0       ??1locale@std@@QAE@XZ      00433dc0 f i Editor.obj
 0002:00009ed0       ??2@YAPAXIPAX@Z            00433ed0 f i Editor.obj
 0002:00009f10       ??B?$fpos@U_Mbstatet@@@std@@QBE_JXZ 00433f10 f i Editor.obj
 0002:00009f60       ??D?$_String_const_iterator@V?$_String_val@U?$_Simple_types@D@std@@@std@@@std@@QBEABDXZ 00433f60 f i Editor.obj
 0002:0000a0e0       ??D?$_String_iterator@V?$_String_val@U?$_Simple_types@D@std@@@std@@@std@@QBEAADXZ 004340e0 f i Editor.obj
 0002:0000a130       ??Y?$basic_string@DU?$char_traits@D@std@@V?$allocator@D@2@@std@@QAEAAV01@ABV01@@Z 00434130 f i Editor.obj
 0002:0000a190       ??_D?$basic_ifstream@DU?$char_traits@D@std@@@std@@QAEXXZ 00434190 f i Editor.obj
 0002:0000a1fc       ??_E?$basic_ifstream@DU?$char_traits@D@std@@@std@@$4PPPPPPPM@A@AEPAXI@Z 004341fc f i Editor.obj
 0002:0000a210       ??_E?$basic_filebuf@DU?$char_traits@D@std@@@std@@UAEPAXI@Z 00434210 f i Editor.obj
 0002:0000a210       ??_G?$basic_filebuf@DU?$char_traits@D@std@@@std@@UAEPAXI@Z 00434210 f i Editor.obj
 0002:0000a280       ??_G?$basic_ifstream@DU?$char_traits@D@std@@@std@@UAEPAXI@Z 00434280 f i Editor.obj
 0002:0000a280       ??_E?$basic_ifstream@DU?$char_traits@D@std@@@std@@UAEPAXI@Z 00434280 f i Editor.obj
 0002:0000a300       ??_GEditor@@UAEPAXI@Z      00434300 f i Editor.obj
 0002:0000a300       ??_EEditor@@UAEPAXI@Z      00434300 f i Editor.obj
 0002:0000a390       ??_GGameMessageManager@@QAEPAXI@Z 00434390 f i Editor.obj
 0002:0000a420       ??_GGrid@@QAEPAXI@Z        00434420 f i Editor.obj
 0002:0000a4b0       ??_GGridVisualizer@@QAEPAXI@Z 004344b0 f i Editor.obj
 0002:0000a540       ??_GHelpMenu@@QAEPAXI@Z    00434540 f i Editor.obj
 0002:0000a5d0       ??_GInputManager@@QAEPAXI@Z 004345d0 f i Editor.obj
 0002:0000a660       ??_Ebad_cast@std@@UAEPAXI@Z 00434660 f i Editor.obj
 0002:0000a660       ??_Gbad_cast@std@@UAEPAXI@Z 00434660 f i Editor.obj
 0002:0000a6d0       ??_Eexception@std@@UAEPAXI@Z 004346d0 f i Editor.obj
 0002:0000a6d0       ??_Gexception@std@@UAEPAXI@Z 004346d0 f i Editor.obj
 0002:0000a740       ?_Adopt@_Iterator_base12@std@@QAEXPBU_Container_base12@2@@Z 00434740 f i Editor.obj
 0002:0000a8f0       ?_Alloc_proxy@?$_String_alloc@U?$_String_base_types@DV?$allocator@D@std@@@std@@@std@@QAEXXZ 004348f0 f i Editor.obj
 0002:0000a9f0       ?_Allocate@std@@YAPAXII_N@Z 004349f0 f i Editor.obj
 0002:0000ac50       ?_Assign_rv@?$basic_string@DU?$char_traits@D@std@@V?$allocator@D@2@@std@@QAEX$$QAV12@@Z 00434c50 f i Editor.obj
 0002:0000ad70       ?_Bx@?$_String_alloc@U?$_String_base_types@DV?$allocator@D@std@@@std@@@std@@QAEAAT_Bxty@?$_String_val@U?$_Simple_types@D@std@@@2@XZ 00434d70 f i Editor.obj
 0002:0000add0       ?_Chassign@?$basic_string@DU?$char_traits@D@std@@V?$allocator@D@2@@std@@QAEXIID@Z 00434dd0 f i Editor.obj
 0002:0000ae70       ?_Check_offset@?$basic_string@DU?$char_traits@D@std@@V?$allocator@D@2@@std@@QBEXI@Z 00434e70 f i Editor.obj
 0002:0000aee0       ?_Clamp_suffix_size@?$basic_string@DU?$char_traits@D@std@@V?$allocator@D@2@@std@@QBEIII@Z 00434ee0 f i Editor.obj
 0002:0000af60       ?_Construct@?$basic_string@DU?$char_traits@D@std@@V?$allocator@D@2@@std@@QAEXPAD0Urandom_access_iterator_tag@2@@Z 00434f60 f i Editor.obj
 0002:0000afd0       ?_Copy@?$basic_string@DU?$char_traits@D@std@@V?$allocator@D@2@@std@@QAEXII@Z 00434fd0 f i Editor.obj
 0002:0000b290       ?_Deallocate@std@@YAXPAXII@Z 00435290 f i Editor.obj
 0002:0000b6b0       ?_Endwrite@?$basic_filebuf@DU?$char_traits@D@std@@@std@@IAE_NXZ 004356b0 f i Editor.obj
 0002:0000bb90       ?_Eos@?$basic_string@DU?$char_traits@D@std@@V?$allocator@D@2@@std@@QAEXI@Z 00435b90 f i Editor.obj
 0002:0000bc20       ?_Free_proxy@?$_String_alloc@U?$_String_base_types@DV?$allocator@D@std@@@std@@@std@@QAEXXZ 00435c20 f i Editor.obj
 0002:0000bd10       ?_Get_data@?$_String_alloc@U?$_String_base_types@DV?$allocator@D@std@@@std@@@std@@QAEAAV?$_String_val@U?$_Simple_types@D@std@@@2@XZ 00435d10 f i Editor.obj
 0002:0000bd60       ?_Get_data@?$_String_alloc@U?$_String_base_types@DV?$allocator@D@std@@@std@@@std@@QBEABV?$_String_val@U?$_Simple_types@D@std@@@2@XZ 00435d60 f i Editor.obj
 0002:0000bdb0       ?_Get_first@?$_Compressed_pair@U?$_Wrap_alloc@V?$allocator@D@std@@@std@@V?$_String_val@U?$_Simple_types@D@std@@@2@$00@std@@QAEAAU?$_Wrap_alloc@V?$allocator@D@std@@@2@XZ 00435db0 f i Editor.obj
 0002:0000bdf0       ?_Get_first@?$_Compressed_pair@U?$_Wrap_alloc@V?$allocator@D@std@@@std@@V?$_String_val@U?$_Simple_types@D@std@@@2@$00@std@@QBEABU?$_Wrap_alloc@V?$allocator@D@std@@@2@XZ 00435df0 f i Editor.obj
 0002:0000be30       ?_Get_second@?$_Compressed_pair@U?$_Wrap_alloc@V?$allocator@D@std@@@std@@V?$_String_val@U?$_Simple_types@D@std@@@2@$00@std@@QAEAAV?$_String_val@U?$_Simple_types@D@std@@@2@XZ 00435e30 f i Editor.obj
 0002:0000be70       ?_Get_second@?$_Compressed_pair@U?$_Wrap_alloc@V?$allocator@D@std@@@std@@V?$_String_val@U?$_Simple_types@D@std@@@2@$00@std@@QBEABV?$_String_val@U?$_Simple_types@D@std@@@2@XZ 00435e70 f i Editor.obj
 0002:0000beb0       ?_Getal@?$_String_alloc@U?$_String_base_types@DV?$allocator@D@std@@@std@@@std@@QAEAAU?$_Wrap_alloc@V?$allocator@D@std@@@2@XZ 00435eb0 f i Editor.obj
 0002:0000bf00       ?_Getal@?$_String_alloc@U?$_String_base_types@DV?$allocator@D@std@@@std@@@std@@QBEABU?$_Wrap_alloc@V?$allocator@D@std@@@2@XZ 00435f00 f i Editor.obj
 0002:0000bf50       ?_Getcont@_Iterator_base12@std@@QBEPBU_Container_base12@2@XZ 00435f50 f i Editor.obj
 0002:0000bfc0       ?_Getfacet@locale@std@@QBEPBVfacet@12@I@Z 00435fc0 f i Editor.obj
 0002:0000c0c0       ?_Grow@?$basic_string@DU?$char_traits@D@std@@V?$allocator@D@2@@std@@QAE_NI_N@Z 004360c0 f i Editor.obj
 0002:0000c1f0       ?_Init@?$basic_filebuf@DU?$char_traits@D@std@@@std@@IAEXPAU_iobuf@@W4_Initfl@12@@Z 004361f0 f i Editor.obj
 0002:0000c3b0       ?_Initcvt@?$basic_filebuf@DU?$char_traits@D@std@@@std@@IAEXPBV?$codecvt@DDU_Mbstatet@@@2@@Z 004363b0 f i Editor.obj
 0002:0000c450       ?_Inside@?$basic_string@DU?$char_traits@D@std@@V?$allocator@D@2@@std@@QAE_NPBD@Z 00436450 f i Editor.obj
 0002:0000c4e0       ?_Lock@?$basic_filebuf@DU?$char_traits@D@std@@@std@@UAEXXZ 004364e0 f i Editor.obj
 0002:0000c550       ?_Myproxy@?$_String_alloc@U?$_String_base_types@DV?$allocator@D@std@@@std@@@std@@QAEAAPAU_Container_proxy@2@XZ 00436550 f i Editor.obj
 0002:0000c5a0       ?_Myptr@?$_String_alloc@U?$_String_base_types@DV?$allocator@D@std@@@std@@@std@@QAEPADXZ 004365a0 f i Editor.obj
 0002:0000c600       ?_Myptr@?$_String_alloc@U?$_String_base_types@DV?$allocator@D@std@@@std@@@std@@QBEPBDXZ 00436600 f i Editor.obj
 0002:0000c660       ?_Myptr@?$_String_val@U?$_Simple_types@D@std@@@std@@QAEPADXZ 00436660 f i Editor.obj
 0002:0000c6f0       ?_Myptr@?$_String_val@U?$_Simple_types@D@std@@@std@@QBEPBDXZ 004366f0 f i Editor.obj
 0002:0000c780       ?_Myres@?$_String_alloc@U?$_String_base_types@DV?$allocator@D@std@@@std@@@std@@QAEAAIXZ 00436780 f i Editor.obj
 0002:0000c7e0       ?_Myres@?$_String_alloc@U?$_String_base_types@DV?$allocator@D@std@@@std@@@std@@QBEABIXZ 004367e0 f i Editor.obj
 0002:0000c840       ?_Mysize@?$_String_alloc@U?$_String_base_types@DV?$allocator@D@std@@@std@@@std@@QAEAAIXZ 00436840 f i Editor.obj
 0002:0000c8a0       ?_Mysize@?$_String_alloc@U?$_String_base_types@DV?$allocator@D@std@@@std@@@std@@QBEABIXZ 004368a0 f i Editor.obj
 0002:0000c900       ?_Orphan_all@?$_String_alloc@U?$_String_base_types@DV?$allocator@D@std@@@std@@@std@@QAEXXZ 00436900 f i Editor.obj
 0002:0000c960       ?_Orphan_all@_Container_base12@std@@QAEXXZ 00436960 f i Editor.obj
 0002:0000ca70       ?_Orphan_me@_Iterator_base12@std@@QAEXXZ 00436a70 f i Editor.obj
 0002:0000cb40       ?_Reset_back@?$basic_filebuf@DU?$char_traits@D@std@@@std@@AAEXXZ 00436b40 f i Editor.obj
 0002:0000cbe0       ?_Set_back@?$basic_filebuf@DU?$char_traits@D@std@@@std@@AAEXXZ 00436be0 f i Editor.obj
 0002:0000ccc0       ?_Tidy@?$basic_string@DU?$char_traits@D@std@@V?$allocator@D@2@@std@@QAEX_NI@Z 00436cc0 f i Editor.obj
 0002:0000cde0       ?_Unlock@?$basic_filebuf@DU?$char_traits@D@std@@@std@@UAEXXZ 00436de0 f i Editor.obj
 0002:0000ce50       ?_Xlen@?$basic_string@DU?$char_traits@D@std@@V?$allocator@D@2@@std@@QBEXXZ 00436e50 f i Editor.obj
 0002:0000ceb0       ?_Xran@?$basic_string@DU?$char_traits@D@std@@V?$allocator@D@2@@std@@QBEXXZ 00436eb0 f i Editor.obj
 0002:0000cf10       ?address@?$_Wrap_alloc@V?$allocator@D@std@@@std@@QBEPADAAD@Z 00436f10 f i Editor.obj
 0002:0000cf70       ?address@?$_Wrap_alloc@V?$allocator@U_Container_proxy@std@@@std@@@std@@QBEPAU_Container_proxy@2@AAU32@@Z 00436f70 f i Editor.obj
 0002:0000cfd0       ?allocate@?$_Wrap_alloc@V?$allocator@D@std@@@std@@QAEPADI@Z 00436fd0 f i Editor.obj
 0002:0000d030       ?allocate@?$_Wrap_alloc@V?$allocator@U_Container_proxy@std@@@std@@@std@@QAEPAU_Container_proxy@2@I@Z 00437030 f i Editor.obj
 0002:0000d090       ?allocate@?$allocator@D@std@@QAEPADI@Z 00437090 f i Editor.obj
 0002:0000d0f0       ?allocate@?$allocator@U_Container_proxy@std@@@std@@QAEPAU_Container_proxy@2@I@Z 004370f0 f i Editor.obj
 0002:0000d150       ?append@?$basic_string@DU?$char_traits@D@std@@V?$allocator@D@2@@std@@QAEAAV12@ABV12@@Z 00437150 f i Editor.obj
 0002:0000d1b0       ?append@?$basic_string@DU?$char_traits@D@std@@V?$allocator@D@2@@std@@QAEAAV12@ABV12@II@Z 004371b0 f i Editor.obj
 0002:0000d2d0       ?append@?$basic_string@DU?$char_traits@D@std@@V?$allocator@D@2@@std@@QAEAAV12@ID@Z 004372d0 f i Editor.obj
 0002:0000d3b0       ?assign@?$basic_string@DU?$char_traits@D@std@@V?$allocator@D@2@@std@@QAEAAV12@ABV12@II@Z 004373b0 f i Editor.obj
 0002:0000d4b0       ?assign@?$basic_string@DU?$char_traits@D@std@@V?$allocator@D@2@@std@@QAEAAV12@ID@Z 004374b0 f i Editor.obj
 0002:0000d560       ?assign@?$basic_string@DU?$char_traits@D@std@@V?$allocator@D@2@@std@@QAEAAV12@PBD@Z 00437560 f i Editor.obj
 0002:0000d5f0       ?assign@?$basic_string@DU?$char_traits@D@std@@V?$allocator@D@2@@std@@QAEAAV12@PBDI@Z 004375f0 f i Editor.obj
 0002:0000d710       ?assign@?$char_traits@D@std@@SAPADPADID@Z 00437710 f i Editor.obj
 0002:0000d770       ?assign@?$char_traits@D@std@@SAXAADABD@Z 00437770 f i Editor.obj
 0002:0000d7b0       ?begin@?$basic_string@DU?$char_traits@D@std@@V?$allocator@D@2@@std@@QAE?AV?$_String_iterator@V?$_String_val@U?$_Simple_types@D@std@@@std@@@2@XZ 004377b0 f i Editor.obj
 0002:0000d870       ?beginLoop@Editor@@UAEXXZ  00437870 f   Editor.obj
 0002:0000d8c0       ?c_str@?$basic_string@DU?$char_traits@D@std@@V?$allocator@D@2@@std@@QBEPBDXZ 004378c0 f i Editor.obj
 0002:0000d950       ?capacity@?$basic_string@DU?$char_traits@D@std@@V?$allocator@D@2@@std@@QBEIXZ 00437950 f i Editor.obj
 0002:0000d9b0       ?cleanup@Editor@@UAEXXZ    004379b0 f   Editor.obj
 0002:0000dbd0       ?close@?$basic_filebuf@DU?$char_traits@D@std@@@std@@QAEPAV12@XZ 00437bd0 f i Editor.obj
 0002:0000dc90       ?close@?$basic_ifstream@DU?$char_traits@D@std@@@std@@QAEXXZ 00437c90 f i Editor.obj
 0002:0000dd10       ?copy@?$char_traits@D@std@@SAPADPADPBDI@Z 00437d10 f i Editor.obj
 0002:0000dd90       ?deallocate@?$_Wrap_alloc@V?$allocator@D@std@@@std@@QAEXPADI@Z 00437d90 f i Editor.obj
 0002:0000ddf0       ?deallocate@?$_Wrap_alloc@V?$allocator@U_Container_proxy@std@@@std@@@std@@QAEXPAU_Container_proxy@2@I@Z 00437df0 f i Editor.obj
 0002:0000de50       ?deallocate@?$allocator@D@std@@QAEXPADI@Z 00437e50 f i Editor.obj
 0002:0000deb0       ?deallocate@?$allocator@U_Container_proxy@std@@@std@@QAEXPAU_Container_proxy@2@I@Z 00437eb0 f i Editor.obj
 0002:0000df10       ?endLoop@Editor@@UAE_NXZ   00437f10 f   Editor.obj
 0002:0000df60       ?erase@?$basic_string@DU?$char_traits@D@std@@V?$allocator@D@2@@std@@QAEAAV12@I@Z 00437f60 f i Editor.obj
 0002:0000dfd0       ?erase@?$basic_string@DU?$char_traits@D@std@@V?$allocator@D@2@@std@@QAEAAV12@II@Z 00437fd0 f i Editor.obj
 0002:0000e0b0       ?getBackBuffer@GraphicsSystem@@QAEPAVGraphicsBuffer@@XZ 004380b0 f i Editor.obj
 0002:0000e0f0       ?getFilename@Editor@@QAE?AV?$basic_string@DU?$char_traits@D@std@@V?$allocator@D@2@@std@@XZ 004380f0 f i Editor.obj
 0002:0000e2c0       ?getHeight@GraphicsBuffer@@QBEHXZ 004382c0 f i Editor.obj
 0002:0000e330       ?getHeight@GraphicsSystem@@QBEHXZ 00438330 f i Editor.obj
 0002:0000e370       ?getWidth@GraphicsBuffer@@QBEHXZ 00438370 f i Editor.obj
 0002:0000e3e0       ?getWidth@GraphicsSystem@@QBEHXZ 004383e0 f i Editor.obj
 0002:0000e420       ?imbue@?$basic_filebuf@DU?$char_traits@D@std@@@std@@MAEXABVlocale@2@@Z 00438420 f i Editor.obj
 0002:0000e490       ?init@Editor@@UAE_NXZ      00438490 f   Editor.obj
 0002:0000ef50       ?insert@?$basic_string@DU?$char_traits@D@std@@V?$allocator@D@2@@std@@QAEAAV12@IABV12@@Z 00438f50 f i Editor.obj
 0002:0000efb0       ?insert@?$basic_string@DU?$char_traits@D@std@@V?$allocator@D@2@@std@@QAEAAV12@IABV12@II@Z 00438fb0 f i Editor.obj
 0002:0000f170       ?loadGrid@Editor@@QAEXAAV?$basic_ifstream@DU?$char_traits@D@std@@@std@@@Z 00439170 f   Editor.obj
 0002:0000f1d0       ?max_size@?$_Wrap_alloc@V?$allocator@D@std@@@std@@QBEIU_Nil@2@@Z 004391d0 f i Editor.obj
 0002:0000f230       ?max_size@?$allocator@D@std@@QBEIXZ 00439230 f i Editor.obj
 0002:0000f270       ?max_size@?$allocator_traits@V?$allocator@D@std@@@std@@SAIABV?$allocator@D@2@@Z 00439270 f i Editor.obj
 0002:0000f2c0       ?max_size@?$basic_string@DU?$char_traits@D@std@@V?$allocator@D@2@@std@@QBEIXZ 004392c0 f i Editor.obj
 0002:0000f360       ?move@?$char_traits@D@std@@SAPADPADPBDI@Z 00439360 f i Editor.obj
 0002:0000f3f0       ?not_eof@?$char_traits@D@std@@SAHABH@Z 004393f0 f i Editor.obj
 0002:0000f490       ?open@?$basic_filebuf@DU?$char_traits@D@std@@@std@@QAEPAV12@PBDHH@Z 00439490 f i Editor.obj
 0002:0000f5e0       ?overflow@?$basic_filebuf@DU?$char_traits@D@std@@@std@@MAEHH@Z 004395e0 f i Editor.obj
 0002:0000fc70       ?pbackfail@?$basic_filebuf@DU?$char_traits@D@std@@@std@@MAEHH@Z 00439c70 f i Editor.obj
 0002:0000fec0       ?pointer_to@?$pointer_traits@PAD@std@@SAPADAAD@Z 00439ec0 f i Editor.obj
 0002:0000ff10       ?pointer_to@?$pointer_traits@PAU_Container_proxy@std@@@std@@SAPAU_Container_proxy@2@AAU32@@Z 00439f10 f i Editor.obj
 0002:0000ff60       ?processLoop@Editor@@UAEXXZ 00439f60 f   Editor.obj
 0002:00010000       ?reserve@?$basic_string@DU?$char_traits@D@std@@V?$allocator@D@2@@std@@QAEXI@Z 0043a000 f i Editor.obj
 0002:000100b0       ?saveGrid@Editor@@QAEXAAV?$basic_ofstream@DU?$char_traits@D@std@@@std@@@Z 0043a0b0 f   Editor.obj
 0002:00010110       ?seekoff@?$basic_filebuf@DU?$char_traits@D@std@@@std@@MAE?AV?$fpos@U_Mbstatet@@@2@_JHH@Z 0043a110 f i Editor.obj
 0002:000102c0       ?seekpos@?$basic_filebuf@DU?$char_traits@D@std@@@std@@MAE?AV?$fpos@U_Mbstatet@@@2@V32@H@Z 0043a2c0 f i Editor.obj
 0002:000104a0       ?seekpos@?$fpos@U_Mbstatet@@@std@@QBE_JXZ 0043a4a0 f i Editor.obj
 0002:000104e0       ?setEditor@GridVisualizer@@QAEX_N@Z 0043a4e0 f i Editor.obj
 0002:00010530       ?setbuf@?$basic_filebuf@DU?$char_traits@D@std@@@std@@MAEPAV?$basic_streambuf@DU?$char_traits@D@std@@@2@PAD_J@Z 0043a530 f i Editor.obj
 0002:00010610       ?size@?$basic_string@DU?$char_traits@D@std@@V?$allocator@D@2@@std@@QBEIXZ 0043a610 f i Editor.obj
 0002:00010670       ?state@?$fpos@U_Mbstatet@@@std@@QBE?AU_Mbstatet@@XZ 0043a670 f i Editor.obj
 0002:000106c0       ?sync@?$basic_filebuf@DU?$char_traits@D@std@@@std@@MAEHXZ 0043a6c0 f i Editor.obj
 0002:000107c0       ?to_char_type@?$char_traits@D@std@@SADABH@Z 0043a7c0 f i Editor.obj
 0002:00010800       ?to_int_type@?$char_traits@D@std@@SAHABD@Z 0043a800 f i Editor.obj
 0002:00010840       ?to_string@std@@YA?AV?$basic_string@DU?$char_traits@D@std@@V?$allocator@D@2@@1@H@Z 0043a840 f i Editor.obj
 0002:000108c0       ?uflow@?$basic_filebuf@DU?$char_traits@D@std@@@std@@MAEHXZ 0043a8c0 f i Editor.obj
 0002:00010ee0       ?underflow@?$basic_filebuf@DU?$char_traits@D@std@@@std@@MAEHXZ 0043aee0 f i Editor.obj
 0002:00011050       ?what@exception@std@@UBEPBDXZ 0043b050 f i Editor.obj
 0002:000112b0       ??0ExitGameMessage@@QAE@XZ 0043b2b0 f   ExitGameMessage.obj
 0002:00011310       ??1ExitGameMessage@@QAE@XZ 0043b310 f   ExitGameMessage.obj
 0002:00011370       ?markForExit@Game@@QAEXXZ  0043b370 f i ExitGameMessage.obj
 0002:000113b0       ?process@ExitGameMessage@@UAEXXZ 0043b3b0 f   ExitGameMessage.obj
 0002:00011410       ??0GameMessage@@QAE@W4MessageType@@@Z 0043b410 f   GameMessage.obj
 0002:00011480       ??1GameMessage@@QAE@XZ     0043b480 f   GameMessage.obj
 0002:000114c0       ??$?0$$V@?$_Compressed_pair@U?$_Wrap_alloc@V?$allocator@U?$_List_node@PAVGameMessage@@PAX@std@@@std@@@std@@V?$_List_val@U?$_List_simple_types@PAVGameMessage@@@std@@@2@$00@std@@QAE@U_Zero_then_variadic_args_t@1@@Z 0043b4c0 f i GameMessageManager.obj
 0002:00011520       ??$?0AAU?$_Wrap_alloc@V?$allocator@U?$_List_node@PAVGameMessage@@PAX@std@@@std@@@std@@@?$_Wrap_alloc@V?$allocator@U_Container_proxy@std@@@std@@@std@@QAE@AAU?$_Wrap_alloc@V?$allocator@U?$_List_node@PAVGameMessage@@PAX@std@@@std@@@1@@Z 0043b520 f i GameMessageManager.obj
 0002:00011590       ??$?0U?$_List_node@PAVGameMessage@@PAX@std@@@?$allocator@U_Container_proxy@std@@@std@@QAE@ABV?$allocator@U?$_List_node@PAVGameMessage@@PAX@std@@@1@@Z 0043b590 f i GameMessageManager.obj
 0002:000115d0       ??$_Buynode@ABQAVGameMessage@@@?$_List_buy@PAVGameMessage@@V?$allocator@PAVGameMessage@@@std@@@std@@QAEPAU?$_List_node@PAVGameMessage@@PAX@1@PAU21@0ABQAVGameMessage@@@Z 0043b5d0 f i GameMessageManager.obj
 0002:00011710       ??$_Insert@ABQAVGameMessage@@@?$list@PAVGameMessage@@V?$allocator@PAVGameMessage@@@std@@@std@@QAEXV?$_List_unchecked_const_iterator@V?$_List_val@U?$_List_simple_types@PAVGameMessage@@@std@@@std@@U_Iterator_base0@2@@1@ABQAVGameMessage@@@Z 0043b710 f i GameMessageManager.obj
 0002:000117e0       ??$addressof@PAU?$_List_node@PAVGameMessage@@PAX@std@@@std@@YAPAPAU?$_List_node@PAVGameMessage@@PAX@0@AAPAU10@@Z 0043b7e0 f i GameMessageManager.obj
 0002:00011820       ??$addressof@PAVGameMessage@@@std@@YAPAPAVGameMessage@@AAPAV1@@Z 0043b820 f i GameMessageManager.obj
 0002:00011860       ??$construct@PAU?$_List_node@PAVGameMessage@@PAX@std@@AAPAU12@@?$_Wrap_alloc@V?$allocator@U?$_List_node@PAVGameMessage@@PAX@std@@@std@@@std@@QAEXPAPAU?$_List_node@PAVGameMessage@@PAX@1@AAPAU21@@Z 0043b860 f i GameMessageManager.obj
 0002:000118d0       ??$construct@PAU?$_List_node@PAVGameMessage@@PAX@std@@AAPAU12@@?$allocator@U?$_List_node@PAVGameMessage@@PAX@std@@@std@@QAEXPAPAU?$_List_node@PAVGameMessage@@PAX@1@AAPAU21@@Z 0043b8d0 f i GameMessageManager.obj
 0002:00011980       ??$construct@PAU?$_List_node@PAVGameMessage@@PAX@std@@AAPAU12@@?$allocator_traits@V?$allocator@U?$_List_node@PAVGameMessage@@PAX@std@@@std@@@std@@SAXAAV?$allocator@U?$_List_node@PAVGameMessage@@PAX@std@@@1@PAPAU?$_List_node@PAVGameMessage@@PAX@1@AAPAU31@@Z 0043b980 f i GameMessageManager.obj
 0002:000119e0       ??$construct@PAVGameMessage@@ABQAV1@@?$_Wrap_alloc@V?$allocator@U?$_List_node@PAVGameMessage@@PAX@std@@@std@@@std@@QAEXPAPAVGameMessage@@ABQAV2@@Z 0043b9e0 f i GameMessageManager.obj
 0002:00011a50       ??$construct@PAVGameMessage@@ABQAV1@@?$allocator@U?$_List_node@PAVGameMessage@@PAX@std@@@std@@QAEXPAPAVGameMessage@@ABQAV2@@Z 0043ba50 f i GameMessageManager.obj
 0002:00011b00       ??$construct@PAVGameMessage@@ABQAV1@@?$allocator_traits@V?$allocator@U?$_List_node@PAVGameMessage@@PAX@std@@@std@@@std@@SAXAAV?$allocator@U?$_List_node@PAVGameMessage@@PAX@std@@@1@PAPAVGameMessage@@ABQAV3@@Z 0043bb00 f i GameMessageManager.obj
 0002:00011b60       ??$destroy@PAU?$_List_node@PAVGameMessage@@PAX@std@@@?$_Wrap_alloc@V?$allocator@U?$_List_node@PAVGameMessage@@PAX@std@@@std@@@std@@QAEXPAPAU?$_List_node@PAVGameMessage@@PAX@1@@Z 0043bb60 f i GameMessageManager.obj
 0002:00011bc0       ??$destroy@PAU?$_List_node@PAVGameMessage@@PAX@std@@@?$allocator@U?$_List_node@PAVGameMessage@@PAX@std@@@std@@QAEXPAPAU?$_List_node@PAVGameMessage@@PAX@1@@Z 0043bbc0 f i GameMessageManager.obj
 0002:00011c00       ??$destroy@PAU?$_List_node@PAVGameMessage@@PAX@std@@@?$allocator_traits@V?$allocator@U?$_List_node@PAVGameMessage@@PAX@std@@@std@@@std@@SAXAAV?$allocator@U?$_List_node@PAVGameMessage@@PAX@std@@@1@PAPAU?$_List_node@PAVGameMessage@@PAX@1@@Z 0043bc00 f i GameMessageManager.obj
 0002:00011c50       ??$destroy@PAVGameMessage@@@?$_Wrap_alloc@V?$allocator@U?$_List_node@PAVGameMessage@@PAX@std@@@std@@@std@@QAEXPAPAVGameMessage@@@Z 0043bc50 f i GameMessageManager.obj
 0002:00011cb0       ??$destroy@PAVGameMessage@@@?$allocator@U?$_List_node@PAVGameMessage@@PAX@std@@@std@@QAEXPAPAVGameMessage@@@Z 0043bcb0 f i GameMessageManager.obj
 0002:00011cf0       ??$destroy@PAVGameMessage@@@?$allocator_traits@V?$allocator@U?$_List_node@PAVGameMessage@@PAX@std@@@std@@@std@@SAXAAV?$allocator@U?$_List_node@PAVGameMessage@@PAX@std@@@1@PAPAVGameMessage@@@Z 0043bcf0 f i GameMessageManager.obj
 0002:00011d40       ??$forward@AAPAU?$_List_node@PAVGameMessage@@PAX@std@@@std@@YAAAPAU?$_List_node@PAVGameMessage@@PAX@0@AAPAU10@@Z 0043bd40 f i GameMessageManager.obj
 0002:00011d80       ??$forward@AAU?$_Wrap_alloc@V?$allocator@U?$_List_node@PAVGameMessage@@PAX@std@@@std@@@std@@@std@@YAAAU?$_Wrap_alloc@V?$allocator@U?$_List_node@PAVGameMessage@@PAX@std@@@std@@@0@AAU10@@Z 0043bd80 f i GameMessageManager.obj
 0002:00011dc0       ??$forward@ABQAVGameMessage@@@std@@YAABQAVGameMessage@@ABQAV1@@Z 0043bdc0 f i GameMessageManager.obj
 0002:00011e00       ??0?$_Iterator012@Ubidirectional_iterator_tag@std@@PAVGameMessage@@HPBQAV3@ABQAV3@U_Iterator_base12@2@@std@@QAE@$$QAU01@@Z 0043be00 f i GameMessageManager.obj
 0002:00011e60       ??0?$_Iterator012@Ubidirectional_iterator_tag@std@@PAVGameMessage@@HPBQAV3@ABQAV3@U_Iterator_base12@2@@std@@QAE@ABU01@@Z 0043be60 f i GameMessageManager.obj
 0002:00011ec0       ??0?$_Iterator012@Ubidirectional_iterator_tag@std@@PAVGameMessage@@HPBQAV3@ABQAV3@U_Iterator_base12@2@@std@@QAE@XZ 0043bec0 f i GameMessageManager.obj
 0002:00011f20       ??0?$_List_alloc@U?$_List_base_types@PAVGameMessage@@V?$allocator@PAVGameMessage@@@std@@@std@@@std@@QAE@XZ 0043bf20 f i GameMessageManager.obj
 0002:00012030       ??0?$_List_buy@PAVGameMessage@@V?$allocator@PAVGameMessage@@@std@@@std@@QAE@XZ 0043c030 f i GameMessageManager.obj
 0002:00012090       ??0?$_List_const_iterator@V?$_List_val@U?$_List_simple_types@PAVGameMessage@@@std@@@std@@@std@@QAE@$$QAV01@@Z 0043c090 f i GameMessageManager.obj
 0002:000120f0       ??0?$_List_const_iterator@V?$_List_val@U?$_List_simple_types@PAVGameMessage@@@std@@@std@@@std@@QAE@ABV01@@Z 0043c0f0 f i GameMessageManager.obj
 0002:00012150       ??0?$_List_const_iterator@V?$_List_val@U?$_List_simple_types@PAVGameMessage@@@std@@@std@@@std@@QAE@PAU?$_List_node@PAVGameMessage@@PAX@1@PBV?$_List_val@U?$_List_simple_types@PAVGameMessage@@@std@@@1@@Z 0043c150 f i GameMessageManager.obj
 0002:000121b0       ??0?$_List_const_iterator@V?$_List_val@U?$_List_simple_types@PAVGameMessage@@@std@@@std@@@std@@QAE@XZ 0043c1b0 f i GameMessageManager.obj
 0002:00012210       ??0?$_List_iterator@V?$_List_val@U?$_List_simple_types@PAVGameMessage@@@std@@@std@@@std@@QAE@PAU?$_List_node@PAVGameMessage@@PAX@1@PBV?$_List_val@U?$_List_simple_types@PAVGameMessage@@@std@@@1@@Z 0043c210 f i GameMessageManager.obj
 0002:00012270       ??0?$_List_iterator@V?$_List_val@U?$_List_simple_types@PAVGameMessage@@@std@@@std@@@std@@QAE@XZ 0043c270 f i GameMessageManager.obj
 0002:000122d0       ??0?$_List_unchecked_const_iterator@V?$_List_val@U?$_List_simple_types@PAVGameMessage@@@std@@@std@@U_Iterator_base0@2@@std@@QAE@PAU?$_List_node@PAVGameMessage@@PAX@1@PBV?$_List_val@U?$_List_simple_types@PAVGameMessage@@@std@@@1@@Z 0043c2d0 f i GameMessageManager.obj
 0002:00012340       ??0?$_List_unchecked_const_iterator@V?$_List_val@U?$_List_simple_types@PAVGameMessage@@@std@@@std@@U_Iterator_base12@2@@std@@QAE@$$QAV01@@Z 0043c340 f i GameMessageManager.obj
 0002:000123b0       ??0?$_List_unchecked_const_iterator@V?$_List_val@U?$_List_simple_types@PAVGameMessage@@@std@@@std@@U_Iterator_base12@2@@std@@QAE@ABV01@@Z 0043c3b0 f i GameMessageManager.obj
 0002:00012420       ??0?$_List_unchecked_const_iterator@V?$_List_val@U?$_List_simple_types@PAVGameMessage@@@std@@@std@@U_Iterator_base12@2@@std@@QAE@PAU?$_List_node@PAVGameMessage@@PAX@1@PBV?$_List_val@U?$_List_simple_types@PAVGameMessage@@@std@@@1@@Z 0043c420 f i GameMessageManager.obj
 0002:000124e0       ??0?$_List_unchecked_const_iterator@V?$_List_val@U?$_List_simple_types@PAVGameMessage@@@std@@@std@@U_Iterator_base12@2@@std@@QAE@XZ 0043c4e0 f i GameMessageManager.obj
 0002:00012540       ??0?$_List_unchecked_iterator@V?$_List_val@U?$_List_simple_types@PAVGameMessage@@@std@@@std@@@std@@QAE@PAU?$_List_node@PAVGameMessage@@PAX@1@PBV?$_List_val@U?$_List_simple_types@PAVGameMessage@@@std@@@1@@Z 0043c540 f i GameMessageManager.obj
 0002:000125a0       ??0?$_List_val@U?$_List_simple_types@PAVGameMessage@@@std@@@std@@QAE@XZ 0043c5a0 f i GameMessageManager.obj
 0002:00012610       ??0?$_Wrap_alloc@V?$allocator@U?$_List_node@PAVGameMessage@@PAX@std@@@std@@@std@@QAE@XZ 0043c610 f i GameMessageManager.obj
 0002:00012670       ??0?$allocator@U?$_List_node@PAVGameMessage@@PAX@std@@@std@@QAE@XZ 0043c670 f i GameMessageManager.obj
 0002:000126b0       ??0?$list@PAVGameMessage@@V?$allocator@PAVGameMessage@@@std@@@std@@QAE@XZ 0043c6b0 f i GameMessageManager.obj
 0002:00012710       ??0GameMessageManager@@QAE@XZ 0043c710 f   GameMessageManager.obj
 0002:00012770       ??0_Iterator_base12@std@@QAE@ABU01@@Z 0043c770 f i GameMessageManager.obj
 0002:000127f0       ??1?$_Compressed_pair@U?$_Wrap_alloc@V?$allocator@U?$_List_node@PAVGameMessage@@PAX@std@@@std@@@std@@V?$_List_val@U?$_List_simple_types@PAVGameMessage@@@std@@@2@$00@std@@QAE@XZ 0043c7f0 f i GameMessageManager.obj
 0002:00012840       ??1?$_Iterator012@Ubidirectional_iterator_tag@std@@PAVGameMessage@@HPBQAV3@ABQAV3@U_Iterator_base12@2@@std@@QAE@XZ 0043c840 f i GameMessageManager.obj
 0002:00012890       ??1?$_List_alloc@U?$_List_base_types@PAVGameMessage@@V?$allocator@PAVGameMessage@@@std@@@std@@@std@@QAE@XZ 0043c890 f i GameMessageManager.obj
 0002:00012940       ??1?$_List_buy@PAVGameMessage@@V?$allocator@PAVGameMessage@@@std@@@std@@QAE@XZ 0043c940 f i GameMessageManager.obj
 0002:00012990       ??1?$_List_const_iterator@V?$_List_val@U?$_List_simple_types@PAVGameMessage@@@std@@@std@@@std@@QAE@XZ 0043c990 f i GameMessageManager.obj
 0002:000129e0       ??1?$_List_iterator@V?$_List_val@U?$_List_simple_types@PAVGameMessage@@@std@@@std@@@std@@QAE@XZ 0043c9e0 f i GameMessageManager.obj
 0002:00012a30       ??1?$_List_unchecked_const_iterator@V?$_List_val@U?$_List_simple_types@PAVGameMessage@@@std@@@std@@U_Iterator_base12@2@@std@@QAE@XZ 0043ca30 f i GameMessageManager.obj
 0002:00012a80       ??1?$_List_val@U?$_List_simple_types@PAVGameMessage@@@std@@@std@@QAE@XZ 0043ca80 f i GameMessageManager.obj
 0002:00012ad0       ??1?$list@PAVGameMessage@@V?$allocator@PAVGameMessage@@@std@@@std@@QAE@XZ 0043cad0 f i GameMessageManager.obj
 0002:00012b60       ??1GameMessageManager@@QAE@XZ 0043cb60 f   GameMessageManager.obj
 0002:00012d00       ??4?$_Iterator012@Ubidirectional_iterator_tag@std@@PAVGameMessage@@HPBQAV3@ABQAV3@U_Iterator_base12@2@@std@@QAEAAU01@$$QAU01@@Z 0043cd00 f i GameMessageManager.obj
 0002:00012d60       ??4?$_List_const_iterator@V?$_List_val@U?$_List_simple_types@PAVGameMessage@@@std@@@std@@@std@@QAEAAV01@$$QAV01@@Z 0043cd60 f i GameMessageManager.obj
 0002:00012dc0       ??4?$_List_iterator@V?$_List_val@U?$_List_simple_types@PAVGameMessage@@@std@@@std@@@std@@QAEAAV01@$$QAV01@@Z 0043cdc0 f i GameMessageManager.obj
 0002:00012e20       ??4?$_List_unchecked_const_iterator@V?$_List_val@U?$_List_simple_types@PAVGameMessage@@@std@@@std@@U_Iterator_base12@2@@std@@QAEAAV01@$$QAV01@@Z 0043ce20 f i GameMessageManager.obj
 0002:00012e90       ??4_Iterator_base12@std@@QAEAAU01@ABU01@@Z 0043ce90 f i GameMessageManager.obj
 0002:00012fd0       ??8?$_List_const_iterator@V?$_List_val@U?$_List_simple_types@PAVGameMessage@@@std@@@std@@@std@@QBE_NABV01@@Z 0043cfd0 f i GameMessageManager.obj
 0002:00013120       ??9?$_List_const_iterator@V?$_List_val@U?$_List_simple_types@PAVGameMessage@@@std@@@std@@@std@@QBE_NABV01@@Z 0043d120 f i GameMessageManager.obj
 0002:000131b0       ??D?$_List_const_iterator@V?$_List_val@U?$_List_simple_types@PAVGameMessage@@@std@@@std@@@std@@QBEABQAVGameMessage@@XZ 0043d1b0 f i GameMessageManager.obj
 0002:000132f0       ??D?$_List_iterator@V?$_List_val@U?$_List_simple_types@PAVGameMessage@@@std@@@std@@@std@@QBEAAPAVGameMessage@@XZ 0043d2f0 f i GameMessageManager.obj
 0002:00013340       ??E?$_List_const_iterator@V?$_List_val@U?$_List_simple_types@PAVGameMessage@@@std@@@std@@@std@@QAE?AV01@H@Z 0043d340 f i GameMessageManager.obj
 0002:00013460       ??E?$_List_const_iterator@V?$_List_val@U?$_List_simple_types@PAVGameMessage@@@std@@@std@@@std@@QAEAAV01@XZ 0043d460 f i GameMessageManager.obj
 0002:000135b0       ??E?$_List_iterator@V?$_List_val@U?$_List_simple_types@PAVGameMessage@@@std@@@std@@@std@@QAEAAV01@XZ 0043d5b0 f i GameMessageManager.obj
 0002:00013610       ??_GGameMessage@@QAEPAXI@Z 0043d610 f i GameMessageManager.obj
 0002:000136a0       ?_Adopt@_Iterator_base0@std@@QAEXPBX@Z 0043d6a0 f i GameMessageManager.obj
 0002:000136e0       ?_Alloc_proxy@?$_List_alloc@U?$_List_base_types@PAVGameMessage@@V?$allocator@PAVGameMessage@@@std@@@std@@@std@@QAEXXZ 0043d6e0 f i GameMessageManager.obj
 0002:000137e0       ?_Buyheadnode@?$_List_alloc@U?$_List_base_types@PAVGameMessage@@V?$allocator@PAVGameMessage@@@std@@@std@@@std@@QAEPAU?$_List_node@PAVGameMessage@@PAX@2@XZ 0043d7e0 f i GameMessageManager.obj
 0002:00013840       ?_Buynode0@?$_List_alloc@U?$_List_base_types@PAVGameMessage@@V?$allocator@PAVGameMessage@@@std@@@std@@@std@@QAEPAU?$_List_node@PAVGameMessage@@PAX@2@PAU32@0@Z 0043d840 f i GameMessageManager.obj
 0002:000139d0       ?_Clrcont@_Iterator_base12@std@@QAEXXZ 0043d9d0 f i GameMessageManager.obj
 0002:00013a10       ?_Free_proxy@?$_List_alloc@U?$_List_base_types@PAVGameMessage@@V?$allocator@PAVGameMessage@@@std@@@std@@@std@@QAEXXZ 0043da10 f i GameMessageManager.obj
 0002:00013b00       ?_Freeheadnode@?$_List_alloc@U?$_List_base_types@PAVGameMessage@@V?$allocator@PAVGameMessage@@@std@@@std@@@std@@QAEXPAU?$_List_node@PAVGameMessage@@PAX@2@@Z 0043db00 f i GameMessageManager.obj
 0002:00013bc0       ?_Freenode@?$_List_buy@PAVGameMessage@@V?$allocator@PAVGameMessage@@@std@@@std@@QAEXPAU?$_List_node@PAVGameMessage@@PAX@2@@Z 0043dbc0 f i GameMessageManager.obj
 0002:00013cb0       ?_Get_data@?$_List_alloc@U?$_List_base_types@PAVGameMessage@@V?$allocator@PAVGameMessage@@@std@@@std@@@std@@QAEAAV?$_List_val@U?$_List_simple_types@PAVGameMessage@@@std@@@2@XZ 0043dcb0 f i GameMessageManager.obj
 0002:00013d00       ?_Get_data@?$_List_alloc@U?$_List_base_types@PAVGameMessage@@V?$allocator@PAVGameMessage@@@std@@@std@@@std@@QBEABV?$_List_val@U?$_List_simple_types@PAVGameMessage@@@std@@@2@XZ 0043dd00 f i GameMessageManager.obj
 0002:00013d50       ?_Get_first@?$_Compressed_pair@U?$_Wrap_alloc@V?$allocator@U?$_List_node@PAVGameMessage@@PAX@std@@@std@@@std@@V?$_List_val@U?$_List_simple_types@PAVGameMessage@@@std@@@2@$00@std@@QAEAAU?$_Wrap_alloc@V?$allocator@U?$_List_node@PAVGameMessage@@PAX@std@@@std@@@2@XZ 0043dd50 f i GameMessageManager.obj
 0002:00013d90       ?_Get_first@?$_Compressed_pair@U?$_Wrap_alloc@V?$allocator@U?$_List_node@PAVGameMessage@@PAX@std@@@std@@@std@@V?$_List_val@U?$_List_simple_types@PAVGameMessage@@@std@@@2@$00@std@@QBEABU?$_Wrap_alloc@V?$allocator@U?$_List_node@PAVGameMessage@@PAX@std@@@std@@@2@XZ 0043dd90 f i GameMessageManager.obj
 0002:00013dd0       ?_Get_second@?$_Compressed_pair@U?$_Wrap_alloc@V?$allocator@U?$_List_node@PAVGameMessage@@PAX@std@@@std@@@std@@V?$_List_val@U?$_List_simple_types@PAVGameMessage@@@std@@@2@$00@std@@QAEAAV?$_List_val@U?$_List_simple_types@PAVGameMessage@@@std@@@2@XZ 0043ddd0 f i GameMessageManager.obj
 0002:00013e10       ?_Get_second@?$_Compressed_pair@U?$_Wrap_alloc@V?$allocator@U?$_List_node@PAVGameMessage@@PAX@std@@@std@@@std@@V?$_List_val@U?$_List_simple_types@PAVGameMessage@@@std@@@2@$00@std@@QBEABV?$_List_val@U?$_List_simple_types@PAVGameMessage@@@std@@@2@XZ 0043de10 f i GameMessageManager.obj
 0002:00013e50       ?_Getal@?$_List_alloc@U?$_List_base_types@PAVGameMessage@@V?$allocator@PAVGameMessage@@@std@@@std@@@std@@QAEAAU?$_Wrap_alloc@V?$allocator@U?$_List_node@PAVGameMessage@@PAX@std@@@std@@@2@XZ 0043de50 f i GameMessageManager.obj
 0002:00013ea0       ?_Getal@?$_List_alloc@U?$_List_base_types@PAVGameMessage@@V?$allocator@PAVGameMessage@@@std@@@std@@@std@@QBEABU?$_Wrap_alloc@V?$allocator@U?$_List_node@PAVGameMessage@@PAX@std@@@std@@@2@XZ 0043dea0 f i GameMessageManager.obj
 0002:00013ef0       ?_Getpfirst@?$_List_alloc@U?$_List_base_types@PAVGameMessage@@V?$allocator@PAVGameMessage@@@std@@@std@@@std@@QBEPAPAU_Iterator_base12@2@XZ 0043def0 f i GameMessageManager.obj
 0002:00013f50       ?_Getpfirst@_Container_base12@std@@QBEPAPAU_Iterator_base12@2@XZ 0043df50 f i GameMessageManager.obj
 0002:00013fc0       ?_Getpnext@_Iterator_base12@std@@QAEPAPAU12@XZ 0043dfc0 f i GameMessageManager.obj
 0002:00014000       ?_Incsize@?$list@PAVGameMessage@@V?$allocator@PAVGameMessage@@@std@@@std@@QAEXI@Z 0043e000 f i GameMessageManager.obj
 0002:000140b0       ?_Make_iter@?$list@PAVGameMessage@@V?$allocator@PAVGameMessage@@@std@@@std@@QBE?AV?$_List_iterator@V?$_List_val@U?$_List_simple_types@PAVGameMessage@@@std@@@std@@@2@V?$_List_const_iterator@V?$_List_val@U?$_List_simple_types@PAVGameMessage@@@std@@@std@@@2@@Z 0043e0b0 f i GameMessageManager.obj
 0002:00014160       ?_Myhead@?$_List_alloc@U?$_List_base_types@PAVGameMessage@@V?$allocator@PAVGameMessage@@@std@@@std@@@std@@QAEAAPAU?$_List_node@PAVGameMessage@@PAX@2@XZ 0043e160 f i GameMessageManager.obj
 0002:000141c0       ?_Mynode@?$_List_unchecked_const_iterator@V?$_List_val@U?$_List_simple_types@PAVGameMessage@@@std@@@std@@U_Iterator_base0@2@@std@@QBEPAU?$_List_node@PAVGameMessage@@PAX@2@XZ 0043e1c0 f i GameMessageManager.obj
 0002:00014200       ?_Mynode@?$_List_unchecked_const_iterator@V?$_List_val@U?$_List_simple_types@PAVGameMessage@@@std@@@std@@U_Iterator_base12@2@@std@@QBEPAU?$_List_node@PAVGameMessage@@PAX@2@XZ 0043e200 f i GameMessageManager.obj
 0002:00014240       ?_Myproxy@?$_List_alloc@U?$_List_base_types@PAVGameMessage@@V?$allocator@PAVGameMessage@@@std@@@std@@@std@@QAEAAPAU_Container_proxy@2@XZ 0043e240 f i GameMessageManager.obj
 0002:00014290       ?_Mysize@?$_List_alloc@U?$_List_base_types@PAVGameMessage@@V?$allocator@PAVGameMessage@@@std@@@std@@@std@@QAEAAIXZ 0043e290 f i GameMessageManager.obj
 0002:000142f0       ?_Myval@?$_List_alloc@U?$_List_base_types@PAVGameMessage@@V?$allocator@PAVGameMessage@@@std@@@std@@@std@@SAAAPAVGameMessage@@PAU?$_List_node@PAVGameMessage@@PAX@2@@Z 0043e2f0 f i GameMessageManager.obj
 0002:00014340       ?_Myval@?$_List_val@U?$_List_simple_types@PAVGameMessage@@@std@@@std@@SAAAPAVGameMessage@@PAU?$_List_node@PAVGameMessage@@PAX@2@@Z 0043e340 f i GameMessageManager.obj
 0002:00014380       ?_Nextnode@?$_List_alloc@U?$_List_base_types@PAVGameMessage@@V?$allocator@PAVGameMessage@@@std@@@std@@@std@@SAAAPAU?$_List_node@PAVGameMessage@@PAX@2@PAU32@@Z 0043e380 f i GameMessageManager.obj
 0002:000143d0       ?_Nextnode@?$_List_val@U?$_List_simple_types@PAVGameMessage@@@std@@@std@@SAAAPAU?$_List_node@PAVGameMessage@@PAX@2@PAU32@@Z 0043e3d0 f i GameMessageManager.obj
 0002:00014410       ?_Orphan_all@?$_List_alloc@U?$_List_base_types@PAVGameMessage@@V?$allocator@PAVGameMessage@@@std@@@std@@@std@@QAEXXZ 0043e410 f i GameMessageManager.obj
 0002:00014470       ?_Orphan_ptr@?$list@PAVGameMessage@@V?$allocator@PAVGameMessage@@@std@@@std@@QAEXPAU?$_List_node@PAVGameMessage@@PAX@2@@Z 0043e470 f i GameMessageManager.obj
 0002:000145f0       ?_Prevnode@?$_List_alloc@U?$_List_base_types@PAVGameMessage@@V?$allocator@PAVGameMessage@@@std@@@std@@@std@@SAAAPAU?$_List_node@PAVGameMessage@@PAX@2@PAU32@@Z 0043e5f0 f i GameMessageManager.obj
 0002:00014640       ?_Prevnode@?$_List_val@U?$_List_simple_types@PAVGameMessage@@@std@@@std@@SAAAPAU?$_List_node@PAVGameMessage@@PAX@2@PAU32@@Z 0043e640 f i GameMessageManager.obj
 0002:00014680       ?_Tidy@?$list@PAVGameMessage@@V?$allocator@PAVGameMessage@@@std@@@std@@QAEXXZ 0043e680 f i GameMessageManager.obj
 0002:000146d0       ?_Unchecked_end@?$list@PAVGameMessage@@V?$allocator@PAVGameMessage@@@std@@@std@@QAE?AV?$_List_unchecked_iterator@V?$_List_val@U?$_List_simple_types@PAVGameMessage@@@std@@@std@@@2@XZ 0043e6d0 f i GameMessageManager.obj
 0002:00014740       ?_Unlinknode@?$list@PAVGameMessage@@V?$allocator@PAVGameMessage@@@std@@@std@@QAEPAU?$_List_node@PAVGameMessage@@PAX@2@V?$_List_const_iterator@V?$_List_val@U?$_List_simple_types@PAVGameMessage@@@std@@@std@@@2@@Z 0043e740 f i GameMessageManager.obj
 0002:000148f0       ?addMessage@GameMessageManager@@QAEXPAVGameMessage@@H@Z 0043e8f0 f   GameMessageManager.obj
 0002:00014980       ?allocate@?$_Wrap_alloc@V?$allocator@U?$_List_node@PAVGameMessage@@PAX@std@@@std@@@std@@QAEPAU?$_List_node@PAVGameMessage@@PAX@2@I@Z 0043e980 f i GameMessageManager.obj
 0002:000149e0       ?allocate@?$allocator@U?$_List_node@PAVGameMessage@@PAX@std@@@std@@QAEPAU?$_List_node@PAVGameMessage@@PAX@2@I@Z 0043e9e0 f i GameMessageManager.obj
 0002:00014a40       ?begin@?$list@PAVGameMessage@@V?$allocator@PAVGameMessage@@@std@@@std@@QAE?AV?$_List_iterator@V?$_List_val@U?$_List_simple_types@PAVGameMessage@@@std@@@std@@@2@XZ 0043ea40 f i GameMessageManager.obj
 0002:00014af0       ?clear@?$list@PAVGameMessage@@V?$allocator@PAVGameMessage@@@std@@@std@@QAEXXZ 0043eaf0 f i GameMessageManager.obj
 0002:00014c40       ?deallocate@?$_Wrap_alloc@V?$allocator@U?$_List_node@PAVGameMessage@@PAX@std@@@std@@@std@@QAEXPAU?$_List_node@PAVGameMessage@@PAX@2@I@Z 0043ec40 f i GameMessageManager.obj
 0002:00014ca0       ?deallocate@?$allocator@U?$_List_node@PAVGameMessage@@PAX@std@@@std@@QAEXPAU?$_List_node@PAVGameMessage@@PAX@2@I@Z 0043eca0 f i GameMessageManager.obj
 0002:00014d00       ?end@?$list@PAVGameMessage@@V?$allocator@PAVGameMessage@@@std@@@std@@QAE?AV?$_List_iterator@V?$_List_val@U?$_List_simple_types@PAVGameMessage@@@std@@@std@@@2@XZ 0043ed00 f i GameMessageManager.obj
 0002:00014db0       ?erase@?$list@PAVGameMessage@@V?$allocator@PAVGameMessage@@@std@@@std@@QAE?AV?$_List_iterator@V?$_List_val@U?$_List_simple_types@PAVGameMessage@@@std@@@std@@@2@V?$_List_const_iterator@V?$_List_val@U?$_List_simple_types@PAVGameMessage@@@std@@@std@@@2@@Z 0043edb0 f i GameMessageManager.obj
 0002:00014ef0       ?getCurrentTime@Game@@QBENXZ 0043eef0 f i GameMessageManager.obj
 0002:00014f50       ?getScheduledTime@GameMessage@@QBENXZ 0043ef50 f i GameMessageManager.obj
 0002:00014f90       ?max_size@?$_Wrap_alloc@V?$allocator@U?$_List_node@PAVGameMessage@@PAX@std@@@std@@@std@@QBEIU_Nil@2@@Z 0043ef90 f i GameMessageManager.obj
 0002:00014ff0       ?max_size@?$allocator@U?$_List_node@PAVGameMessage@@PAX@std@@@std@@QBEIXZ 0043eff0 f i GameMessageManager.obj
 0002:00015030       ?max_size@?$allocator_traits@V?$allocator@U?$_List_node@PAVGameMessage@@PAX@std@@@std@@@std@@SAIABV?$allocator@U?$_List_node@PAVGameMessage@@PAX@std@@@2@@Z 0043f030 f i GameMessageManager.obj
 0002:00015080       ?max_size@?$list@PAVGameMessage@@V?$allocator@PAVGameMessage@@@std@@@std@@QBEIXZ 0043f080 f i GameMessageManager.obj
 0002:000150f0       ?processMessagesForThisframe@GameMessageManager@@QAEXXZ 0043f0f0 f   GameMessageManager.obj
 0002:00015390       ?push_back@?$list@PAVGameMessage@@V?$allocator@PAVGameMessage@@@std@@@std@@QAEXABQAVGameMessage@@@Z 0043f390 f i GameMessageManager.obj
 0002:00015410       ??$?HDU?$char_traits@D@std@@V?$allocator@D@1@@std@@YA?AV?$basic_string@DU?$char_traits@D@std@@V?$allocator@D@2@@0@PBD$$QAV10@@Z 0043f410 f i HelpMenu.obj
 0002:000154a0       ??0HelpMenu@@QAE@XZ        0043f4a0 f   HelpMenu.obj
 0002:000154e0       ??1HelpMenu@@QAE@XZ        0043f4e0 f   HelpMenu.obj
 0002:00015520       ??Y?$basic_string@DU?$char_traits@D@std@@V?$allocator@D@2@@std@@QAEAAV01@PBD@Z 0043f520 f i HelpMenu.obj
 0002:00015580       ?append@?$basic_string@DU?$char_traits@D@std@@V?$allocator@D@2@@std@@QAEAAV12@PBD@Z 0043f580 f i HelpMenu.obj
 0002:00015610       ?append@?$basic_string@DU?$char_traits@D@std@@V?$allocator@D@2@@std@@QAEAAV12@PBDI@Z 0043f610 f i HelpMenu.obj
 0002:00015780       ?draw@HelpMenu@@QAEXXZ     0043f780 f   HelpMenu.obj
 0002:00016410       ?getEditGridValue@Editor@@QBEHXZ 00440410 f i HelpMenu.obj
 0002:00016450       ?getFont@Game@@QBEPAUALLEGRO_FONT@@XZ 00440450 f i HelpMenu.obj
 0002:00016490       ?getShowHelp@Editor@@QBE_NXZ 00440490 f i HelpMenu.obj
 0002:000164d0       ?insert@?$basic_string@DU?$char_traits@D@std@@V?$allocator@D@2@@std@@QAEAAV12@IPBD@Z 004404d0 f i HelpMenu.obj
 0002:00016560       ?insert@?$basic_string@DU?$char_traits@D@std@@V?$allocator@D@2@@std@@QAEAAV12@IPBDI@Z 00440560 f i HelpMenu.obj
 0002:00016710       ??$__vcrt_va_start_verify_argument_type@QBD@@YAXXZ 00440710 f i InputManager.obj
 0002:00016740       ?cleanUp@InputManager@@AAEXXZ 00440740 f   InputManager.obj
 0002:00016800       ?getCurrentMapID@Editor@@QBEHXZ 00440800 f i InputManager.obj
 0002:00016840       ?getKeyboardInput@InputManager@@AAEXXZ 00440840 f   InputManager.obj
 0002:00017280       ?getMessageManager@Editor@@QAEPAVGameMessageManager@@XZ 00441280 f i InputManager.obj
 0002:000172c0       ?getMouseInput@InputManager@@AAEXXZ 004412c0 f   InputManager.obj
 0002:00017550       ?init@InputManager@@QAE_NXZ 00441550 f   InputManager.obj
 0002:00017650       ?update@InputManager@@QAEXXZ 00441650 f   InputManager.obj
 0002:000176b0       ___local_stdio_printf_options 004416b0 f i InputManager.obj
 0002:000176f0       __vfprintf_l               004416f0 f i InputManager.obj
 0002:00017770       _printf                    00441770 f i InputManager.obj
 0002:00017800       ??0LoadMessage@@QAE@XZ     00441800 f   LoadMessage.obj
 0002:00017860       ??1LoadMessage@@QAE@XZ     00441860 f   LoadMessage.obj
 0002:000178c0       ?process@LoadMessage@@UAEXXZ 004418c0 f   LoadMessage.obj
 0002:00017ce0       _main                      00441ce0 f   main.obj
 0002:00017f90       ??0?$basic_ofstream@DU?$char_traits@D@std@@@std@@QAE@ABV?$basic_string@DU?$char_traits@D@std@@V?$allocator@D@2@@1@HH@Z 00441f90 f i SaveMessage.obj
 0002:00018140       ??0SaveMessage@@QAE@XZ     00442140 f   SaveMessage.obj
 0002:000181a0       ??1?$basic_ofstream@DU?$char_traits@D@std@@@std@@UAE@XZ 004421a0 f i SaveMessage.obj
 0002:00018250       ??1SaveMessage@@QAE@XZ     00442250 f   SaveMessage.obj
 0002:000182b0       ??_D?$basic_ofstream@DU?$char_traits@D@std@@@std@@QAEXXZ 004422b0 f i SaveMessage.obj
 0002:0001831c       ??_E?$basic_ofstream@DU?$char_traits@D@std@@@std@@$4PPPPPPPM@A@AEPAXI@Z 0044231c f i SaveMessage.obj
 0002:00018330       ??_E?$basic_ofstream@DU?$char_traits@D@std@@@std@@UAEPAXI@Z 00442330 f i SaveMessage.obj
 0002:00018330       ??_G?$basic_ofstream@DU?$char_traits@D@std@@@std@@UAEPAXI@Z 00442330 f i SaveMessage.obj
 0002:000183b0       ?close@?$basic_ofstream@DU?$char_traits@D@std@@@std@@QAEXXZ 004423b0 f i SaveMessage.obj
 0002:00018430       ?process@SaveMessage@@UAEXXZ 00442430 f   SaveMessage.obj
 0002:00018830       ??0ToggleHelpMessage@@QAE@XZ 00442830 f   ToggleHelpMessage.obj
 0002:00018890       ??1ToggleHelpMessage@@QAE@XZ 00442890 f   ToggleHelpMessage.obj
 0002:000188f0       ?process@ToggleHelpMessage@@UAEXXZ 004428f0 f   ToggleHelpMessage.obj
 0002:000189d0       ?setShowHelp@Editor@@QAEX_N@Z 004429d0 f i ToggleHelpMessage.obj
 0002:00018a20       ??0Game@@QAE@XZ            00442a20 f   CommonPathfindingLib:Game.obj
 0002:00018ad0       ??1Game@@UAE@XZ            00442ad0 f   CommonPathfindingLib:Game.obj
 0002:00018b60       ??_EGame@@UAEPAXI@Z        00442b60 f i CommonPathfindingLib:Game.obj
 0002:00018b60       ??_GGame@@UAEPAXI@Z        00442b60 f i CommonPathfindingLib:Game.obj
 0002:00018bf0       ??_GGraphicsBufferManager@@QAEPAXI@Z 00442bf0 f i CommonPathfindingLib:Game.obj
 0002:00018c80       ??_GGraphicsSystem@@QAEPAXI@Z 00442c80 f i CommonPathfindingLib:Game.obj
 0002:00018d10       ??_GSpriteManager@@QAEPAXI@Z 00442d10 f i CommonPathfindingLib:Game.obj
 0002:00018da0       ??_GTimer@@QAEPAXI@Z       00442da0 f i CommonPathfindingLib:Game.obj
 0002:00018e30       ?beginLoop@Game@@UAEXXZ    00442e30 f   CommonPathfindingLib:Game.obj
 0002:00018ee0       ?cleanup@Game@@UAEXXZ      00442ee0 f   CommonPathfindingLib:Game.obj
 0002:00019180       ?endLoop@Game@@UAE_NXZ     00443180 f   CommonPathfindingLib:Game.obj
 0002:000191f0       ?genRandomBinomial@@YAMXZ  004431f0 f   CommonPathfindingLib:Game.obj
 0002:00019290       ?genRandomFloat@@YAMXZ     00443290 f   CommonPathfindingLib:Game.obj
 0002:00019300       ?init@Game@@UAE_NXZ        00443300 f   CommonPathfindingLib:Game.obj
 0002:000198b0       ?lerp@@YAMHHH@Z            004438b0 f   CommonPathfindingLib:Game.obj
 0002:00019970       ?mapRotationToRange@@YAMMMM@Z 00443970 f   CommonPathfindingLib:Game.obj
 0002:00019a20       ?processLoop@Game@@UAEXXZ  00443a20 f   CommonPathfindingLib:Game.obj
 0002:00019a80       _fprintf                   00443a80 f i CommonPathfindingLib:Game.obj
 0002:00019b60       ??$?0$$V@?$_Compressed_pair@U?$_Wrap_alloc@V?$allocator@H@std@@@std@@V?$_Vector_val@U?$_Simple_types@H@std@@@2@$00@std@@QAE@U_Zero_then_variadic_args_t@1@@Z 00443b60 f i CommonPathfindingLib:Grid.obj
 0002:00019bc0       ??$?0AAU?$_Wrap_alloc@V?$allocator@H@std@@@std@@@?$_Wrap_alloc@V?$allocator@U_Container_proxy@std@@@std@@@std@@QAE@AAU?$_Wrap_alloc@V?$allocator@H@std@@@1@@Z 00443bc0 f i CommonPathfindingLib:Grid.obj
 0002:00019c30       ??$?0H@?$allocator@U_Container_proxy@std@@@std@@QAE@ABV?$allocator@H@1@@Z 00443c30 f i CommonPathfindingLib:Grid.obj
 0002:00019c70       ??$?0U?$_Wrap_alloc@V?$allocator@H@std@@@std@@$$V@?$_Compressed_pair@U?$_Wrap_alloc@V?$allocator@H@std@@@std@@V?$_Vector_val@U?$_Simple_types@H@std@@@2@$00@std@@QAE@U_One_then_variadic_args_t@1@$$QAU?$_Wrap_alloc@V?$allocator@H@std@@@1@@Z 00443c70 f i CommonPathfindingLib:Grid.obj
 0002:00019ce0       ??$?0U?$_Wrap_alloc@V?$allocator@H@std@@@std@@X@?$_Vector_alloc@U?$_Vec_base_types@HV?$allocator@H@std@@@std@@@std@@QAE@$$QAU?$_Wrap_alloc@V?$allocator@H@std@@@1@@Z 00443ce0 f i CommonPathfindingLib:Grid.obj
 0002:00019da0       ??$_Copy_memmove@PAHPAH@std@@YAPAHPAH00@Z 00443da0 f i CommonPathfindingLib:Grid.obj
 0002:00019e30       ??$_Destroy_range1@V?$allocator@H@std@@PAH@std@@YAXPAH0AAU?$_Wrap_alloc@V?$allocator@H@std@@@0@U?$integral_constant@_N$00@0@@Z 00443e30 f i CommonPathfindingLib:Grid.obj
 0002:00019e60       ??$_Destroy_range@V?$allocator@H@std@@PAH@std@@YAXPAH0AAU?$_Wrap_alloc@V?$allocator@H@std@@@0@@Z 00443e60 f i CommonPathfindingLib:Grid.obj
 0002:00019ed0       ??$_Ptr_move_cat@HH@std@@YA?AU_Really_trivial_ptr_iterator_tag@0@ABQAH0@Z 00443ed0 f i CommonPathfindingLib:Grid.obj
 0002:00019f10       ??$_Rechecked@PAHPAH@std@@YAAAPAHAAPAHPAH@Z 00443f10 f i CommonPathfindingLib:Grid.obj
 0002:00019f50       ??$_Umove@PAH@?$vector@HV?$allocator@H@std@@@std@@IAEPAHPAH00@Z 00443f50 f i CommonPathfindingLib:Grid.obj
 0002:00019fc0       ??$_Unchecked@PAH@std@@YAPAHPAH@Z 00443fc0 f i CommonPathfindingLib:Grid.obj
 0002:0001a000       ??$_Unfancy@H@std@@YAPAHPAH@Z 00444000 f i CommonPathfindingLib:Grid.obj
 0002:0001a040       ??$_Uninitialized_move@PAHPAHV?$allocator@H@std@@@std@@YAPAHPAH00AAU?$_Wrap_alloc@V?$allocator@H@std@@@0@@Z 00444040 f i CommonPathfindingLib:Grid.obj
 0002:0001a0e0       ??$_Uninitialized_move_al_unchecked1@HHV?$allocator@H@std@@@std@@YAPAHPAH00AAU?$_Wrap_alloc@V?$allocator@H@std@@@0@U_Really_trivial_ptr_iterator_tag@0@U?$integral_constant@_N$00@0@@Z 004440e0 f i CommonPathfindingLib:Grid.obj
 0002:0001a140       ??$_Uninitialized_move_al_unchecked@PAHPAHV?$allocator@H@std@@@std@@YAPAHPAH00AAU?$_Wrap_alloc@V?$allocator@H@std@@@0@@Z 00444140 f i CommonPathfindingLib:Grid.obj
 0002:0001a1d0       ??$addressof@$$CBH@std@@YAPBHABH@Z 004441d0 f i CommonPathfindingLib:Grid.obj
 0002:0001a210       ??$construct@HAAH@?$_Wrap_alloc@V?$allocator@H@std@@@std@@QAEXPAHAAH@Z 00444210 f i CommonPathfindingLib:Grid.obj
 0002:0001a280       ??$construct@HAAH@?$allocator@H@std@@QAEXPAHAAH@Z 00444280 f i CommonPathfindingLib:Grid.obj
 0002:0001a330       ??$construct@HAAH@?$allocator_traits@V?$allocator@H@std@@@std@@SAXAAV?$allocator@H@1@PAHAAH@Z 00444330 f i CommonPathfindingLib:Grid.obj
 0002:0001a390       ??$construct@HABH@?$_Wrap_alloc@V?$allocator@H@std@@@std@@QAEXPAHABH@Z 00444390 f i CommonPathfindingLib:Grid.obj
 0002:0001a400       ??$construct@HABH@?$allocator@H@std@@QAEXPAHABH@Z 00444400 f i CommonPathfindingLib:Grid.obj
 0002:0001a4b0       ??$construct@HABH@?$allocator_traits@V?$allocator@H@std@@@std@@SAXAAV?$allocator@H@1@PAHABH@Z 004444b0 f i CommonPathfindingLib:Grid.obj
 0002:0001a510       ??$forward@AAH@std@@YAAAHAAH@Z 00444510 f i CommonPathfindingLib:Grid.obj
 0002:0001a550       ??$forward@AAU?$_Wrap_alloc@V?$allocator@H@std@@@std@@@std@@YAAAU?$_Wrap_alloc@V?$allocator@H@std@@@0@AAU10@@Z 00444550 f i CommonPathfindingLib:Grid.obj
 0002:0001a590       ??$forward@ABH@std@@YAABHABH@Z 00444590 f i CommonPathfindingLib:Grid.obj
 0002:0001a5d0       ??$forward@U?$_Wrap_alloc@V?$allocator@H@std@@@std@@@std@@YA$$QAU?$_Wrap_alloc@V?$allocator@H@std@@@0@AAU10@@Z 004445d0 f i CommonPathfindingLib:Grid.obj
 0002:0001a610       ??$forward@V?$vector@HV?$allocator@H@std@@@std@@@std@@YA$$QAV?$vector@HV?$allocator@H@std@@@0@AAV10@@Z 00444610 f i CommonPathfindingLib:Grid.obj
 0002:0001a650       ??$move@AAU?$_Wrap_alloc@V?$allocator@H@std@@@std@@@std@@YA$$QAU?$_Wrap_alloc@V?$allocator@H@std@@@0@AAU10@@Z 00444650 f i CommonPathfindingLib:Grid.obj
 0002:0001a690       ??0?$_Vector_alloc@U?$_Vec_base_types@HV?$allocator@H@std@@@std@@@std@@QAE@XZ 00444690 f i CommonPathfindingLib:Grid.obj
 0002:0001a740       ??0?$_Vector_val@U?$_Simple_types@H@std@@@std@@QAE@XZ 00444740 f i CommonPathfindingLib:Grid.obj
 0002:0001a7c0       ??0?$_Wrap_alloc@V?$allocator@H@std@@@std@@QAE@$$QAU01@@Z 004447c0 f i CommonPathfindingLib:Grid.obj
 0002:0001a830       ??0?$_Wrap_alloc@V?$allocator@H@std@@@std@@QAE@XZ 00444830 f i CommonPathfindingLib:Grid.obj
 0002:0001a890       ??0?$allocator@H@std@@QAE@ABV01@@Z 00444890 f i CommonPathfindingLib:Grid.obj
 0002:0001a8d0       ??0?$allocator@H@std@@QAE@XZ 004448d0 f i CommonPathfindingLib:Grid.obj
 0002:0001a910       ??0?$vector@HV?$allocator@H@std@@@std@@QAE@$$QAV01@@Z 00444910 f i CommonPathfindingLib:Grid.obj
 0002:0001a9e0       ??0?$vector@HV?$allocator@H@std@@@std@@QAE@XZ 004449e0 f i CommonPathfindingLib:Grid.obj
 0002:0001aa70       ??0Grid@@QAE@HHH@Z         00444a70 f   CommonPathfindingLib:Grid.obj
 0002:0001ab70       ??1?$_Compressed_pair@U?$_Wrap_alloc@V?$allocator@H@std@@@std@@V?$_Vector_val@U?$_Simple_types@H@std@@@2@$00@std@@QAE@XZ 00444b70 f i CommonPathfindingLib:Grid.obj
 0002:0001abc0       ??1?$_Vector_alloc@U?$_Vec_base_types@HV?$allocator@H@std@@@std@@@std@@QAE@XZ 00444bc0 f i CommonPathfindingLib:Grid.obj
 0002:0001ac50       ??1?$_Vector_val@U?$_Simple_types@H@std@@@std@@QAE@XZ 00444c50 f i CommonPathfindingLib:Grid.obj
 0002:0001aca0       ??1?$vector@HV?$allocator@H@std@@@std@@QAE@XZ 00444ca0 f i CommonPathfindingLib:Grid.obj
 0002:0001ad30       ??1Grid@@QAE@XZ            00444d30 f   CommonPathfindingLib:Grid.obj
 0002:0001ada0       ?_Alloc_proxy@?$_Vector_alloc@U?$_Vec_base_types@HV?$allocator@H@std@@@std@@@std@@QAEXXZ 00444da0 f i CommonPathfindingLib:Grid.obj
 0002:0001aea0       ?_Assign_rv@?$vector@HV?$allocator@H@std@@@std@@QAEX$$QAV12@U?$integral_constant@_N$00@2@@Z 00444ea0 f i CommonPathfindingLib:Grid.obj
 0002:0001af80       ?_Destroy@?$vector@HV?$allocator@H@std@@@std@@IAEXPAH0@Z 00444f80 f i CommonPathfindingLib:Grid.obj
 0002:0001aff0       ?_Free_proxy@?$_Vector_alloc@U?$_Vec_base_types@HV?$allocator@H@std@@@std@@@std@@QAEXXZ 00444ff0 f i CommonPathfindingLib:Grid.obj
 0002:0001b0e0       ?_Get_data@?$_Vector_alloc@U?$_Vec_base_types@HV?$allocator@H@std@@@std@@@std@@QAEAAV?$_Vector_val@U?$_Simple_types@H@std@@@2@XZ 004450e0 f i CommonPathfindingLib:Grid.obj
 0002:0001b130       ?_Get_data@?$_Vector_alloc@U?$_Vec_base_types@HV?$allocator@H@std@@@std@@@std@@QBEABV?$_Vector_val@U?$_Simple_types@H@std@@@2@XZ 00445130 f i CommonPathfindingLib:Grid.obj
 0002:0001b180       ?_Get_first@?$_Compressed_pair@U?$_Wrap_alloc@V?$allocator@H@std@@@std@@V?$_Vector_val@U?$_Simple_types@H@std@@@2@$00@std@@QAEAAU?$_Wrap_alloc@V?$allocator@H@std@@@2@XZ 00445180 f i CommonPathfindingLib:Grid.obj
 0002:0001b1c0       ?_Get_first@?$_Compressed_pair@U?$_Wrap_alloc@V?$allocator@H@std@@@std@@V?$_Vector_val@U?$_Simple_types@H@std@@@2@$00@std@@QBEABU?$_Wrap_alloc@V?$allocator@H@std@@@2@XZ 004451c0 f i CommonPathfindingLib:Grid.obj
 0002:0001b200       ?_Get_second@?$_Compressed_pair@U?$_Wrap_alloc@V?$allocator@H@std@@@std@@V?$_Vector_val@U?$_Simple_types@H@std@@@2@$00@std@@QAEAAV?$_Vector_val@U?$_Simple_types@H@std@@@2@XZ 00445200 f i CommonPathfindingLib:Grid.obj
 0002:0001b240       ?_Get_second@?$_Compressed_pair@U?$_Wrap_alloc@V?$allocator@H@std@@@std@@V?$_Vector_val@U?$_Simple_types@H@std@@@2@$00@std@@QBEABV?$_Vector_val@U?$_Simple_types@H@std@@@2@XZ 00445240 f i CommonPathfindingLib:Grid.obj
 0002:0001b280       ?_Getal@?$_Vector_alloc@U?$_Vec_base_types@HV?$allocator@H@std@@@std@@@std@@QAEAAU?$_Wrap_alloc@V?$allocator@H@std@@@2@XZ 00445280 f i CommonPathfindingLib:Grid.obj
 0002:0001b2d0       ?_Getal@?$_Vector_alloc@U?$_Vec_base_types@HV?$allocator@H@std@@@std@@@std@@QBEABU?$_Wrap_alloc@V?$allocator@H@std@@@2@XZ 004452d0 f i CommonPathfindingLib:Grid.obj
 0002:0001b320       ?_Getpfirst@?$_Vector_alloc@U?$_Vec_base_types@HV?$allocator@H@std@@@std@@@std@@QBEPAPAU_Iterator_base12@2@XZ 00445320 f i CommonPathfindingLib:Grid.obj
 0002:0001b380       ?_Grow_to@?$vector@HV?$allocator@H@std@@@std@@IBEII@Z 00445380 f i CommonPathfindingLib:Grid.obj
 0002:0001b430       ?_Inside@?$vector@HV?$allocator@H@std@@@std@@IBE_NPBH@Z 00445430 f i CommonPathfindingLib:Grid.obj
 0002:0001b4e0       ?_Myend@?$_Vector_alloc@U?$_Vec_base_types@HV?$allocator@H@std@@@std@@@std@@QAEAAPAHXZ 004454e0 f i CommonPathfindingLib:Grid.obj
 0002:0001b540       ?_Myend@?$_Vector_alloc@U?$_Vec_base_types@HV?$allocator@H@std@@@std@@@std@@QBEABQAHXZ 00445540 f i CommonPathfindingLib:Grid.obj
 0002:0001b5a0       ?_Myfirst@?$_Vector_alloc@U?$_Vec_base_types@HV?$allocator@H@std@@@std@@@std@@QAEAAPAHXZ 004455a0 f i CommonPathfindingLib:Grid.obj
 0002:0001b600       ?_Myfirst@?$_Vector_alloc@U?$_Vec_base_types@HV?$allocator@H@std@@@std@@@std@@QBEABQAHXZ 00445600 f i CommonPathfindingLib:Grid.obj
 0002:0001b660       ?_Mylast@?$_Vector_alloc@U?$_Vec_base_types@HV?$allocator@H@std@@@std@@@std@@QAEAAPAHXZ 00445660 f i CommonPathfindingLib:Grid.obj
 0002:0001b6c0       ?_Mylast@?$_Vector_alloc@U?$_Vec_base_types@HV?$allocator@H@std@@@std@@@std@@QBEABQAHXZ 004456c0 f i CommonPathfindingLib:Grid.obj
 0002:0001b720       ?_Myproxy@?$_Vector_alloc@U?$_Vec_base_types@HV?$allocator@H@std@@@std@@@std@@QAEAAPAU_Container_proxy@2@XZ 00445720 f i CommonPathfindingLib:Grid.obj
 0002:0001b770       ?_Orphan_all@?$_Vector_alloc@U?$_Vec_base_types@HV?$allocator@H@std@@@std@@@std@@QAEXXZ 00445770 f i CommonPathfindingLib:Grid.obj
 0002:0001b7d0       ?_Orphan_range@?$vector@HV?$allocator@H@std@@@std@@IBEXPAH0@Z 004457d0 f i CommonPathfindingLib:Grid.obj
 0002:0001b940       ?_Reallocate@?$vector@HV?$allocator@H@std@@@std@@IAEXI@Z 00445940 f i CommonPathfindingLib:Grid.obj
 0002:0001bb30       ?_Reserve@?$vector@HV?$allocator@H@std@@@std@@IAEXI@Z 00445b30 f i CommonPathfindingLib:Grid.obj
 0002:0001bbe0       ?_Swap_all@?$_Vector_alloc@U?$_Vec_base_types@HV?$allocator@H@std@@@std@@@std@@QAEXAAV12@@Z 00445be0 f i CommonPathfindingLib:Grid.obj
 0002:0001bc50       ?_Swap_all@_Container_base12@std@@QAEXAAU12@@Z 00445c50 f i CommonPathfindingLib:Grid.obj
 0002:0001bd50       ?_Tidy@?$vector@HV?$allocator@H@std@@@std@@IAEXXZ 00445d50 f i CommonPathfindingLib:Grid.obj
 0002:0001be50       ?_Unused_capacity@?$vector@HV?$allocator@H@std@@@std@@QBEIXZ 00445e50 f i CommonPathfindingLib:Grid.obj
 0002:0001bec0       ?_Xlen@?$vector@HV?$allocator@H@std@@@std@@IBEXXZ 00445ec0 f i CommonPathfindingLib:Grid.obj
 0002:0001bf20       ?allocate@?$_Wrap_alloc@V?$allocator@H@std@@@std@@QAEPAHI@Z 00445f20 f i CommonPathfindingLib:Grid.obj
 0002:0001bf80       ?allocate@?$allocator@H@std@@QAEPAHI@Z 00445f80 f i CommonPathfindingLib:Grid.obj
 0002:0001bfe0       ?capacity@?$vector@HV?$allocator@H@std@@@std@@QBEIXZ 00445fe0 f i CommonPathfindingLib:Grid.obj
 0002:0001c050       ?deallocate@?$_Wrap_alloc@V?$allocator@H@std@@@std@@QAEXPAHI@Z 00446050 f i CommonPathfindingLib:Grid.obj
 0002:0001c0b0       ?deallocate@?$allocator@H@std@@QAEXPAHI@Z 004460b0 f i CommonPathfindingLib:Grid.obj
 0002:0001c110       ?getAdjacentIndices@Grid@@QBE?AV?$vector@HV?$allocator@H@std@@@std@@H@Z 00446110 f   CommonPathfindingLib:Grid.obj
 0002:0001c2f0       ?getSquareIndexFromPixelXY@Grid@@QBEHHH@Z 004462f0 f   CommonPathfindingLib:Grid.obj
 0002:0001c360       ?getULCornerOfSquare@Grid@@QBE?AVVector2D@@H@Z 00446360 f   CommonPathfindingLib:Grid.obj
 0002:0001c4c0       ?getValueAtIndex@Grid@@QBEHH@Z 004464c0 f   CommonPathfindingLib:Grid.obj
 0002:0001c530       ?getValueAtPixelXY@Grid@@QBEHHH@Z 00446530 f   CommonPathfindingLib:Grid.obj
 0002:0001c5a0       ?load@Grid@@QAEXAAV?$basic_ifstream@DU?$char_traits@D@std@@@std@@@Z 004465a0 f   CommonPathfindingLib:Grid.obj
 0002:0001c650       ?max_size@?$_Wrap_alloc@V?$allocator@H@std@@@std@@QBEIU_Nil@2@@Z 00446650 f i CommonPathfindingLib:Grid.obj
 0002:0001c6b0       ?max_size@?$allocator@H@std@@QBEIXZ 004466b0 f i CommonPathfindingLib:Grid.obj
 0002:0001c6f0       ?max_size@?$allocator_traits@V?$allocator@H@std@@@std@@SAIABV?$allocator@H@2@@Z 004466f0 f i CommonPathfindingLib:Grid.obj
 0002:0001c740       ?max_size@?$vector@HV?$allocator@H@std@@@std@@QBEIXZ 00446740 f i CommonPathfindingLib:Grid.obj
 0002:0001c7b0       ?push_back@?$vector@HV?$allocator@H@std@@@std@@QAEXABH@Z 004467b0 f i CommonPathfindingLib:Grid.obj
 0002:0001c9c0       ?save@Grid@@QAEXAAV?$basic_ofstream@DU?$char_traits@D@std@@@std@@@Z 004469c0 f   CommonPathfindingLib:Grid.obj
 0002:0001ca80       ?setValueAtIndex@Grid@@QAEXHH@Z 00446a80 f   CommonPathfindingLib:Grid.obj
 0002:0001caf0       ?setValueAtPixelXY@Grid@@QAEXHHH@Z 00446af0 f   CommonPathfindingLib:Grid.obj
 0002:0001cb70       ?size@?$vector@HV?$allocator@H@std@@@std@@QBEIXZ 00446b70 f i CommonPathfindingLib:Grid.obj
 0002:0001cbe0       ??$?0$$V@?$_Compressed_pair@U?$_Wrap_alloc@V?$allocator@U?$_Tree_node@U?$pair@$$CBHPAVGraphicsBuffer@@@std@@PAX@std@@@std@@@std@@V?$_Tree_val@U?$_Tree_simple_types@U?$pair@$$CBHPAVGraphicsBuffer@@@std@@@std@@@2@$00@std@@QAE@U_Zero_then_variadic_args_t@1@@Z 00446be0 f i CommonPathfindingLib:GraphicsBufferManager.obj
 0002:0001cc40       ??$?0$$V@?$_Compressed_pair@U?$_Wrap_alloc@V?$allocator@U?$_Tree_node@U?$pair@$$CBV?$basic_string@DU?$char_traits@D@std@@V?$allocator@D@2@@std@@H@std@@PAX@std@@@std@@@std@@V?$_Tree_val@U?$_Tree_simple_types@U?$pair@$$CBV?$basic_string@DU?$char_traits@D@std@@V?$allocator@D@2@@std@@H@std@@@std@@@2@$00@std@@QAE@U_Zero_then_variadic_args_t@1@@Z 00446c40 f i CommonPathfindingLib:GraphicsBufferManager.obj
 0002:0001cca0       ??$?0AAU?$_Wrap_alloc@V?$allocator@U?$_Tree_node@U?$pair@$$CBHPAVGraphicsBuffer@@@std@@PAX@std@@@std@@@std@@@?$_Wrap_alloc@V?$allocator@U_Container_proxy@std@@@std@@@std@@QAE@AAU?$_Wrap_alloc@V?$allocator@U?$_Tree_node@U?$pair@$$CBHPAVGraphicsBuffer@@@std@@PAX@std@@@std@@@1@@Z 00446ca0 f i CommonPathfindingLib:GraphicsBufferManager.obj
 0002:0001cd10       ??$?0AAU?$_Wrap_alloc@V?$allocator@U?$_Tree_node@U?$pair@$$CBV?$basic_string@DU?$char_traits@D@std@@V?$allocator@D@2@@std@@H@std@@PAX@std@@@std@@@std@@@?$_Wrap_alloc@V?$allocator@U_Container_proxy@std@@@std@@@std@@QAE@AAU?$_Wrap_alloc@V?$allocator@U?$_Tree_node@U?$pair@$$CBV?$basic_string@DU?$char_traits@D@std@@V?$allocator@D@2@@std@@H@std@@PAX@std@@@std@@@1@@Z 00446d10 f i CommonPathfindingLib:GraphicsBufferManager.obj
 0002:0001cd80       ??$?0AAV?$_Tree_iterator@V?$_Tree_val@U?$_Tree_simple_types@U?$pair@$$CBHPAVGraphicsBuffer@@@std@@@std@@@std@@@std@@_NX$0A@@?$pair@V?$_Tree_iterator@V?$_Tree_val@U?$_Tree_simple_types@U?$pair@$$CBHPAVGraphicsBuffer@@@std@@@std@@@std@@@std@@_N@std@@QAE@AAV?$_Tree_iterator@V?$_Tree_val@U?$_Tree_simple_types@U?$pair@$$CBHPAVGraphicsBuffer@@@std@@@std@@@std@@@1@$$QA_N@Z 00446d80 f i CommonPathfindingLib:GraphicsBufferManager.obj
 0002:0001ce00       ??$?0AAV?$_Tree_iterator@V?$_Tree_val@U?$_Tree_simple_types@U?$pair@$$CBV?$basic_string@DU?$char_traits@D@std@@V?$allocator@D@2@@std@@H@std@@@std@@@std@@@std@@_NX$0A@@?$pair@V?$_Tree_iterator@V?$_Tree_val@U?$_Tree_simple_types@U?$pair@$$CBV?$basic_string@DU?$char_traits@D@std@@V?$allocator@D@2@@std@@H@std@@@std@@@std@@@std@@_N@std@@QAE@AAV?$_Tree_iterator@V?$_Tree_val@U?$_Tree_simple_types@U?$pair@$$CBV?$basic_string@DU?$char_traits@D@std@@V?$allocator@D@2@@std@@H@std@@@std@@@std@@@1@$$QA_N@Z 00446e00 f i CommonPathfindingLib:GraphicsBufferManager.obj
 0002:0001ce80       ??$?0ABH$$Z$$V@?$pair@$$CBHPAVGraphicsBuffer@@@std@@QAE@Upiecewise_construct_t@1@V?$tuple@ABH@1@V?$tuple@$$V@1@@Z 00446e80 f i CommonPathfindingLib:GraphicsBufferManager.obj
 0002:0001cf00       ??$?0ABH$0A@@?$tuple@ABH@std@@QAE@ABH@Z 00446f00 f i CommonPathfindingLib:GraphicsBufferManager.obj
 0002:0001cf80       ??$?0ABH@?$_Tuple_val@ABH@std@@QAE@ABH@Z 00446f80 f i CommonPathfindingLib:GraphicsBufferManager.obj
 0002:0001cfe0       ??$?0ABU?$less@H@std@@U_Zero_then_variadic_args_t@1@@?$_Compressed_pair@U?$less@H@std@@V?$_Compressed_pair@U?$_Wrap_alloc@V?$allocator@U?$_Tree_node@U?$pair@$$CBHPAVGraphicsBuffer@@@std@@PAX@std@@@std@@@std@@V?$_Tree_val@U?$_Tree_simple_types@U?$pair@$$CBHPAVGraphicsBuffer@@@std@@@std@@@2@$00@2@$00@std@@QAE@U_One_then_variadic_args_t@1@ABU?$less@H@1@$$QAU_Zero_then_variadic_args_t@1@@Z 00446fe0 f i CommonPathfindingLib:GraphicsBufferManager.obj
 0002:0001d060       ??$?0ABU?$less@V?$basic_string@DU?$char_traits@D@std@@V?$allocator@D@2@@std@@@std@@U_Zero_then_variadic_args_t@1@@?$_Compressed_pair@U?$less@V?$basic_string@DU?$char_traits@D@std@@V?$allocator@D@2@@std@@@std@@V?$_Compressed_pair@U?$_Wrap_alloc@V?$allocator@U?$_Tree_node@U?$pair@$$CBV?$basic_string@DU?$char_traits@D@std@@V?$allocator@D@2@@std@@H@std@@PAX@std@@@std@@@std@@V?$_Tree_val@U?$_Tree_simple_types@U?$pair@$$CBV?$basic_string@DU?$char_traits@D@std@@V?$allocator@D@2@@std@@H@std@@@std@@@2@$00@2@$00@std@@QAE@U_One_then_variadic_args_t@1@ABU?$less@V?$basic_string@DU?$char_traits@D@std@@V?$allocator@D@2@@std@@@1@$$QAU_Zero_then_variadic_args_t@1@@Z 00447060 f i CommonPathfindingLib:GraphicsBufferManager.obj
 0002:0001d0e0       ??$?0ABV?$basic_string@DU?$char_traits@D@std@@V?$allocator@D@2@@std@@$$Z$$V@?$pair@$$CBV?$basic_string@DU?$char_traits@D@std@@V?$allocator@D@2@@std@@H@std@@QAE@Upiecewise_construct_t@1@V?$tuple@ABV?$basic_string@DU?$char_traits@D@std@@V?$allocator@D@2@@std@@@1@V?$tuple@$$V@1@@Z 004470e0 f i CommonPathfindingLib:GraphicsBufferManager.obj
 0002:0001d160       ??$?0ABV?$basic_string@DU?$char_traits@D@std@@V?$allocator@D@2@@std@@$0A@@?$tuple@ABV?$basic_string@DU?$char_traits@D@std@@V?$allocator@D@2@@std@@@std@@QAE@ABV?$basic_string@DU?$char_traits@D@std@@V?$allocator@D@2@@1@@Z 00447160 f i CommonPathfindingLib:GraphicsBufferManager.obj
 0002:0001d1e0       ??$?0ABV?$basic_string@DU?$char_traits@D@std@@V?$allocator@D@2@@std@@@?$_Tuple_val@ABV?$basic_string@DU?$char_traits@D@std@@V?$allocator@D@2@@std@@@std@@QAE@ABV?$basic_string@DU?$char_traits@D@std@@V?$allocator@D@2@@1@@Z 004471e0 f i CommonPathfindingLib:GraphicsBufferManager.obj
 0002:0001d240       ??$?0U?$_Tree_node@U?$pair@$$CBHPAVGraphicsBuffer@@@std@@PAX@std@@@?$allocator@U_Container_proxy@std@@@std@@QAE@ABV?$allocator@U?$_Tree_node@U?$pair@$$CBHPAVGraphicsBuffer@@@std@@PAX@std@@@1@@Z 00447240 f i CommonPathfindingLib:GraphicsBufferManager.obj
 0002:0001d280       ??$?0U?$_Tree_node@U?$pair@$$CBV?$basic_string@DU?$char_traits@D@std@@V?$allocator@D@2@@std@@H@std@@PAX@std@@@?$allocator@U_Container_proxy@std@@@std@@QAE@ABV?$allocator@U?$_Tree_node@U?$pair@$$CBV?$basic_string@DU?$char_traits@D@std@@V?$allocator@D@2@@std@@H@std@@PAX@std@@@1@@Z 00447280 f i CommonPathfindingLib:GraphicsBufferManager.obj
 0002:0001d2c0       ??$?0U_Exact_args_t@std@@$0A@@?$tuple@$$V@std@@QAE@U_Exact_args_t@1@@Z 004472c0 f i CommonPathfindingLib:GraphicsBufferManager.obj
 0002:0001d300       ??$?0V?$_Tree_iterator@V?$_Tree_val@U?$_Tree_simple_types@U?$pair@$$CBHPAVGraphicsBuffer@@@std@@@std@@@std@@@std@@_NX$0A@@?$pair@V?$_Tree_iterator@V?$_Tree_val@U?$_Tree_simple_types@U?$pair@$$CBHPAVGraphicsBuffer@@@std@@@std@@@std@@@std@@_N@std@@QAE@$$QAV?$_Tree_iterator@V?$_Tree_val@U?$_Tree_simple_types@U?$pair@$$CBHPAVGraphicsBuffer@@@std@@@std@@@std@@@1@$$QA_N@Z 00447300 f i CommonPathfindingLib:GraphicsBufferManager.obj
 0002:0001d380       ??$?0V?$_Tree_iterator@V?$_Tree_val@U?$_Tree_simple_types@U?$pair@$$CBV?$basic_string@DU?$char_traits@D@std@@V?$allocator@D@2@@std@@H@std@@@std@@@std@@@std@@_NX$0A@@?$pair@V?$_Tree_iterator@V?$_Tree_val@U?$_Tree_simple_types@U?$pair@$$CBV?$basic_string@DU?$char_traits@D@std@@V?$allocator@D@2@@std@@H@std@@@std@@@std@@@std@@_N@std@@QAE@$$QAV?$_Tree_iterator@V?$_Tree_val@U?$_Tree_simple_types@U?$pair@$$CBV?$basic_string@DU?$char_traits@D@std@@V?$allocator@D@2@@std@@H@std@@@std@@@std@@@1@$$QA_N@Z 00447380 f i CommonPathfindingLib:GraphicsBufferManager.obj
 0002:0001d400       ??$?0V?$allocator@D@std@@@?$_Wrap_alloc@V?$allocator@D@std@@@std@@QAE@$$QAV?$allocator@D@1@@Z 00447400 f i CommonPathfindingLib:GraphicsBufferManager.obj
 0002:0001d470       ??$?0V?$tuple@ABH@std@@V?$tuple@$$V@1@$0A@$$Z$S@?$pair@$$CBHPAVGraphicsBuffer@@@std@@QAE@AAV?$tuple@ABH@1@AAV?$tuple@$$V@1@U?$integer_sequence@I$0A@@1@U?$integer_sequence@I$S@1@@Z 00447470 f i CommonPathfindingLib:GraphicsBufferManager.obj
 0002:0001d4f0       ??$?0V?$tuple@ABV?$basic_string@DU?$char_traits@D@std@@V?$allocator@D@2@@std@@@std@@V?$tuple@$$V@1@$0A@$$Z$S@?$pair@$$CBV?$basic_string@DU?$char_traits@D@std@@V?$allocator@D@2@@std@@H@std@@QAE@AAV?$tuple@ABV?$basic_string@DU?$char_traits@D@std@@V?$allocator@D@2@@std@@@1@AAV?$tuple@$$V@1@U?$integer_sequence@I$0A@@1@U?$integer_sequence@I$S@1@@Z 004474f0 f i CommonPathfindingLib:GraphicsBufferManager.obj
 0002:0001d570       ??$?MDU?$char_traits@D@std@@V?$allocator@D@1@@std@@YA_NABV?$basic_string@DU?$char_traits@D@std@@V?$allocator@D@2@@0@0@Z 00447570 f i CommonPathfindingLib:GraphicsBufferManager.obj
 0002:0001d5f0       ??$_Buynode@ABUpiecewise_construct_t@std@@V?$tuple@ABH@2@V?$tuple@$$V@2@@?$_Tree_comp_alloc@V?$_Tmap_traits@HPAVGraphicsBuffer@@U?$less@H@std@@V?$allocator@U?$pair@$$CBHPAVGraphicsBuffer@@@std@@@3@$0A@@std@@@std@@QAEPAU?$_Tree_node@U?$pair@$$CBHPAVGraphicsBuffer@@@std@@PAX@1@ABUpiecewise_construct_t@1@$$QAV?$tuple@ABH@1@$$QAV?$tuple@$$V@1@@Z 004475f0 f i CommonPathfindingLib:GraphicsBufferManager.obj
 0002:0001d760       ??$_Buynode@ABUpiecewise_construct_t@std@@V?$tuple@ABV?$basic_string@DU?$char_traits@D@std@@V?$allocator@D@2@@std@@@2@V?$tuple@$$V@2@@?$_Tree_comp_alloc@V?$_Tmap_traits@V?$basic_string@DU?$char_traits@D@std@@V?$allocator@D@2@@std@@HU?$less@V?$basic_string@DU?$char_traits@D@std@@V?$allocator@D@2@@std@@@2@V?$allocator@U?$pair@$$CBV?$basic_string@DU?$char_traits@D@std@@V?$allocator@D@2@@std@@H@std@@@2@$0A@@std@@@std@@QAEPAU?$_Tree_node@U?$pair@$$CBV?$basic_string@DU?$char_traits@D@std@@V?$allocator@D@2@@std@@H@std@@PAX@1@ABUpiecewise_construct_t@1@$$QAV?$tuple@ABV?$basic_string@DU?$char_traits@D@std@@V?$allocator@D@2@@std@@@1@$$QAV?$tuple@$$V@1@@Z 00447760 f i CommonPathfindingLib:GraphicsBufferManager.obj
 0002:0001d8d0       ??$_Buynode_if_nil@AAU?$pair@$$CBHPAVGraphicsBuffer@@@std@@@?$_Tree@V?$_Tmap_traits@HPAVGraphicsBuffer@@U?$less@H@std@@V?$allocator@U?$pair@$$CBHPAVGraphicsBuffer@@@std@@@3@$0A@@std@@@std@@IAEPAU?$_Tree_node@U?$pair@$$CBHPAVGraphicsBuffer@@@std@@PAX@1@PAU21@AAU?$pair@$$CBHPAVGraphicsBuffer@@@1@@Z 004478d0 f i CommonPathfindingLib:GraphicsBufferManager.obj
 0002:0001d910       ??$_Buynode_if_nil@AAU?$pair@$$CBV?$basic_string@DU?$char_traits@D@std@@V?$allocator@D@2@@std@@H@std@@@?$_Tree@V?$_Tmap_traits@V?$basic_string@DU?$char_traits@D@std@@V?$allocator@D@2@@std@@HU?$less@V?$basic_string@DU?$char_traits@D@std@@V?$allocator@D@2@@std@@@2@V?$allocator@U?$pair@$$CBV?$basic_string@DU?$char_traits@D@std@@V?$allocator@D@2@@std@@H@std@@@2@$0A@@std@@@std@@IAEPAU?$_Tree_node@U?$pair@$$CBV?$basic_string@DU?$char_traits@D@std@@V?$allocator@D@2@@std@@H@std@@PAX@1@PAU21@AAU?$pair@$$CBV?$basic_string@DU?$char_traits@D@std@@V?$allocator@D@2@@std@@H@1@@Z 00447910 f i CommonPathfindingLib:GraphicsBufferManager.obj
 0002:0001d950       ??$_Debug_lt_pred@AAU?$less@H@std@@ABHABH@std@@YA_NAAU?$less@H@0@ABH1PB_WI@Z 00447950 f i CommonPathfindingLib:GraphicsBufferManager.obj
 0002:0001da30       ??$_Debug_lt_pred@AAU?$less@V?$basic_string@DU?$char_traits@D@std@@V?$allocator@D@2@@std@@@std@@ABV?$basic_string@DU?$char_traits@D@std@@V?$allocator@D@2@@2@ABV32@@std@@YA_NAAU?$less@V?$basic_string@DU?$char_traits@D@std@@V?$allocator@D@2@@std@@@0@ABV?$basic_string@DU?$char_traits@D@std@@V?$allocator@D@2@@0@1PB_WI@Z 00447a30 f i CommonPathfindingLib:GraphicsBufferManager.obj
 0002:0001db10       ??$_Debug_lt_pred@ABU?$less@H@std@@ABHABH@std@@YA_NABU?$less@H@0@ABH1PB_WI@Z 00447b10 f i CommonPathfindingLib:GraphicsBufferManager.obj
 0002:0001dbf0       ??$_Debug_lt_pred@ABU?$less@V?$basic_string@DU?$char_traits@D@std@@V?$allocator@D@2@@std@@@std@@ABV?$basic_string@DU?$char_traits@D@std@@V?$allocator@D@2@@2@ABV32@@std@@YA_NABU?$less@V?$basic_string@DU?$char_traits@D@std@@V?$allocator@D@2@@std@@@0@ABV?$basic_string@DU?$char_traits@D@std@@V?$allocator@D@2@@0@1PB_WI@Z 00447bf0 f i CommonPathfindingLib:GraphicsBufferManager.obj
 0002:0001dcd0       ??$_Insert_at@AAU?$pair@$$CBHPAVGraphicsBuffer@@@std@@PAU?$_Tree_node@U?$pair@$$CBHPAVGraphicsBuffer@@@std@@PAX@2@@?$_Tree@V?$_Tmap_traits@HPAVGraphicsBuffer@@U?$less@H@std@@V?$allocator@U?$pair@$$CBHPAVGraphicsBuffer@@@std@@@3@$0A@@std@@@std@@IAE?AV?$_Tree_iterator@V?$_Tree_val@U?$_Tree_simple_types@U?$pair@$$CBHPAVGraphicsBuffer@@@std@@@std@@@std@@@1@_NPAU?$_Tree_node@U?$pair@$$CBHPAVGraphicsBuffer@@@std@@PAX@1@AAU?$pair@$$CBHPAVGraphicsBuffer@@@1@1@Z 00447cd0 f i CommonPathfindingLib:GraphicsBufferManager.obj
 0002:0001e290       ??$_Insert_at@AAU?$pair@$$CBV?$basic_string@DU?$char_traits@D@std@@V?$allocator@D@2@@std@@H@std@@PAU?$_Tree_node@U?$pair@$$CBV?$basic_string@DU?$char_traits@D@std@@V?$allocator@D@2@@std@@H@std@@PAX@2@@?$_Tree@V?$_Tmap_traits@V?$basic_string@DU?$char_traits@D@std@@V?$allocator@D@2@@std@@HU?$less@V?$basic_string@DU?$char_traits@D@std@@V?$allocator@D@2@@std@@@2@V?$allocator@U?$pair@$$CBV?$basic_string@DU?$char_traits@D@std@@V?$allocator@D@2@@std@@H@std@@@2@$0A@@std@@@std@@IAE?AV?$_Tree_iterator@V?$_Tree_val@U?$_Tree_simple_types@U?$pair@$$CBV?$basic_string@DU?$char_traits@D@std@@V?$allocator@D@2@@std@@H@std@@@std@@@std@@@1@_NPAU?$_Tree_node@U?$pair@$$CBV?$basic_string@DU?$char_traits@D@std@@V?$allocator@D@2@@std@@H@std@@PAX@1@AAU?$pair@$$CBV?$basic_string@DU?$char_traits@D@std@@V?$allocator@D@2@@std@@H@1@1@Z 00448290 f i CommonPathfindingLib:GraphicsBufferManager.obj
 0002:0001e850       ??$_Insert_hint@AAU?$pair@$$CBHPAVGraphicsBuffer@@@std@@PAU?$_Tree_node@U?$pair@$$CBHPAVGraphicsBuffer@@@std@@PAX@2@@?$_Tree@V?$_Tmap_traits@HPAVGraphicsBuffer@@U?$less@H@std@@V?$allocator@U?$pair@$$CBHPAVGraphicsBuffer@@@std@@@3@$0A@@std@@@std@@IAE?AV?$_Tree_iterator@V?$_Tree_val@U?$_Tree_simple_types@U?$pair@$$CBHPAVGraphicsBuffer@@@std@@@std@@@std@@@1@V?$_Tree_const_iterator@V?$_Tree_val@U?$_Tree_simple_types@U?$pair@$$CBHPAVGraphicsBuffer@@@std@@@std@@@std@@@1@AAU?$pair@$$CBHPAVGraphicsBuffer@@@1@PAU?$_Tree_node@U?$pair@$$CBHPAVGraphicsBuffer@@@std@@PAX@1@@Z 00448850 f i CommonPathfindingLib:GraphicsBufferManager.obj
 0002:0001fda0       ??$_Insert_hint@AAU?$pair@$$CBV?$basic_string@DU?$char_traits@D@std@@V?$allocator@D@2@@std@@H@std@@PAU?$_Tree_node@U?$pair@$$CBV?$basic_string@DU?$char_traits@D@std@@V?$allocator@D@2@@std@@H@std@@PAX@2@@?$_Tree@V?$_Tmap_traits@V?$basic_string@DU?$char_traits@D@std@@V?$allocator@D@2@@std@@HU?$less@V?$basic_string@DU?$char_traits@D@std@@V?$allocator@D@2@@std@@@2@V?$allocator@U?$pair@$$CBV?$basic_string@DU?$char_traits@D@std@@V?$allocator@D@2@@std@@H@std@@@2@$0A@@std@@@std@@IAE?AV?$_Tree_iterator@V?$_Tree_val@U?$_Tree_simple_types@U?$pair@$$CBV?$basic_string@DU?$char_traits@D@std@@V?$allocator@D@2@@std@@H@std@@@std@@@std@@@1@V?$_Tree_const_iterator@V?$_Tree_val@U?$_Tree_simple_types@U?$pair@$$CBV?$basic_string@DU?$char_traits@D@std@@V?$allocator@D@2@@std@@H@std@@@std@@@std@@@1@AAU?$pair@$$CBV?$basic_string@DU?$char_traits@D@std@@V?$allocator@D@2@@std@@H@1@PAU?$_Tree_node@U?$pair@$$CBV?$basic_string@DU?$char_traits@D@std@@V?$allocator@D@2@@std@@H@std@@PAX@1@@Z 00449da0 f i CommonPathfindingLib:GraphicsBufferManager.obj
 0002:000212f0       ??$_Insert_nohint@AAU?$pair@$$CBHPAVGraphicsBuffer@@@std@@PAU?$_Tree_node@U?$pair@$$CBHPAVGraphicsBuffer@@@std@@PAX@2@@?$_Tree@V?$_Tmap_traits@HPAVGraphicsBuffer@@U?$less@H@std@@V?$allocator@U?$pair@$$CBHPAVGraphicsBuffer@@@std@@@3@$0A@@std@@@std@@IAE?AU?$pair@V?$_Tree_iterator@V?$_Tree_val@U?$_Tree_simple_types@U?$pair@$$CBHPAVGraphicsBuffer@@@std@@@std@@@std@@@std@@_N@1@_NAAU?$pair@$$CBHPAVGraphicsBuffer@@@1@PAU?$_Tree_node@U?$pair@$$CBHPAVGraphicsBuffer@@@std@@PAX@1@@Z 0044b2f0 f i CommonPathfindingLib:GraphicsBufferManager.obj
 0002:000219c0       ??$_Insert_nohint@AAU?$pair@$$CBV?$basic_string@DU?$char_traits@D@std@@V?$allocator@D@2@@std@@H@std@@PAU?$_Tree_node@U?$pair@$$CBV?$basic_string@DU?$char_traits@D@std@@V?$allocator@D@2@@std@@H@std@@PAX@2@@?$_Tree@V?$_Tmap_traits@V?$basic_string@DU?$char_traits@D@std@@V?$allocator@D@2@@std@@HU?$less@V?$basic_string@DU?$char_traits@D@std@@V?$allocator@D@2@@std@@@2@V?$allocator@U?$pair@$$CBV?$basic_string@DU?$char_traits@D@std@@V?$allocator@D@2@@std@@H@std@@@2@$0A@@std@@@std@@IAE?AU?$pair@V?$_Tree_iterator@V?$_Tree_val@U?$_Tree_simple_types@U?$pair@$$CBV?$basic_string@DU?$char_traits@D@std@@V?$allocator@D@2@@std@@H@std@@@std@@@std@@@std@@_N@1@_NAAU?$pair@$$CBV?$basic_string@DU?$char_traits@D@std@@V?$allocator@D@2@@std@@H@1@PAU?$_Tree_node@U?$pair@$$CBV?$basic_string@DU?$char_traits@D@std@@V?$allocator@D@2@@std@@H@std@@PAX@1@@Z 0044b9c0 f i CommonPathfindingLib:GraphicsBufferManager.obj
 0002:00022090       ??$_Kfn@$$CBHPAVGraphicsBuffer@@@?$_Tmap_traits@HPAVGraphicsBuffer@@U?$less@H@std@@V?$allocator@U?$pair@$$CBHPAVGraphicsBuffer@@@std@@@3@$0A@@std@@SAABHABU?$pair@$$CBHPAVGraphicsBuffer@@@1@@Z 0044c090 f i CommonPathfindingLib:GraphicsBufferManager.obj
 0002:000220d0       ??$_Kfn@$$CBV?$basic_string@DU?$char_traits@D@std@@V?$allocator@D@2@@std@@H@?$_Tmap_traits@V?$basic_string@DU?$char_traits@D@std@@V?$allocator@D@2@@std@@HU?$less@V?$basic_string@DU?$char_traits@D@std@@V?$allocator@D@2@@std@@@2@V?$allocator@U?$pair@$$CBV?$basic_string@DU?$char_traits@D@std@@V?$allocator@D@2@@std@@H@std@@@2@$0A@@std@@SAABV?$basic_string@DU?$char_traits@D@std@@V?$allocator@D@2@@1@ABU?$pair@$$CBV?$basic_string@DU?$char_traits@D@std@@V?$allocator@D@2@@std@@H@1@@Z 0044c0d0 f i CommonPathfindingLib:GraphicsBufferManager.obj
 0002:00022110       ??$_Lbound@H@?$_Tree@V?$_Tmap_traits@HPAVGraphicsBuffer@@U?$less@H@std@@V?$allocator@U?$pair@$$CBHPAVGraphicsBuffer@@@std@@@3@$0A@@std@@@std@@IBEPAU?$_Tree_node@U?$pair@$$CBHPAVGraphicsBuffer@@@std@@PAX@1@ABH@Z 0044c110 f i CommonPathfindingLib:GraphicsBufferManager.obj
 0002:00022200       ??$_Lbound@V?$basic_string@DU?$char_traits@D@std@@V?$allocator@D@2@@std@@@?$_Tree@V?$_Tmap_traits@V?$basic_string@DU?$char_traits@D@std@@V?$allocator@D@2@@std@@HU?$less@V?$basic_string@DU?$char_traits@D@std@@V?$allocator@D@2@@std@@@2@V?$allocator@U?$pair@$$CBV?$basic_string@DU?$char_traits@D@std@@V?$allocator@D@2@@std@@H@std@@@2@$0A@@std@@@std@@IBEPAU?$_Tree_node@U?$pair@$$CBV?$basic_string@DU?$char_traits@D@std@@V?$allocator@D@2@@std@@H@std@@PAX@1@ABV?$basic_string@DU?$char_traits@D@std@@V?$allocator@D@2@@1@@Z 0044c200 f i CommonPathfindingLib:GraphicsBufferManager.obj
 0002:000222f0       ??$_Try_emplace@ABH$$V@?$map@HPAVGraphicsBuffer@@U?$less@H@std@@V?$allocator@U?$pair@$$CBHPAVGraphicsBuffer@@@std@@@3@@std@@QAE?AU?$pair@V?$_Tree_iterator@V?$_Tree_val@U?$_Tree_simple_types@U?$pair@$$CBHPAVGraphicsBuffer@@@std@@@std@@@std@@@std@@_N@1@ABH@Z 0044c2f0 f i CommonPathfindingLib:GraphicsBufferManager.obj
 0002:00022640       ??$_Try_emplace@ABV?$basic_string@DU?$char_traits@D@std@@V?$allocator@D@2@@std@@$$V@?$map@V?$basic_string@DU?$char_traits@D@std@@V?$allocator@D@2@@std@@HU?$less@V?$basic_string@DU?$char_traits@D@std@@V?$allocator@D@2@@std@@@2@V?$allocator@U?$pair@$$CBV?$basic_string@DU?$char_traits@D@std@@V?$allocator@D@2@@std@@H@std@@@2@@std@@QAE?AU?$pair@V?$_Tree_iterator@V?$_Tree_val@U?$_Tree_simple_types@U?$pair@$$CBV?$basic_string@DU?$char_traits@D@std@@V?$allocator@D@2@@std@@H@std@@@std@@@std@@@std@@_N@1@ABV?$basic_string@DU?$char_traits@D@std@@V?$allocator@D@2@@1@@Z 0044c640 f i CommonPathfindingLib:GraphicsBufferManager.obj
 0002:00022990       ??$addressof@PAU?$_Tree_node@U?$pair@$$CBHPAVGraphicsBuffer@@@std@@PAX@std@@@std@@YAPAPAU?$_Tree_node@U?$pair@$$CBHPAVGraphicsBuffer@@@std@@PAX@0@AAPAU10@@Z 0044c990 f i CommonPathfindingLib:GraphicsBufferManager.obj
 0002:000229d0       ??$addressof@PAU?$_Tree_node@U?$pair@$$CBV?$basic_string@DU?$char_traits@D@std@@V?$allocator@D@2@@std@@H@std@@PAX@std@@@std@@YAPAPAU?$_Tree_node@U?$pair@$$CBV?$basic_string@DU?$char_traits@D@std@@V?$allocator@D@2@@std@@H@std@@PAX@0@AAPAU10@@Z 0044c9d0 f i CommonPathfindingLib:GraphicsBufferManager.obj
 0002:00022a10       ??$addressof@U?$pair@$$CBHPAVGraphicsBuffer@@@std@@@std@@YAPAU?$pair@$$CBHPAVGraphicsBuffer@@@0@AAU10@@Z 0044ca10 f i CommonPathfindingLib:GraphicsBufferManager.obj
 0002:00022a50       ??$addressof@U?$pair@$$CBV?$basic_string@DU?$char_traits@D@std@@V?$allocator@D@2@@std@@H@std@@@std@@YAPAU?$pair@$$CBV?$basic_string@DU?$char_traits@D@std@@V?$allocator@D@2@@std@@H@0@AAU10@@Z 0044ca50 f i CommonPathfindingLib:GraphicsBufferManager.obj
 0002:00022a90       ??$construct@PAU?$_Tree_node@U?$pair@$$CBHPAVGraphicsBuffer@@@std@@PAX@std@@AAPAU12@@?$_Wrap_alloc@V?$allocator@U?$_Tree_node@U?$pair@$$CBHPAVGraphicsBuffer@@@std@@PAX@std@@@std@@@std@@QAEXPAPAU?$_Tree_node@U?$pair@$$CBHPAVGraphicsBuffer@@@std@@PAX@1@AAPAU21@@Z 0044ca90 f i CommonPathfindingLib:GraphicsBufferManager.obj
 0002:00022b00       ??$construct@PAU?$_Tree_node@U?$pair@$$CBHPAVGraphicsBuffer@@@std@@PAX@std@@AAPAU12@@?$allocator@U?$_Tree_node@U?$pair@$$CBHPAVGraphicsBuffer@@@std@@PAX@std@@@std@@QAEXPAPAU?$_Tree_node@U?$pair@$$CBHPAVGraphicsBuffer@@@std@@PAX@1@AAPAU21@@Z 0044cb00 f i CommonPathfindingLib:GraphicsBufferManager.obj
 0002:00022bb0       ??$construct@PAU?$_Tree_node@U?$pair@$$CBHPAVGraphicsBuffer@@@std@@PAX@std@@AAPAU12@@?$allocator_traits@V?$allocator@U?$_Tree_node@U?$pair@$$CBHPAVGraphicsBuffer@@@std@@PAX@std@@@std@@@std@@SAXAAV?$allocator@U?$_Tree_node@U?$pair@$$CBHPAVGraphicsBuffer@@@std@@PAX@std@@@1@PAPAU?$_Tree_node@U?$pair@$$CBHPAVGraphicsBuffer@@@std@@PAX@1@AAPAU31@@Z 0044cbb0 f i CommonPathfindingLib:GraphicsBufferManager.obj
 0002:00022c10       ??$construct@PAU?$_Tree_node@U?$pair@$$CBV?$basic_string@DU?$char_traits@D@std@@V?$allocator@D@2@@std@@H@std@@PAX@std@@AAPAU12@@?$_Wrap_alloc@V?$allocator@U?$_Tree_node@U?$pair@$$CBV?$basic_string@DU?$char_traits@D@std@@V?$allocator@D@2@@std@@H@std@@PAX@std@@@std@@@std@@QAEXPAPAU?$_Tree_node@U?$pair@$$CBV?$basic_string@DU?$char_traits@D@std@@V?$allocator@D@2@@std@@H@std@@PAX@1@AAPAU21@@Z 0044cc10 f i CommonPathfindingLib:GraphicsBufferManager.obj
 0002:00022c80       ??$construct@PAU?$_Tree_node@U?$pair@$$CBV?$basic_string@DU?$char_traits@D@std@@V?$allocator@D@2@@std@@H@std@@PAX@std@@AAPAU12@@?$allocator@U?$_Tree_node@U?$pair@$$CBV?$basic_string@DU?$char_traits@D@std@@V?$allocator@D@2@@std@@H@std@@PAX@std@@@std@@QAEXPAPAU?$_Tree_node@U?$pair@$$CBV?$basic_string@DU?$char_traits@D@std@@V?$allocator@D@2@@std@@H@std@@PAX@1@AAPAU21@@Z 0044cc80 f i CommonPathfindingLib:GraphicsBufferManager.obj
 0002:00022d30       ??$construct@PAU?$_Tree_node@U?$pair@$$CBV?$basic_string@DU?$char_traits@D@std@@V?$allocator@D@2@@std@@H@std@@PAX@std@@AAPAU12@@?$allocator_traits@V?$allocator@U?$_Tree_node@U?$pair@$$CBV?$basic_string@DU?$char_traits@D@std@@V?$allocator@D@2@@std@@H@std@@PAX@std@@@std@@@std@@SAXAAV?$allocator@U?$_Tree_node@U?$pair@$$CBV?$basic_string@DU?$char_traits@D@std@@V?$allocator@D@2@@std@@H@std@@PAX@std@@@1@PAPAU?$_Tree_node@U?$pair@$$CBV?$basic_string@DU?$char_traits@D@std@@V?$allocator@D@2@@std@@H@std@@PAX@1@AAPAU31@@Z 0044cd30 f i CommonPathfindingLib:GraphicsBufferManager.obj
 0002:00022d90       ??$construct@U?$pair@$$CBHPAVGraphicsBuffer@@@std@@ABUpiecewise_construct_t@2@V?$tuple@ABH@2@V?$tuple@$$V@2@@?$_Wrap_alloc@V?$allocator@U?$_Tree_node@U?$pair@$$CBHPAVGraphicsBuffer@@@std@@PAX@std@@@std@@@std@@QAEXPAU?$pair@$$CBHPAVGraphicsBuffer@@@1@ABUpiecewise_construct_t@1@$$QAV?$tuple@ABH@1@$$QAV?$tuple@$$V@1@@Z 0044cd90 f i CommonPathfindingLib:GraphicsBufferManager.obj
 0002:00022e20       ??$construct@U?$pair@$$CBHPAVGraphicsBuffer@@@std@@ABUpiecewise_construct_t@2@V?$tuple@ABH@2@V?$tuple@$$V@2@@?$allocator@U?$_Tree_node@U?$pair@$$CBHPAVGraphicsBuffer@@@std@@PAX@std@@@std@@QAEXPAU?$pair@$$CBHPAVGraphicsBuffer@@@1@ABUpiecewise_construct_t@1@$$QAV?$tuple@ABH@1@$$QAV?$tuple@$$V@1@@Z 0044ce20 f i CommonPathfindingLib:GraphicsBufferManager.obj
 0002:00022f60       ??$construct@U?$pair@$$CBHPAVGraphicsBuffer@@@std@@ABUpiecewise_construct_t@2@V?$tuple@ABH@2@V?$tuple@$$V@2@@?$allocator_traits@V?$allocator@U?$_Tree_node@U?$pair@$$CBHPAVGraphicsBuffer@@@std@@PAX@std@@@std@@@std@@SAXAAV?$allocator@U?$_Tree_node@U?$pair@$$CBHPAVGraphicsBuffer@@@std@@PAX@std@@@1@PAU?$pair@$$CBHPAVGraphicsBuffer@@@1@ABUpiecewise_construct_t@1@$$QAV?$tuple@ABH@1@$$QAV?$tuple@$$V@1@@Z 0044cf60 f i CommonPathfindingLib:GraphicsBufferManager.obj
 0002:00022fe0       ??$construct@U?$pair@$$CBV?$basic_string@DU?$char_traits@D@std@@V?$allocator@D@2@@std@@H@std@@ABUpiecewise_construct_t@2@V?$tuple@ABV?$basic_string@DU?$char_traits@D@std@@V?$allocator@D@2@@std@@@2@V?$tuple@$$V@2@@?$_Wrap_alloc@V?$allocator@U?$_Tree_node@U?$pair@$$CBV?$basic_string@DU?$char_traits@D@std@@V?$allocator@D@2@@std@@H@std@@PAX@std@@@std@@@std@@QAEXPAU?$pair@$$CBV?$basic_string@DU?$char_traits@D@std@@V?$allocator@D@2@@std@@H@1@ABUpiecewise_construct_t@1@$$QAV?$tuple@ABV?$basic_string@DU?$char_traits@D@std@@V?$allocator@D@2@@std@@@1@$$QAV?$tuple@$$V@1@@Z 0044cfe0 f i CommonPathfindingLib:GraphicsBufferManager.obj
 0002:00023070       ??$construct@U?$pair@$$CBV?$basic_string@DU?$char_traits@D@std@@V?$allocator@D@2@@std@@H@std@@ABUpiecewise_construct_t@2@V?$tuple@ABV?$basic_string@DU?$char_traits@D@std@@V?$allocator@D@2@@std@@@2@V?$tuple@$$V@2@@?$allocator@U?$_Tree_node@U?$pair@$$CBV?$basic_string@DU?$char_traits@D@std@@V?$allocator@D@2@@std@@H@std@@PAX@std@@@std@@QAEXPAU?$pair@$$CBV?$basic_string@DU?$char_traits@D@std@@V?$allocator@D@2@@std@@H@1@ABUpiecewise_construct_t@1@$$QAV?$tuple@ABV?$basic_string@DU?$char_traits@D@std@@V?$allocator@D@2@@std@@@1@$$QAV?$tuple@$$V@1@@Z 0044d070 f i CommonPathfindingLib:GraphicsBufferManager.obj
 0002:000231b0       ??$construct@U?$pair@$$CBV?$basic_string@DU?$char_traits@D@std@@V?$allocator@D@2@@std@@H@std@@ABUpiecewise_construct_t@2@V?$tuple@ABV?$basic_string@DU?$char_traits@D@std@@V?$allocator@D@2@@std@@@2@V?$tuple@$$V@2@@?$allocator_traits@V?$allocator@U?$_Tree_node@U?$pair@$$CBV?$basic_string@DU?$char_traits@D@std@@V?$allocator@D@2@@std@@H@std@@PAX@std@@@std@@@std@@SAXAAV?$allocator@U?$_Tree_node@U?$pair@$$CBV?$basic_string@DU?$char_traits@D@std@@V?$allocator@D@2@@std@@H@std@@PAX@std@@@1@PAU?$pair@$$CBV?$basic_string@DU?$char_traits@D@std@@V?$allocator@D@2@@std@@H@1@ABUpiecewise_construct_t@1@$$QAV?$tuple@ABV?$basic_string@DU?$char_traits@D@std@@V?$allocator@D@2@@std@@@1@$$QAV?$tuple@$$V@1@@Z 0044d1b0 f i CommonPathfindingLib:GraphicsBufferManager.obj
 0002:00023230       ??$destroy@PAU?$_Tree_node@U?$pair@$$CBHPAVGraphicsBuffer@@@std@@PAX@std@@@?$_Wrap_alloc@V?$allocator@U?$_Tree_node@U?$pair@$$CBHPAVGraphicsBuffer@@@std@@PAX@std@@@std@@@std@@QAEXPAPAU?$_Tree_node@U?$pair@$$CBHPAVGraphicsBuffer@@@std@@PAX@1@@Z 0044d230 f i CommonPathfindingLib:GraphicsBufferManager.obj
 0002:00023290       ??$destroy@PAU?$_Tree_node@U?$pair@$$CBHPAVGraphicsBuffer@@@std@@PAX@std@@@?$allocator@U?$_Tree_node@U?$pair@$$CBHPAVGraphicsBuffer@@@std@@PAX@std@@@std@@QAEXPAPAU?$_Tree_node@U?$pair@$$CBHPAVGraphicsBuffer@@@std@@PAX@1@@Z 0044d290 f i CommonPathfindingLib:GraphicsBufferManager.obj
 0002:000232d0       ??$destroy@PAU?$_Tree_node@U?$pair@$$CBHPAVGraphicsBuffer@@@std@@PAX@std@@@?$allocator_traits@V?$allocator@U?$_Tree_node@U?$pair@$$CBHPAVGraphicsBuffer@@@std@@PAX@std@@@std@@@std@@SAXAAV?$allocator@U?$_Tree_node@U?$pair@$$CBHPAVGraphicsBuffer@@@std@@PAX@std@@@1@PAPAU?$_Tree_node@U?$pair@$$CBHPAVGraphicsBuffer@@@std@@PAX@1@@Z 0044d2d0 f i CommonPathfindingLib:GraphicsBufferManager.obj
 0002:00023320       ??$destroy@PAU?$_Tree_node@U?$pair@$$CBV?$basic_string@DU?$char_traits@D@std@@V?$allocator@D@2@@std@@H@std@@PAX@std@@@?$_Wrap_alloc@V?$allocator@U?$_Tree_node@U?$pair@$$CBV?$basic_string@DU?$char_traits@D@std@@V?$allocator@D@2@@std@@H@std@@PAX@std@@@std@@@std@@QAEXPAPAU?$_Tree_node@U?$pair@$$CBV?$basic_string@DU?$char_traits@D@std@@V?$allocator@D@2@@std@@H@std@@PAX@1@@Z 0044d320 f i CommonPathfindingLib:GraphicsBufferManager.obj
 0002:00023380       ??$destroy@PAU?$_Tree_node@U?$pair@$$CBV?$basic_string@DU?$char_traits@D@std@@V?$allocator@D@2@@std@@H@std@@PAX@std@@@?$allocator@U?$_Tree_node@U?$pair@$$CBV?$basic_string@DU?$char_traits@D@std@@V?$allocator@D@2@@std@@H@std@@PAX@std@@@std@@QAEXPAPAU?$_Tree_node@U?$pair@$$CBV?$basic_string@DU?$char_traits@D@std@@V?$allocator@D@2@@std@@H@std@@PAX@1@@Z 0044d380 f i CommonPathfindingLib:GraphicsBufferManager.obj
 0002:000233c0       ??$destroy@PAU?$_Tree_node@U?$pair@$$CBV?$basic_string@DU?$char_traits@D@std@@V?$allocator@D@2@@std@@H@std@@PAX@std@@@?$allocator_traits@V?$allocator@U?$_Tree_node@U?$pair@$$CBV?$basic_string@DU?$char_traits@D@std@@V?$allocator@D@2@@std@@H@std@@PAX@std@@@std@@@std@@SAXAAV?$allocator@U?$_Tree_node@U?$pair@$$CBV?$basic_string@DU?$char_traits@D@std@@V?$allocator@D@2@@std@@H@std@@PAX@std@@@1@PAPAU?$_Tree_node@U?$pair@$$CBV?$basic_string@DU?$char_traits@D@std@@V?$allocator@D@2@@std@@H@std@@PAX@1@@Z 0044d3c0 f i CommonPathfindingLib:GraphicsBufferManager.obj
 0002:00023410       ??$destroy@U?$pair@$$CBHPAVGraphicsBuffer@@@std@@@?$_Wrap_alloc@V?$allocator@U?$_Tree_node@U?$pair@$$CBHPAVGraphicsBuffer@@@std@@PAX@std@@@std@@@std@@QAEXPAU?$pair@$$CBHPAVGraphicsBuffer@@@1@@Z 0044d410 f i CommonPathfindingLib:GraphicsBufferManager.obj
 0002:00023470       ??$destroy@U?$pair@$$CBHPAVGraphicsBuffer@@@std@@@?$allocator@U?$_Tree_node@U?$pair@$$CBHPAVGraphicsBuffer@@@std@@PAX@std@@@std@@QAEXPAU?$pair@$$CBHPAVGraphicsBuffer@@@1@@Z 0044d470 f i CommonPathfindingLib:GraphicsBufferManager.obj
 0002:000234b0       ??$destroy@U?$pair@$$CBHPAVGraphicsBuffer@@@std@@@?$allocator_traits@V?$allocator@U?$_Tree_node@U?$pair@$$CBHPAVGraphicsBuffer@@@std@@PAX@std@@@std@@@std@@SAXAAV?$allocator@U?$_Tree_node@U?$pair@$$CBHPAVGraphicsBuffer@@@std@@PAX@std@@@1@PAU?$pair@$$CBHPAVGraphicsBuffer@@@1@@Z 0044d4b0 f i CommonPathfindingLib:GraphicsBufferManager.obj
 0002:00023500       ??$destroy@U?$pair@$$CBV?$basic_string@DU?$char_traits@D@std@@V?$allocator@D@2@@std@@H@std@@@?$_Wrap_alloc@V?$allocator@U?$_Tree_node@U?$pair@$$CBV?$basic_string@DU?$char_traits@D@std@@V?$allocator@D@2@@std@@H@std@@PAX@std@@@std@@@std@@QAEXPAU?$pair@$$CBV?$basic_string@DU?$char_traits@D@std@@V?$allocator@D@2@@std@@H@1@@Z 0044d500 f i CommonPathfindingLib:GraphicsBufferManager.obj
 0002:00023560       ??$destroy@U?$pair@$$CBV?$basic_string@DU?$char_traits@D@std@@V?$allocator@D@2@@std@@H@std@@@?$allocator@U?$_Tree_node@U?$pair@$$CBV?$basic_string@DU?$char_traits@D@std@@V?$allocator@D@2@@std@@H@std@@PAX@std@@@std@@QAEXPAU?$pair@$$CBV?$basic_string@DU?$char_traits@D@std@@V?$allocator@D@2@@std@@H@1@@Z 0044d560 f i CommonPathfindingLib:GraphicsBufferManager.obj
 0002:000235c0       ??$destroy@U?$pair@$$CBV?$basic_string@DU?$char_traits@D@std@@V?$allocator@D@2@@std@@H@std@@@?$allocator_traits@V?$allocator@U?$_Tree_node@U?$pair@$$CBV?$basic_string@DU?$char_traits@D@std@@V?$allocator@D@2@@std@@H@std@@PAX@std@@@std@@@std@@SAXAAV?$allocator@U?$_Tree_node@U?$pair@$$CBV?$basic_string@DU?$char_traits@D@std@@V?$allocator@D@2@@std@@H@std@@PAX@std@@@1@PAU?$pair@$$CBV?$basic_string@DU?$char_traits@D@std@@V?$allocator@D@2@@std@@H@1@@Z 0044d5c0 f i CommonPathfindingLib:GraphicsBufferManager.obj
 0002:00023610       ??$emplace_hint@ABUpiecewise_construct_t@std@@V?$tuple@ABH@2@V?$tuple@$$V@2@@?$_Tree@V?$_Tmap_traits@HPAVGraphicsBuffer@@U?$less@H@std@@V?$allocator@U?$pair@$$CBHPAVGraphicsBuffer@@@std@@@3@$0A@@std@@@std@@QAE?AV?$_Tree_iterator@V?$_Tree_val@U?$_Tree_simple_types@U?$pair@$$CBHPAVGraphicsBuffer@@@std@@@std@@@std@@@1@V?$_Tree_const_iterator@V?$_Tree_val@U?$_Tree_simple_types@U?$pair@$$CBHPAVGraphicsBuffer@@@std@@@std@@@std@@@1@ABUpiecewise_construct_t@1@$$QAV?$tuple@ABH@1@$$QAV?$tuple@$$V@1@@Z 0044d610 f i CommonPathfindingLib:GraphicsBufferManager.obj
 0002:00023760       ??$emplace_hint@ABUpiecewise_construct_t@std@@V?$tuple@ABV?$basic_string@DU?$char_traits@D@std@@V?$allocator@D@2@@std@@@2@V?$tuple@$$V@2@@?$_Tree@V?$_Tmap_traits@V?$basic_string@DU?$char_traits@D@std@@V?$allocator@D@2@@std@@HU?$less@V?$basic_string@DU?$char_traits@D@std@@V?$allocator@D@2@@std@@@2@V?$allocator@U?$pair@$$CBV?$basic_string@DU?$char_traits@D@std@@V?$allocator@D@2@@std@@H@std@@@2@$0A@@std@@@std@@QAE?AV?$_Tree_iterator@V?$_Tree_val@U?$_Tree_simple_types@U?$pair@$$CBV?$basic_string@DU?$char_traits@D@std@@V?$allocator@D@2@@std@@H@std@@@std@@@std@@@1@V?$_Tree_const_iterator@V?$_Tree_val@U?$_Tree_simple_types@U?$pair@$$CBV?$basic_string@DU?$char_traits@D@std@@V?$allocator@D@2@@std@@H@std@@@std@@@std@@@1@ABUpiecewise_construct_t@1@$$QAV?$tuple@ABV?$basic_string@DU?$char_traits@D@std@@V?$allocator@D@2@@std@@@1@$$QAV?$tuple@$$V@1@@Z 0044d760 f i CommonPathfindingLib:GraphicsBufferManager.obj
 0002:000238b0       ??$forward@AAPAU?$_Tree_node@U?$pair@$$CBHPAVGraphicsBuffer@@@std@@PAX@std@@@std@@YAAAPAU?$_Tree_node@U?$pair@$$CBHPAVGraphicsBuffer@@@std@@PAX@0@AAPAU10@@Z 0044d8b0 f i CommonPathfindingLib:GraphicsBufferManager.obj
 0002:000238f0       ??$forward@AAPAU?$_Tree_node@U?$pair@$$CBV?$basic_string@DU?$char_traits@D@std@@V?$allocator@D@2@@std@@H@std@@PAX@std@@@std@@YAAAPAU?$_Tree_node@U?$pair@$$CBV?$basic_string@DU?$char_traits@D@std@@V?$allocator@D@2@@std@@H@std@@PAX@0@AAPAU10@@Z 0044d8f0 f i CommonPathfindingLib:GraphicsBufferManager.obj
 0002:00023930       ??$forward@AAU?$_Wrap_alloc@V?$allocator@U?$_Tree_node@U?$pair@$$CBHPAVGraphicsBuffer@@@std@@PAX@std@@@std@@@std@@@std@@YAAAU?$_Wrap_alloc@V?$allocator@U?$_Tree_node@U?$pair@$$CBHPAVGraphicsBuffer@@@std@@PAX@std@@@std@@@0@AAU10@@Z 0044d930 f i CommonPathfindingLib:GraphicsBufferManager.obj
 0002:00023970       ??$forward@AAU?$_Wrap_alloc@V?$allocator@U?$_Tree_node@U?$pair@$$CBV?$basic_string@DU?$char_traits@D@std@@V?$allocator@D@2@@std@@H@std@@PAX@std@@@std@@@std@@@std@@YAAAU?$_Wrap_alloc@V?$allocator@U?$_Tree_node@U?$pair@$$CBV?$basic_string@DU?$char_traits@D@std@@V?$allocator@D@2@@std@@H@std@@PAX@std@@@std@@@0@AAU10@@Z 0044d970 f i CommonPathfindingLib:GraphicsBufferManager.obj
 0002:000239b0       ??$forward@AAU?$pair@$$CBHPAVGraphicsBuffer@@@std@@@std@@YAAAU?$pair@$$CBHPAVGraphicsBuffer@@@0@AAU10@@Z 0044d9b0 f i CommonPathfindingLib:GraphicsBufferManager.obj
 0002:000239f0       ??$forward@AAU?$pair@$$CBV?$basic_string@DU?$char_traits@D@std@@V?$allocator@D@2@@std@@H@std@@@std@@YAAAU?$pair@$$CBV?$basic_string@DU?$char_traits@D@std@@V?$allocator@D@2@@std@@H@0@AAU10@@Z 0044d9f0 f i CommonPathfindingLib:GraphicsBufferManager.obj
 0002:00023a30       ??$forward@AAV?$_Tree_iterator@V?$_Tree_val@U?$_Tree_simple_types@U?$pair@$$CBHPAVGraphicsBuffer@@@std@@@std@@@std@@@std@@@std@@YAAAV?$_Tree_iterator@V?$_Tree_val@U?$_Tree_simple_types@U?$pair@$$CBHPAVGraphicsBuffer@@@std@@@std@@@std@@@0@AAV10@@Z 0044da30 f i CommonPathfindingLib:GraphicsBufferManager.obj
 0002:00023a70       ??$forward@AAV?$_Tree_iterator@V?$_Tree_val@U?$_Tree_simple_types@U?$pair@$$CBV?$basic_string@DU?$char_traits@D@std@@V?$allocator@D@2@@std@@H@std@@@std@@@std@@@std@@@std@@YAAAV?$_Tree_iterator@V?$_Tree_val@U?$_Tree_simple_types@U?$pair@$$CBV?$basic_string@DU?$char_traits@D@std@@V?$allocator@D@2@@std@@H@std@@@std@@@std@@@0@AAV10@@Z 0044da70 f i CommonPathfindingLib:GraphicsBufferManager.obj
 0002:00023ab0       ??$forward@ABU?$less@H@std@@@std@@YAABU?$less@H@0@ABU10@@Z 0044dab0 f i CommonPathfindingLib:GraphicsBufferManager.obj
 0002:00023af0       ??$forward@ABU?$less@V?$basic_string@DU?$char_traits@D@std@@V?$allocator@D@2@@std@@@std@@@std@@YAABU?$less@V?$basic_string@DU?$char_traits@D@std@@V?$allocator@D@2@@std@@@0@ABU10@@Z 0044daf0 f i CommonPathfindingLib:GraphicsBufferManager.obj
 0002:00023b30       ??$forward@ABUpiecewise_construct_t@std@@@std@@YAABUpiecewise_construct_t@0@ABU10@@Z 0044db30 f i CommonPathfindingLib:GraphicsBufferManager.obj
 0002:00023b70       ??$forward@ABV?$basic_string@DU?$char_traits@D@std@@V?$allocator@D@2@@std@@@std@@YAABV?$basic_string@DU?$char_traits@D@std@@V?$allocator@D@2@@0@ABV10@@Z 0044db70 f i CommonPathfindingLib:GraphicsBufferManager.obj
 0002:00023bb0       ??$forward@U_Zero_then_variadic_args_t@std@@@std@@YA$$QAU_Zero_then_variadic_args_t@0@AAU10@@Z 0044dbb0 f i CommonPathfindingLib:GraphicsBufferManager.obj
 0002:00023bf0       ??$forward@V?$_Tree_iterator@V?$_Tree_val@U?$_Tree_simple_types@U?$pair@$$CBHPAVGraphicsBuffer@@@std@@@std@@@std@@@std@@@std@@YA$$QAV?$_Tree_iterator@V?$_Tree_val@U?$_Tree_simple_types@U?$pair@$$CBHPAVGraphicsBuffer@@@std@@@std@@@std@@@0@AAV10@@Z 0044dbf0 f i CommonPathfindingLib:GraphicsBufferManager.obj
 0002:00023c30       ??$forward@V?$_Tree_iterator@V?$_Tree_val@U?$_Tree_simple_types@U?$pair@$$CBV?$basic_string@DU?$char_traits@D@std@@V?$allocator@D@2@@std@@H@std@@@std@@@std@@@std@@@std@@YA$$QAV?$_Tree_iterator@V?$_Tree_val@U?$_Tree_simple_types@U?$pair@$$CBV?$basic_string@DU?$char_traits@D@std@@V?$allocator@D@2@@std@@H@std@@@std@@@std@@@0@AAV10@@Z 0044dc30 f i CommonPathfindingLib:GraphicsBufferManager.obj
 0002:00023c70       ??$forward@V?$allocator@D@std@@@std@@YA$$QAV?$allocator@D@0@AAV10@@Z 0044dc70 f i CommonPathfindingLib:GraphicsBufferManager.obj
 0002:00023cb0       ??$forward@V?$tuple@$$V@std@@@std@@YA$$QAV?$tuple@$$V@0@AAV10@@Z 0044dcb0 f i CommonPathfindingLib:GraphicsBufferManager.obj
 0002:00023cf0       ??$forward@V?$tuple@ABH@std@@@std@@YA$$QAV?$tuple@ABH@0@AAV10@@Z 0044dcf0 f i CommonPathfindingLib:GraphicsBufferManager.obj
 0002:00023d30       ??$forward@V?$tuple@ABV?$basic_string@DU?$char_traits@D@std@@V?$allocator@D@2@@std@@@std@@@std@@YA$$QAV?$tuple@ABV?$basic_string@DU?$char_traits@D@std@@V?$allocator@D@2@@std@@@0@AAV10@@Z 0044dd30 f i CommonPathfindingLib:GraphicsBufferManager.obj
 0002:00023d70       ??$forward@_N@std@@YA$$QA_NAA_N@Z 0044dd70 f i CommonPathfindingLib:GraphicsBufferManager.obj
 0002:00023db0       ??$forward_as_tuple@$$V@std@@YA?AV?$tuple@$$V@0@XZ 0044ddb0 f i CommonPathfindingLib:GraphicsBufferManager.obj
 0002:00023e00       ??$forward_as_tuple@ABH@std@@YA?AV?$tuple@ABH@0@ABH@Z 0044de00 f i CommonPathfindingLib:GraphicsBufferManager.obj
 0002:00023ea0       ??$forward_as_tuple@ABV?$basic_string@DU?$char_traits@D@std@@V?$allocator@D@2@@std@@@std@@YA?AV?$tuple@ABV?$basic_string@DU?$char_traits@D@std@@V?$allocator@D@2@@std@@@0@ABV?$basic_string@DU?$char_traits@D@std@@V?$allocator@D@2@@0@@Z 0044dea0 f i CommonPathfindingLib:GraphicsBufferManager.obj
 0002:00023f40       ??$get@$0A@ABH@std@@YAABH$$QAV?$tuple@ABH@0@@Z 0044df40 f i CommonPathfindingLib:GraphicsBufferManager.obj
 0002:00023f90       ??$get@$0A@ABV?$basic_string@DU?$char_traits@D@std@@V?$allocator@D@2@@std@@@std@@YAABV?$basic_string@DU?$char_traits@D@std@@V?$allocator@D@2@@0@$$QAV?$tuple@ABV?$basic_string@DU?$char_traits@D@std@@V?$allocator@D@2@@std@@@0@@Z 0044df90 f i CommonPathfindingLib:GraphicsBufferManager.obj
 0002:00023fe0       ??$move@AAD@std@@YA$$QADAAD@Z 0044dfe0 f i CommonPathfindingLib:GraphicsBufferManager.obj
 0002:00024020       ??$move@AAV?$tuple@ABH@std@@@std@@YA$$QAV?$tuple@ABH@0@AAV10@@Z 0044e020 f i CommonPathfindingLib:GraphicsBufferManager.obj
 0002:00024060       ??$move@AAV?$tuple@ABV?$basic_string@DU?$char_traits@D@std@@V?$allocator@D@2@@std@@@std@@@std@@YA$$QAV?$tuple@ABV?$basic_string@DU?$char_traits@D@std@@V?$allocator@D@2@@std@@@0@AAV10@@Z 0044e060 f i CommonPathfindingLib:GraphicsBufferManager.obj
 0002:000240a0       ??$swap@DX@std@@YAXAAD0@Z  0044e0a0 f i CommonPathfindingLib:GraphicsBufferManager.obj
 0002:00024160       ??$try_emplace@$$V@?$map@HPAVGraphicsBuffer@@U?$less@H@std@@V?$allocator@U?$pair@$$CBHPAVGraphicsBuffer@@@std@@@3@@std@@QAE?AU?$pair@V?$_Tree_iterator@V?$_Tree_val@U?$_Tree_simple_types@U?$pair@$$CBHPAVGraphicsBuffer@@@std@@@std@@@std@@@std@@_N@1@ABH@Z 0044e160 f i CommonPathfindingLib:GraphicsBufferManager.obj
 0002:000241e0       ??$try_emplace@$$V@?$map@V?$basic_string@DU?$char_traits@D@std@@V?$allocator@D@2@@std@@HU?$less@V?$basic_string@DU?$char_traits@D@std@@V?$allocator@D@2@@std@@@2@V?$allocator@U?$pair@$$CBV?$basic_string@DU?$char_traits@D@std@@V?$allocator@D@2@@std@@H@std@@@2@@std@@QAE?AU?$pair@V?$_Tree_iterator@V?$_Tree_val@U?$_Tree_simple_types@U?$pair@$$CBV?$basic_string@DU?$char_traits@D@std@@V?$allocator@D@2@@std@@H@std@@@std@@@std@@@std@@_N@1@ABV?$basic_string@DU?$char_traits@D@std@@V?$allocator@D@2@@1@@Z 0044e1e0 f i CommonPathfindingLib:GraphicsBufferManager.obj
 0002:00024260       ??0?$_Iterator012@Ubidirectional_iterator_tag@std@@U?$pair@$$CBHPAVGraphicsBuffer@@@2@HPBU32@ABU32@U_Iterator_base12@2@@std@@QAE@$$QAU01@@Z 0044e260 f i CommonPathfindingLib:GraphicsBufferManager.obj
 0002:000242c0       ??0?$_Iterator012@Ubidirectional_iterator_tag@std@@U?$pair@$$CBHPAVGraphicsBuffer@@@2@HPBU32@ABU32@U_Iterator_base12@2@@std@@QAE@ABU01@@Z 0044e2c0 f i CommonPathfindingLib:GraphicsBufferManager.obj
 0002:00024320       ??0?$_Iterator012@Ubidirectional_iterator_tag@std@@U?$pair@$$CBHPAVGraphicsBuffer@@@2@HPBU32@ABU32@U_Iterator_base12@2@@std@@QAE@XZ 0044e320 f i CommonPathfindingLib:GraphicsBufferManager.obj
 0002:00024380       ??0?$_Iterator012@Ubidirectional_iterator_tag@std@@U?$pair@$$CBV?$basic_string@DU?$char_traits@D@std@@V?$allocator@D@2@@std@@H@2@HPBU32@ABU32@U_Iterator_base12@2@@std@@QAE@$$QAU01@@Z 0044e380 f i CommonPathfindingLib:GraphicsBufferManager.obj
 0002:000243e0       ??0?$_Iterator012@Ubidirectional_iterator_tag@std@@U?$pair@$$CBV?$basic_string@DU?$char_traits@D@std@@V?$allocator@D@2@@std@@H@2@HPBU32@ABU32@U_Iterator_base12@2@@std@@QAE@ABU01@@Z 0044e3e0 f i CommonPathfindingLib:GraphicsBufferManager.obj
 0002:00024440       ??0?$_Iterator012@Ubidirectional_iterator_tag@std@@U?$pair@$$CBV?$basic_string@DU?$char_traits@D@std@@V?$allocator@D@2@@std@@H@2@HPBU32@ABU32@U_Iterator_base12@2@@std@@QAE@XZ 0044e440 f i CommonPathfindingLib:GraphicsBufferManager.obj
 0002:000244a0       ??0?$_Tree@V?$_Tmap_traits@HPAVGraphicsBuffer@@U?$less@H@std@@V?$allocator@U?$pair@$$CBHPAVGraphicsBuffer@@@std@@@3@$0A@@std@@@std@@QAE@ABU?$less@H@1@@Z 0044e4a0 f i CommonPathfindingLib:GraphicsBufferManager.obj
 0002:00024500       ??0?$_Tree@V?$_Tmap_traits@V?$basic_string@DU?$char_traits@D@std@@V?$allocator@D@2@@std@@HU?$less@V?$basic_string@DU?$char_traits@D@std@@V?$allocator@D@2@@std@@@2@V?$allocator@U?$pair@$$CBV?$basic_string@DU?$char_traits@D@std@@V?$allocator@D@2@@std@@H@std@@@2@$0A@@std@@@std@@QAE@ABU?$less@V?$basic_string@DU?$char_traits@D@std@@V?$allocator@D@2@@std@@@1@@Z 0044e500 f i CommonPathfindingLib:GraphicsBufferManager.obj
 0002:00024560       ??0?$_Tree_comp_alloc@V?$_Tmap_traits@HPAVGraphicsBuffer@@U?$less@H@std@@V?$allocator@U?$pair@$$CBHPAVGraphicsBuffer@@@std@@@3@$0A@@std@@@std@@QAE@ABU?$less@H@1@@Z 0044e560 f i CommonPathfindingLib:GraphicsBufferManager.obj
 0002:00024620       ??0?$_Tree_comp_alloc@V?$_Tmap_traits@V?$basic_string@DU?$char_traits@D@std@@V?$allocator@D@2@@std@@HU?$less@V?$basic_string@DU?$char_traits@D@std@@V?$allocator@D@2@@std@@@2@V?$allocator@U?$pair@$$CBV?$basic_string@DU?$char_traits@D@std@@V?$allocator@D@2@@std@@H@std@@@2@$0A@@std@@@std@@QAE@ABU?$less@V?$basic_string@DU?$char_traits@D@std@@V?$allocator@D@2@@std@@@1@@Z 0044e620 f i CommonPathfindingLib:GraphicsBufferManager.obj
 0002:000246e0       ??0?$_Tree_const_iterator@V?$_Tree_val@U?$_Tree_simple_types@U?$pair@$$CBHPAVGraphicsBuffer@@@std@@@std@@@std@@@std@@QAE@$$QAV01@@Z 0044e6e0 f i CommonPathfindingLib:GraphicsBufferManager.obj
 0002:00024740       ??0?$_Tree_const_iterator@V?$_Tree_val@U?$_Tree_simple_types@U?$pair@$$CBHPAVGraphicsBuffer@@@std@@@std@@@std@@@std@@QAE@ABV01@@Z 0044e740 f i CommonPathfindingLib:GraphicsBufferManager.obj
 0002:000247a0       ??0?$_Tree_const_iterator@V?$_Tree_val@U?$_Tree_simple_types@U?$pair@$$CBHPAVGraphicsBuffer@@@std@@@std@@@std@@@std@@QAE@PAU?$_Tree_node@U?$pair@$$CBHPAVGraphicsBuffer@@@std@@PAX@1@PBV?$_Tree_val@U?$_Tree_simple_types@U?$pair@$$CBHPAVGraphicsBuffer@@@std@@@std@@@1@@Z 0044e7a0 f i CommonPathfindingLib:GraphicsBufferManager.obj
 0002:00024800       ??0?$_Tree_const_iterator@V?$_Tree_val@U?$_Tree_simple_types@U?$pair@$$CBHPAVGraphicsBuffer@@@std@@@std@@@std@@@std@@QAE@XZ 0044e800 f i CommonPathfindingLib:GraphicsBufferManager.obj
 0002:00024860       ??0?$_Tree_const_iterator@V?$_Tree_val@U?$_Tree_simple_types@U?$pair@$$CBV?$basic_string@DU?$char_traits@D@std@@V?$allocator@D@2@@std@@H@std@@@std@@@std@@@std@@QAE@$$QAV01@@Z 0044e860 f i CommonPathfindingLib:GraphicsBufferManager.obj
 0002:000248c0       ??0?$_Tree_const_iterator@V?$_Tree_val@U?$_Tree_simple_types@U?$pair@$$CBV?$basic_string@DU?$char_traits@D@std@@V?$allocator@D@2@@std@@H@std@@@std@@@std@@@std@@QAE@ABV01@@Z 0044e8c0 f i CommonPathfindingLib:GraphicsBufferManager.obj
 0002:00024920       ??0?$_Tree_const_iterator@V?$_Tree_val@U?$_Tree_simple_types@U?$pair@$$CBV?$basic_string@DU?$char_traits@D@std@@V?$allocator@D@2@@std@@H@std@@@std@@@std@@@std@@QAE@PAU?$_Tree_node@U?$pair@$$CBV?$basic_string@DU?$char_traits@D@std@@V?$allocator@D@2@@std@@H@std@@PAX@1@PBV?$_Tree_val@U?$_Tree_simple_types@U?$pair@$$CBV?$basic_string@DU?$char_traits@D@std@@V?$allocator@D@2@@std@@H@std@@@std@@@1@@Z 0044e920 f i CommonPathfindingLib:GraphicsBufferManager.obj
 0002:00024980       ??0?$_Tree_const_iterator@V?$_Tree_val@U?$_Tree_simple_types@U?$pair@$$CBV?$basic_string@DU?$char_traits@D@std@@V?$allocator@D@2@@std@@H@std@@@std@@@std@@@std@@QAE@XZ 0044e980 f i CommonPathfindingLib:GraphicsBufferManager.obj
 0002:000249e0       ??0?$_Tree_iterator@V?$_Tree_val@U?$_Tree_simple_types@U?$pair@$$CBHPAVGraphicsBuffer@@@std@@@std@@@std@@@std@@QAE@$$QAV01@@Z 0044e9e0 f i CommonPathfindingLib:GraphicsBufferManager.obj
 0002:00024a40       ??0?$_Tree_iterator@V?$_Tree_val@U?$_Tree_simple_types@U?$pair@$$CBHPAVGraphicsBuffer@@@std@@@std@@@std@@@std@@QAE@ABV01@@Z 0044ea40 f i CommonPathfindingLib:GraphicsBufferManager.obj
 0002:00024aa0       ??0?$_Tree_iterator@V?$_Tree_val@U?$_Tree_simple_types@U?$pair@$$CBHPAVGraphicsBuffer@@@std@@@std@@@std@@@std@@QAE@PAU?$_Tree_node@U?$pair@$$CBHPAVGraphicsBuffer@@@std@@PAX@1@PBV?$_Tree_val@U?$_Tree_simple_types@U?$pair@$$CBHPAVGraphicsBuffer@@@std@@@std@@@1@@Z 0044eaa0 f i CommonPathfindingLib:GraphicsBufferManager.obj
 0002:00024b00       ??0?$_Tree_iterator@V?$_Tree_val@U?$_Tree_simple_types@U?$pair@$$CBHPAVGraphicsBuffer@@@std@@@std@@@std@@@std@@QAE@XZ 0044eb00 f i CommonPathfindingLib:GraphicsBufferManager.obj
 0002:00024b60       ??0?$_Tree_iterator@V?$_Tree_val@U?$_Tree_simple_types@U?$pair@$$CBV?$basic_string@DU?$char_traits@D@std@@V?$allocator@D@2@@std@@H@std@@@std@@@std@@@std@@QAE@$$QAV01@@Z 0044eb60 f i CommonPathfindingLib:GraphicsBufferManager.obj
 0002:00024bc0       ??0?$_Tree_iterator@V?$_Tree_val@U?$_Tree_simple_types@U?$pair@$$CBV?$basic_string@DU?$char_traits@D@std@@V?$allocator@D@2@@std@@H@std@@@std@@@std@@@std@@QAE@ABV01@@Z 0044ebc0 f i CommonPathfindingLib:GraphicsBufferManager.obj
 0002:00024c20       ??0?$_Tree_iterator@V?$_Tree_val@U?$_Tree_simple_types@U?$pair@$$CBV?$basic_string@DU?$char_traits@D@std@@V?$allocator@D@2@@std@@H@std@@@std@@@std@@@std@@QAE@PAU?$_Tree_node@U?$pair@$$CBV?$basic_string@DU?$char_traits@D@std@@V?$allocator@D@2@@std@@H@std@@PAX@1@PBV?$_Tree_val@U?$_Tree_simple_types@U?$pair@$$CBV?$basic_string@DU?$char_traits@D@std@@V?$allocator@D@2@@std@@H@std@@@std@@@1@@Z 0044ec20 f i CommonPathfindingLib:GraphicsBufferManager.obj
 0002:00024c80       ??0?$_Tree_iterator@V?$_Tree_val@U?$_Tree_simple_types@U?$pair@$$CBV?$basic_string@DU?$char_traits@D@std@@V?$allocator@D@2@@std@@H@std@@@std@@@std@@@std@@QAE@XZ 0044ec80 f i CommonPathfindingLib:GraphicsBufferManager.obj
 0002:00024ce0       ??0?$_Tree_unchecked_const_iterator@V?$_Tree_val@U?$_Tree_simple_types@U?$pair@$$CBHPAVGraphicsBuffer@@@std@@@std@@@std@@U_Iterator_base12@2@@std@@QAE@$$QAV01@@Z 0044ece0 f i CommonPathfindingLib:GraphicsBufferManager.obj
 0002:00024d50       ??0?$_Tree_unchecked_const_iterator@V?$_Tree_val@U?$_Tree_simple_types@U?$pair@$$CBHPAVGraphicsBuffer@@@std@@@std@@@std@@U_Iterator_base12@2@@std@@QAE@ABV01@@Z 0044ed50 f i CommonPathfindingLib:GraphicsBufferManager.obj
 0002:00024dc0       ??0?$_Tree_unchecked_const_iterator@V?$_Tree_val@U?$_Tree_simple_types@U?$pair@$$CBHPAVGraphicsBuffer@@@std@@@std@@@std@@U_Iterator_base12@2@@std@@QAE@PAU?$_Tree_node@U?$pair@$$CBHPAVGraphicsBuffer@@@std@@PAX@1@PBV?$_Tree_val@U?$_Tree_simple_types@U?$pair@$$CBHPAVGraphicsBuffer@@@std@@@std@@@1@@Z 0044edc0 f i CommonPathfindingLib:GraphicsBufferManager.obj
 0002:00024e80       ??0?$_Tree_unchecked_const_iterator@V?$_Tree_val@U?$_Tree_simple_types@U?$pair@$$CBHPAVGraphicsBuffer@@@std@@@std@@@std@@U_Iterator_base12@2@@std@@QAE@XZ 0044ee80 f i CommonPathfindingLib:GraphicsBufferManager.obj
 0002:00024ee0       ??0?$_Tree_unchecked_const_iterator@V?$_Tree_val@U?$_Tree_simple_types@U?$pair@$$CBV?$basic_string@DU?$char_traits@D@std@@V?$allocator@D@2@@std@@H@std@@@std@@@std@@U_Iterator_base12@2@@std@@QAE@$$QAV01@@Z 0044eee0 f i CommonPathfindingLib:GraphicsBufferManager.obj
 0002:00024f50       ??0?$_Tree_unchecked_const_iterator@V?$_Tree_val@U?$_Tree_simple_types@U?$pair@$$CBV?$basic_string@DU?$char_traits@D@std@@V?$allocator@D@2@@std@@H@std@@@std@@@std@@U_Iterator_base12@2@@std@@QAE@ABV01@@Z 0044ef50 f i CommonPathfindingLib:GraphicsBufferManager.obj
 0002:00024fc0       ??0?$_Tree_unchecked_const_iterator@V?$_Tree_val@U?$_Tree_simple_types@U?$pair@$$CBV?$basic_string@DU?$char_traits@D@std@@V?$allocator@D@2@@std@@H@std@@@std@@@std@@U_Iterator_base12@2@@std@@QAE@PAU?$_Tree_node@U?$pair@$$CBV?$basic_string@DU?$char_traits@D@std@@V?$allocator@D@2@@std@@H@std@@PAX@1@PBV?$_Tree_val@U?$_Tree_simple_types@U?$pair@$$CBV?$basic_string@DU?$char_traits@D@std@@V?$allocator@D@2@@std@@H@std@@@std@@@1@@Z 0044efc0 f i CommonPathfindingLib:GraphicsBufferManager.obj
 0002:00025080       ??0?$_Tree_unchecked_const_iterator@V?$_Tree_val@U?$_Tree_simple_types@U?$pair@$$CBV?$basic_string@DU?$char_traits@D@std@@V?$allocator@D@2@@std@@H@std@@@std@@@std@@U_Iterator_base12@2@@std@@QAE@XZ 0044f080 f i CommonPathfindingLib:GraphicsBufferManager.obj
 0002:000250e0       ??0?$_Tree_val@U?$_Tree_simple_types@U?$pair@$$CBHPAVGraphicsBuffer@@@std@@@std@@@std@@QAE@XZ 0044f0e0 f i CommonPathfindingLib:GraphicsBufferManager.obj
 0002:00025150       ??0?$_Tree_val@U?$_Tree_simple_types@U?$pair@$$CBV?$basic_string@DU?$char_traits@D@std@@V?$allocator@D@2@@std@@H@std@@@std@@@std@@QAE@XZ 0044f150 f i CommonPathfindingLib:GraphicsBufferManager.obj
 0002:000251c0       ??0?$_Wrap_alloc@V?$allocator@U?$_Tree_node@U?$pair@$$CBHPAVGraphicsBuffer@@@std@@PAX@std@@@std@@@std@@QAE@XZ 0044f1c0 f i CommonPathfindingLib:GraphicsBufferManager.obj
 0002:00025220       ??0?$_Wrap_alloc@V?$allocator@U?$_Tree_node@U?$pair@$$CBV?$basic_string@DU?$char_traits@D@std@@V?$allocator@D@2@@std@@H@std@@PAX@std@@@std@@@std@@QAE@XZ 0044f220 f i CommonPathfindingLib:GraphicsBufferManager.obj
 0002:00025280       ??0?$allocator@U?$_Tree_node@U?$pair@$$CBHPAVGraphicsBuffer@@@std@@PAX@std@@@std@@QAE@XZ 0044f280 f i CommonPathfindingLib:GraphicsBufferManager.obj
 0002:000252c0       ??0?$allocator@U?$_Tree_node@U?$pair@$$CBV?$basic_string@DU?$char_traits@D@std@@V?$allocator@D@2@@std@@H@std@@PAX@std@@@std@@QAE@XZ 0044f2c0 f i CommonPathfindingLib:GraphicsBufferManager.obj
 0002:00025300       ??0?$basic_string@DU?$char_traits@D@std@@V?$allocator@D@2@@std@@QAE@ABV01@@Z 0044f300 f i CommonPathfindingLib:GraphicsBufferManager.obj
 0002:000253f0       ??0?$map@HPAVGraphicsBuffer@@U?$less@H@std@@V?$allocator@U?$pair@$$CBHPAVGraphicsBuffer@@@std@@@3@@std@@QAE@XZ 0044f3f0 f i CommonPathfindingLib:GraphicsBufferManager.obj
 0002:00025450       ??0?$map@V?$basic_string@DU?$char_traits@D@std@@V?$allocator@D@2@@std@@HU?$less@V?$basic_string@DU?$char_traits@D@std@@V?$allocator@D@2@@std@@@2@V?$allocator@U?$pair@$$CBV?$basic_string@DU?$char_traits@D@std@@V?$allocator@D@2@@std@@H@std@@@2@@std@@QAE@XZ 0044f450 f i CommonPathfindingLib:GraphicsBufferManager.obj
 0002:000254b0       ??0?$tuple@$$V@std@@QAE@ABV01@@Z 0044f4b0 f i CommonPathfindingLib:GraphicsBufferManager.obj
 0002:000254f0       ??0?$tuple@$$V@std@@QAE@XZ 0044f4f0 f i CommonPathfindingLib:GraphicsBufferManager.obj
 0002:00025530       ??0?$tuple@ABH@std@@QAE@$$QAV01@@Z 0044f530 f i CommonPathfindingLib:GraphicsBufferManager.obj
 0002:000255a0       ??0?$tuple@ABV?$basic_string@DU?$char_traits@D@std@@V?$allocator@D@2@@std@@@std@@QAE@$$QAV01@@Z 0044f5a0 f i CommonPathfindingLib:GraphicsBufferManager.obj
 0002:00025610       ??0GraphicsBufferManager@@QAE@XZ 0044f610 f   CommonPathfindingLib:GraphicsBufferManager.obj
 0002:000256c0       ??1?$_Compressed_pair@U?$_Wrap_alloc@V?$allocator@U?$_Tree_node@U?$pair@$$CBHPAVGraphicsBuffer@@@std@@PAX@std@@@std@@@std@@V?$_Tree_val@U?$_Tree_simple_types@U?$pair@$$CBHPAVGraphicsBuffer@@@std@@@std@@@2@$00@std@@QAE@XZ 0044f6c0 f i CommonPathfindingLib:GraphicsBufferManager.obj
 0002:00025710       ??1?$_Compressed_pair@U?$_Wrap_alloc@V?$allocator@U?$_Tree_node@U?$pair@$$CBV?$basic_string@DU?$char_traits@D@std@@V?$allocator@D@2@@std@@H@std@@PAX@std@@@std@@@std@@V?$_Tree_val@U?$_Tree_simple_types@U?$pair@$$CBV?$basic_string@DU?$char_traits@D@std@@V?$allocator@D@2@@std@@H@std@@@std@@@2@$00@std@@QAE@XZ 0044f710 f i CommonPathfindingLib:GraphicsBufferManager.obj
 0002:00025760       ??1?$_Compressed_pair@U?$less@H@std@@V?$_Compressed_pair@U?$_Wrap_alloc@V?$allocator@U?$_Tree_node@U?$pair@$$CBHPAVGraphicsBuffer@@@std@@PAX@std@@@std@@@std@@V?$_Tree_val@U?$_Tree_simple_types@U?$pair@$$CBHPAVGraphicsBuffer@@@std@@@std@@@2@$00@2@$00@std@@QAE@XZ 0044f760 f i CommonPathfindingLib:GraphicsBufferManager.obj
 0002:000257b0       ??1?$_Compressed_pair@U?$less@V?$basic_string@DU?$char_traits@D@std@@V?$allocator@D@2@@std@@@std@@V?$_Compressed_pair@U?$_Wrap_alloc@V?$allocator@U?$_Tree_node@U?$pair@$$CBV?$basic_string@DU?$char_traits@D@std@@V?$allocator@D@2@@std@@H@std@@PAX@std@@@std@@@std@@V?$_Tree_val@U?$_Tree_simple_types@U?$pair@$$CBV?$basic_string@DU?$char_traits@D@std@@V?$allocator@D@2@@std@@H@std@@@std@@@2@$00@2@$00@std@@QAE@XZ 0044f7b0 f i CommonPathfindingLib:GraphicsBufferManager.obj
 0002:00025800       ??1?$_Iterator012@Ubidirectional_iterator_tag@std@@U?$pair@$$CBHPAVGraphicsBuffer@@@2@HPBU32@ABU32@U_Iterator_base12@2@@std@@QAE@XZ 0044f800 f i CommonPathfindingLib:GraphicsBufferManager.obj
 0002:00025850       ??1?$_Iterator012@Ubidirectional_iterator_tag@std@@U?$pair@$$CBV?$basic_string@DU?$char_traits@D@std@@V?$allocator@D@2@@std@@H@2@HPBU32@ABU32@U_Iterator_base12@2@@std@@QAE@XZ 0044f850 f i CommonPathfindingLib:GraphicsBufferManager.obj
 0002:000258a0       ??1?$_Tree@V?$_Tmap_traits@HPAVGraphicsBuffer@@U?$less@H@std@@V?$allocator@U?$pair@$$CBHPAVGraphicsBuffer@@@std@@@3@$0A@@std@@@std@@QAE@XZ 0044f8a0 f i CommonPathfindingLib:GraphicsBufferManager.obj
 0002:00025930       ??1?$_Tree@V?$_Tmap_traits@V?$basic_string@DU?$char_traits@D@std@@V?$allocator@D@2@@std@@HU?$less@V?$basic_string@DU?$char_traits@D@std@@V?$allocator@D@2@@std@@@2@V?$allocator@U?$pair@$$CBV?$basic_string@DU?$char_traits@D@std@@V?$allocator@D@2@@std@@H@std@@@2@$0A@@std@@@std@@QAE@XZ 0044f930 f i CommonPathfindingLib:GraphicsBufferManager.obj
 0002:000259c0       ??1?$_Tree_comp_alloc@V?$_Tmap_traits@HPAVGraphicsBuffer@@U?$less@H@std@@V?$allocator@U?$pair@$$CBHPAVGraphicsBuffer@@@std@@@3@$0A@@std@@@std@@QAE@XZ 0044f9c0 f i CommonPathfindingLib:GraphicsBufferManager.obj
 0002:00025a70       ??1?$_Tree_comp_alloc@V?$_Tmap_traits@V?$basic_string@DU?$char_traits@D@std@@V?$allocator@D@2@@std@@HU?$less@V?$basic_string@DU?$char_traits@D@std@@V?$allocator@D@2@@std@@@2@V?$allocator@U?$pair@$$CBV?$basic_string@DU?$char_traits@D@std@@V?$allocator@D@2@@std@@H@std@@@2@$0A@@std@@@std@@QAE@XZ 0044fa70 f i CommonPathfindingLib:GraphicsBufferManager.obj
 0002:00025b20       ??1?$_Tree_const_iterator@V?$_Tree_val@U?$_Tree_simple_types@U?$pair@$$CBHPAVGraphicsBuffer@@@std@@@std@@@std@@@std@@QAE@XZ 0044fb20 f i CommonPathfindingLib:GraphicsBufferManager.obj
 0002:00025b70       ??1?$_Tree_const_iterator@V?$_Tree_val@U?$_Tree_simple_types@U?$pair@$$CBV?$basic_string@DU?$char_traits@D@std@@V?$allocator@D@2@@std@@H@std@@@std@@@std@@@std@@QAE@XZ 0044fb70 f i CommonPathfindingLib:GraphicsBufferManager.obj
 0002:00025bc0       ??1?$_Tree_iterator@V?$_Tree_val@U?$_Tree_simple_types@U?$pair@$$CBHPAVGraphicsBuffer@@@std@@@std@@@std@@@std@@QAE@XZ 0044fbc0 f i CommonPathfindingLib:GraphicsBufferManager.obj
 0002:00025c10       ??1?$_Tree_iterator@V?$_Tree_val@U?$_Tree_simple_types@U?$pair@$$CBV?$basic_string@DU?$char_traits@D@std@@V?$allocator@D@2@@std@@H@std@@@std@@@std@@@std@@QAE@XZ 0044fc10 f i CommonPathfindingLib:GraphicsBufferManager.obj
 0002:00025c60       ??1?$_Tree_unchecked_const_iterator@V?$_Tree_val@U?$_Tree_simple_types@U?$pair@$$CBHPAVGraphicsBuffer@@@std@@@std@@@std@@U_Iterator_base12@2@@std@@QAE@XZ 0044fc60 f i CommonPathfindingLib:GraphicsBufferManager.obj
 0002:00025cb0       ??1?$_Tree_unchecked_const_iterator@V?$_Tree_val@U?$_Tree_simple_types@U?$pair@$$CBV?$basic_string@DU?$char_traits@D@std@@V?$allocator@D@2@@std@@H@std@@@std@@@std@@U_Iterator_base12@2@@std@@QAE@XZ 0044fcb0 f i CommonPathfindingLib:GraphicsBufferManager.obj
 0002:00025d00       ??1?$_Tree_val@U?$_Tree_simple_types@U?$pair@$$CBHPAVGraphicsBuffer@@@std@@@std@@@std@@QAE@XZ 0044fd00 f i CommonPathfindingLib:GraphicsBufferManager.obj
 0002:00025d50       ??1?$_Tree_val@U?$_Tree_simple_types@U?$pair@$$CBV?$basic_string@DU?$char_traits@D@std@@V?$allocator@D@2@@std@@H@std@@@std@@@std@@QAE@XZ 0044fd50 f i CommonPathfindingLib:GraphicsBufferManager.obj
 0002:00025da0       ??1?$map@HPAVGraphicsBuffer@@U?$less@H@std@@V?$allocator@U?$pair@$$CBHPAVGraphicsBuffer@@@std@@@3@@std@@QAE@XZ 0044fda0 f i CommonPathfindingLib:GraphicsBufferManager.obj
 0002:00025df0       ??1?$map@V?$basic_string@DU?$char_traits@D@std@@V?$allocator@D@2@@std@@HU?$less@V?$basic_string@DU?$char_traits@D@std@@V?$allocator@D@2@@std@@@2@V?$allocator@U?$pair@$$CBV?$basic_string@DU?$char_traits@D@std@@V?$allocator@D@2@@std@@H@std@@@2@@std@@QAE@XZ 0044fdf0 f i CommonPathfindingLib:GraphicsBufferManager.obj
 0002:00025e40       ??1?$pair@$$CBV?$basic_string@DU?$char_traits@D@std@@V?$allocator@D@2@@std@@H@std@@QAE@XZ 0044fe40 f i CommonPathfindingLib:GraphicsBufferManager.obj
 0002:00025e90       ??1?$pair@V?$_Tree_iterator@V?$_Tree_val@U?$_Tree_simple_types@U?$pair@$$CBHPAVGraphicsBuffer@@@std@@@std@@@std@@@std@@_N@std@@QAE@XZ 0044fe90 f i CommonPathfindingLib:GraphicsBufferManager.obj
 0002:00025ee0       ??1?$pair@V?$_Tree_iterator@V?$_Tree_val@U?$_Tree_simple_types@U?$pair@$$CBV?$basic_string@DU?$char_traits@D@std@@V?$allocator@D@2@@std@@H@std@@@std@@@std@@@std@@_N@std@@QAE@XZ 0044fee0 f i CommonPathfindingLib:GraphicsBufferManager.obj
 0002:00025f30       ??1GraphicsBufferManager@@QAE@XZ 0044ff30 f   CommonPathfindingLib:GraphicsBufferManager.obj
 0002:00025fd0       ??3@YAXPAX0@Z              0044ffd0 f i CommonPathfindingLib:GraphicsBufferManager.obj
 0002:00026000       ??4?$_Iterator012@Ubidirectional_iterator_tag@std@@U?$pair@$$CBHPAVGraphicsBuffer@@@2@HPBU32@ABU32@U_Iterator_base12@2@@std@@QAEAAU01@$$QAU01@@Z 00450000 f i CommonPathfindingLib:GraphicsBufferManager.obj
 0002:00026060       ??4?$_Iterator012@Ubidirectional_iterator_tag@std@@U?$pair@$$CBHPAVGraphicsBuffer@@@2@HPBU32@ABU32@U_Iterator_base12@2@@std@@QAEAAU01@ABU01@@Z 00450060 f i CommonPathfindingLib:GraphicsBufferManager.obj
 0002:000260c0       ??4?$_Iterator012@Ubidirectional_iterator_tag@std@@U?$pair@$$CBV?$basic_string@DU?$char_traits@D@std@@V?$allocator@D@2@@std@@H@2@HPBU32@ABU32@U_Iterator_base12@2@@std@@QAEAAU01@$$QAU01@@Z 004500c0 f i CommonPathfindingLib:GraphicsBufferManager.obj
 0002:00026120       ??4?$_Iterator012@Ubidirectional_iterator_tag@std@@U?$pair@$$CBV?$basic_string@DU?$char_traits@D@std@@V?$allocator@D@2@@std@@H@2@HPBU32@ABU32@U_Iterator_base12@2@@std@@QAEAAU01@ABU01@@Z 00450120 f i CommonPathfindingLib:GraphicsBufferManager.obj
 0002:00026180       ??4?$_Tree_const_iterator@V?$_Tree_val@U?$_Tree_simple_types@U?$pair@$$CBHPAVGraphicsBuffer@@@std@@@std@@@std@@@std@@QAEAAV01@$$QAV01@@Z 00450180 f i CommonPathfindingLib:GraphicsBufferManager.obj
 0002:000261e0       ??4?$_Tree_const_iterator@V?$_Tree_val@U?$_Tree_simple_types@U?$pair@$$CBHPAVGraphicsBuffer@@@std@@@std@@@std@@@std@@QAEAAV01@ABV01@@Z 004501e0 f i CommonPathfindingLib:GraphicsBufferManager.obj
 0002:00026240       ??4?$_Tree_const_iterator@V?$_Tree_val@U?$_Tree_simple_types@U?$pair@$$CBV?$basic_string@DU?$char_traits@D@std@@V?$allocator@D@2@@std@@H@std@@@std@@@std@@@std@@QAEAAV01@$$QAV01@@Z 00450240 f i CommonPathfindingLib:GraphicsBufferManager.obj
 0002:000262a0       ??4?$_Tree_const_iterator@V?$_Tree_val@U?$_Tree_simple_types@U?$pair@$$CBV?$basic_string@DU?$char_traits@D@std@@V?$allocator@D@2@@std@@H@std@@@std@@@std@@@std@@QAEAAV01@ABV01@@Z 004502a0 f i CommonPathfindingLib:GraphicsBufferManager.obj
 0002:00026300       ??4?$_Tree_iterator@V?$_Tree_val@U?$_Tree_simple_types@U?$pair@$$CBHPAVGraphicsBuffer@@@std@@@std@@@std@@@std@@QAEAAV01@$$QAV01@@Z 00450300 f i CommonPathfindingLib:GraphicsBufferManager.obj
 0002:00026360       ??4?$_Tree_iterator@V?$_Tree_val@U?$_Tree_simple_types@U?$pair@$$CBV?$basic_string@DU?$char_traits@D@std@@V?$allocator@D@2@@std@@H@std@@@std@@@std@@@std@@QAEAAV01@$$QAV01@@Z 00450360 f i CommonPathfindingLib:GraphicsBufferManager.obj
 0002:000263c0       ??4?$_Tree_unchecked_const_iterator@V?$_Tree_val@U?$_Tree_simple_types@U?$pair@$$CBHPAVGraphicsBuffer@@@std@@@std@@@std@@U_Iterator_base12@2@@std@@QAEAAV01@$$QAV01@@Z 004503c0 f i CommonPathfindingLib:GraphicsBufferManager.obj
 0002:00026430       ??4?$_Tree_unchecked_const_iterator@V?$_Tree_val@U?$_Tree_simple_types@U?$pair@$$CBHPAVGraphicsBuffer@@@std@@@std@@@std@@U_Iterator_base12@2@@std@@QAEAAV01@ABV01@@Z 00450430 f i CommonPathfindingLib:GraphicsBufferManager.obj
 0002:000264a0       ??4?$_Tree_unchecked_const_iterator@V?$_Tree_val@U?$_Tree_simple_types@U?$pair@$$CBV?$basic_string@DU?$char_traits@D@std@@V?$allocator@D@2@@std@@H@std@@@std@@@std@@U_Iterator_base12@2@@std@@QAEAAV01@$$QAV01@@Z 004504a0 f i CommonPathfindingLib:GraphicsBufferManager.obj
 0002:00026510       ??4?$_Tree_unchecked_const_iterator@V?$_Tree_val@U?$_Tree_simple_types@U?$pair@$$CBV?$basic_string@DU?$char_traits@D@std@@V?$allocator@D@2@@std@@H@std@@@std@@@std@@U_Iterator_base12@2@@std@@QAEAAV01@ABV01@@Z 00450510 f i CommonPathfindingLib:GraphicsBufferManager.obj
 0002:00026580       ??8?$_Tree_const_iterator@V?$_Tree_val@U?$_Tree_simple_types@U?$pair@$$CBHPAVGraphicsBuffer@@@std@@@std@@@std@@@std@@QBE_NABV01@@Z 00450580 f i CommonPathfindingLib:GraphicsBufferManager.obj
 0002:000266d0       ??8?$_Tree_const_iterator@V?$_Tree_val@U?$_Tree_simple_types@U?$pair@$$CBV?$basic_string@DU?$char_traits@D@std@@V?$allocator@D@2@@std@@H@std@@@std@@@std@@@std@@QBE_NABV01@@Z 004506d0 f i CommonPathfindingLib:GraphicsBufferManager.obj
 0002:00026820       ??9?$_Tree_const_iterator@V?$_Tree_val@U?$_Tree_simple_types@U?$pair@$$CBHPAVGraphicsBuffer@@@std@@@std@@@std@@@std@@QBE_NABV01@@Z 00450820 f i CommonPathfindingLib:GraphicsBufferManager.obj
 0002:000268b0       ??9?$_Tree_const_iterator@V?$_Tree_val@U?$_Tree_simple_types@U?$pair@$$CBV?$basic_string@DU?$char_traits@D@std@@V?$allocator@D@2@@std@@H@std@@@std@@@std@@@std@@QBE_NABV01@@Z 004508b0 f i CommonPathfindingLib:GraphicsBufferManager.obj
 0002:00026940       ??A?$map@HPAVGraphicsBuffer@@U?$less@H@std@@V?$allocator@U?$pair@$$CBHPAVGraphicsBuffer@@@std@@@3@@std@@QAEAAPAVGraphicsBuffer@@ABH@Z 00450940 f i CommonPathfindingLib:GraphicsBufferManager.obj
 0002:00026a30       ??A?$map@V?$basic_string@DU?$char_traits@D@std@@V?$allocator@D@2@@std@@HU?$less@V?$basic_string@DU?$char_traits@D@std@@V?$allocator@D@2@@std@@@2@V?$allocator@U?$pair@$$CBV?$basic_string@DU?$char_traits@D@std@@V?$allocator@D@2@@std@@H@std@@@2@@std@@QAEAAHABV?$basic_string@DU?$char_traits@D@std@@V?$allocator@D@2@@1@@Z 00450a30 f i CommonPathfindingLib:GraphicsBufferManager.obj
 0002:00026b20       ??C?$_Tree_iterator@V?$_Tree_val@U?$_Tree_simple_types@U?$pair@$$CBHPAVGraphicsBuffer@@@std@@@std@@@std@@@std@@QBEPAU?$pair@$$CBHPAVGraphicsBuffer@@@1@XZ 00450b20 f i CommonPathfindingLib:GraphicsBufferManager.obj
 0002:00026b80       ??C?$_Tree_iterator@V?$_Tree_val@U?$_Tree_simple_types@U?$pair@$$CBV?$basic_string@DU?$char_traits@D@std@@V?$allocator@D@2@@std@@H@std@@@std@@@std@@@std@@QBEPAU?$pair@$$CBV?$basic_string@DU?$char_traits@D@std@@V?$allocator@D@2@@std@@H@1@XZ 00450b80 f i CommonPathfindingLib:GraphicsBufferManager.obj
 0002:00026be0       ??D?$_Tree_const_iterator@V?$_Tree_val@U?$_Tree_simple_types@U?$pair@$$CBHPAVGraphicsBuffer@@@std@@@std@@@std@@@std@@QBEABU?$pair@$$CBHPAVGraphicsBuffer@@@1@XZ 00450be0 f i CommonPathfindingLib:GraphicsBufferManager.obj
 0002:00026d20       ??D?$_Tree_const_iterator@V?$_Tree_val@U?$_Tree_simple_types@U?$pair@$$CBV?$basic_string@DU?$char_traits@D@std@@V?$allocator@D@2@@std@@H@std@@@std@@@std@@@std@@QBEABU?$pair@$$CBV?$basic_string@DU?$char_traits@D@std@@V?$allocator@D@2@@std@@H@1@XZ 00450d20 f i CommonPathfindingLib:GraphicsBufferManager.obj
 0002:00026e60       ??D?$_Tree_iterator@V?$_Tree_val@U?$_Tree_simple_types@U?$pair@$$CBHPAVGraphicsBuffer@@@std@@@std@@@std@@@std@@QBEAAU?$pair@$$CBHPAVGraphicsBuffer@@@1@XZ 00450e60 f i CommonPathfindingLib:GraphicsBufferManager.obj
 0002:00026eb0       ??D?$_Tree_iterator@V?$_Tree_val@U?$_Tree_simple_types@U?$pair@$$CBV?$basic_string@DU?$char_traits@D@std@@V?$allocator@D@2@@std@@H@std@@@std@@@std@@@std@@QBEAAU?$pair@$$CBV?$basic_string@DU?$char_traits@D@std@@V?$allocator@D@2@@std@@H@1@XZ 00450eb0 f i CommonPathfindingLib:GraphicsBufferManager.obj
 0002:00026f00       ??E?$_Tree_const_iterator@V?$_Tree_val@U?$_Tree_simple_types@U?$pair@$$CBHPAVGraphicsBuffer@@@std@@@std@@@std@@@std@@QAE?AV01@H@Z 00450f00 f i CommonPathfindingLib:GraphicsBufferManager.obj
 0002:00027020       ??E?$_Tree_const_iterator@V?$_Tree_val@U?$_Tree_simple_types@U?$pair@$$CBHPAVGraphicsBuffer@@@std@@@std@@@std@@@std@@QAEAAV01@XZ 00451020 f i CommonPathfindingLib:GraphicsBufferManager.obj
 0002:00027160       ??E?$_Tree_const_iterator@V?$_Tree_val@U?$_Tree_simple_types@U?$pair@$$CBV?$basic_string@DU?$char_traits@D@std@@V?$allocator@D@2@@std@@H@std@@@std@@@std@@@std@@QAE?AV01@H@Z 00451160 f i CommonPathfindingLib:GraphicsBufferManager.obj
 0002:00027280       ??E?$_Tree_const_iterator@V?$_Tree_val@U?$_Tree_simple_types@U?$pair@$$CBV?$basic_string@DU?$char_traits@D@std@@V?$allocator@D@2@@std@@H@std@@@std@@@std@@@std@@QAEAAV01@XZ 00451280 f i CommonPathfindingLib:GraphicsBufferManager.obj
 0002:000273c0       ??E?$_Tree_iterator@V?$_Tree_val@U?$_Tree_simple_types@U?$pair@$$CBHPAVGraphicsBuffer@@@std@@@std@@@std@@@std@@QAEAAV01@XZ 004513c0 f i CommonPathfindingLib:GraphicsBufferManager.obj
 0002:00027420       ??E?$_Tree_iterator@V?$_Tree_val@U?$_Tree_simple_types@U?$pair@$$CBV?$basic_string@DU?$char_traits@D@std@@V?$allocator@D@2@@std@@H@std@@@std@@@std@@@std@@QAEAAV01@XZ 00451420 f i CommonPathfindingLib:GraphicsBufferManager.obj
 0002:00027480       ??E?$_Tree_unchecked_const_iterator@V?$_Tree_val@U?$_Tree_simple_types@U?$pair@$$CBHPAVGraphicsBuffer@@@std@@@std@@@std@@U_Iterator_base12@2@@std@@QAEAAV01@XZ 00451480 f i CommonPathfindingLib:GraphicsBufferManager.obj
 0002:000275b0       ??E?$_Tree_unchecked_const_iterator@V?$_Tree_val@U?$_Tree_simple_types@U?$pair@$$CBV?$basic_string@DU?$char_traits@D@std@@V?$allocator@D@2@@std@@H@std@@@std@@@std@@U_Iterator_base12@2@@std@@QAEAAV01@XZ 004515b0 f i CommonPathfindingLib:GraphicsBufferManager.obj
 0002:000276e0       ??F?$_Tree_const_iterator@V?$_Tree_val@U?$_Tree_simple_types@U?$pair@$$CBHPAVGraphicsBuffer@@@std@@@std@@@std@@@std@@QAEAAV01@XZ 004516e0 f i CommonPathfindingLib:GraphicsBufferManager.obj
 0002:000278c0       ??F?$_Tree_const_iterator@V?$_Tree_val@U?$_Tree_simple_types@U?$pair@$$CBV?$basic_string@DU?$char_traits@D@std@@V?$allocator@D@2@@std@@H@std@@@std@@@std@@@std@@QAEAAV01@XZ 004518c0 f i CommonPathfindingLib:GraphicsBufferManager.obj
 0002:00027aa0       ??F?$_Tree_iterator@V?$_Tree_val@U?$_Tree_simple_types@U?$pair@$$CBHPAVGraphicsBuffer@@@std@@@std@@@std@@@std@@QAEAAV01@XZ 00451aa0 f i CommonPathfindingLib:GraphicsBufferManager.obj
 0002:00027b00       ??F?$_Tree_iterator@V?$_Tree_val@U?$_Tree_simple_types@U?$pair@$$CBV?$basic_string@DU?$char_traits@D@std@@V?$allocator@D@2@@std@@H@std@@@std@@@std@@@std@@QAEAAV01@XZ 00451b00 f i CommonPathfindingLib:GraphicsBufferManager.obj
 0002:00027b60       ??F?$_Tree_unchecked_const_iterator@V?$_Tree_val@U?$_Tree_simple_types@U?$pair@$$CBHPAVGraphicsBuffer@@@std@@@std@@@std@@U_Iterator_base12@2@@std@@QAEAAV01@XZ 00451b60 f i CommonPathfindingLib:GraphicsBufferManager.obj
 0002:00027cc0       ??F?$_Tree_unchecked_const_iterator@V?$_Tree_val@U?$_Tree_simple_types@U?$pair@$$CBV?$basic_string@DU?$char_traits@D@std@@V?$allocator@D@2@@std@@H@std@@@std@@@std@@U_Iterator_base12@2@@std@@QAEAAV01@XZ 00451cc0 f i CommonPathfindingLib:GraphicsBufferManager.obj
 0002:00027e20       ??R?$less@H@std@@QBE_NABH0@Z 00451e20 f i CommonPathfindingLib:GraphicsBufferManager.obj
 0002:00027e90       ??R?$less@V?$basic_string@DU?$char_traits@D@std@@V?$allocator@D@2@@std@@@std@@QBE_NABV?$basic_string@DU?$char_traits@D@std@@V?$allocator@D@2@@1@0@Z 00451e90 f i CommonPathfindingLib:GraphicsBufferManager.obj
 0002:00027ef0       ??_G?$pair@$$CBV?$basic_string@DU?$char_traits@D@std@@V?$allocator@D@2@@std@@H@std@@QAEPAXI@Z 00451ef0 f i CommonPathfindingLib:GraphicsBufferManager.obj
 0002:00027f60       ??_GGraphicsBuffer@@QAEPAXI@Z 00451f60 f i CommonPathfindingLib:GraphicsBufferManager.obj
 0002:00027ff0       ?_Alloc_proxy@?$_Tree_comp_alloc@V?$_Tmap_traits@HPAVGraphicsBuffer@@U?$less@H@std@@V?$allocator@U?$pair@$$CBHPAVGraphicsBuffer@@@std@@@3@$0A@@std@@@std@@QAEXXZ 00451ff0 f i CommonPathfindingLib:GraphicsBufferManager.obj
 0002:000280f0       ?_Alloc_proxy@?$_Tree_comp_alloc@V?$_Tmap_traits@V?$basic_string@DU?$char_traits@D@std@@V?$allocator@D@2@@std@@HU?$less@V?$basic_string@DU?$char_traits@D@std@@V?$allocator@D@2@@std@@@2@V?$allocator@U?$pair@$$CBV?$basic_string@DU?$char_traits@D@std@@V?$allocator@D@2@@std@@H@std@@@2@$0A@@std@@@std@@QAEXXZ 004520f0 f i CommonPathfindingLib:GraphicsBufferManager.obj
 0002:000281f0       ?_Buyheadnode@?$_Tree_comp_alloc@V?$_Tmap_traits@HPAVGraphicsBuffer@@U?$less@H@std@@V?$allocator@U?$pair@$$CBHPAVGraphicsBuffer@@@std@@@3@$0A@@std@@@std@@QAEPAU?$_Tree_node@U?$pair@$$CBHPAVGraphicsBuffer@@@std@@PAX@2@XZ 004521f0 f i CommonPathfindingLib:GraphicsBufferManager.obj
 0002:00028400       ?_Buyheadnode@?$_Tree_comp_alloc@V?$_Tmap_traits@V?$basic_string@DU?$char_traits@D@std@@V?$allocator@D@2@@std@@HU?$less@V?$basic_string@DU?$char_traits@D@std@@V?$allocator@D@2@@std@@@2@V?$allocator@U?$pair@$$CBV?$basic_string@DU?$char_traits@D@std@@V?$allocator@D@2@@std@@H@std@@@2@$0A@@std@@@std@@QAEPAU?$_Tree_node@U?$pair@$$CBV?$basic_string@DU?$char_traits@D@std@@V?$allocator@D@2@@std@@H@std@@PAX@2@XZ 00452400 f i CommonPathfindingLib:GraphicsBufferManager.obj
 0002:00028610       ?_Buynode0@?$_Tree_comp_alloc@V?$_Tmap_traits@HPAVGraphicsBuffer@@U?$less@H@std@@V?$allocator@U?$pair@$$CBHPAVGraphicsBuffer@@@std@@@3@$0A@@std@@@std@@QAEPAU?$_Tree_node@U?$pair@$$CBHPAVGraphicsBuffer@@@std@@PAX@2@XZ 00452610 f i CommonPathfindingLib:GraphicsBufferManager.obj
 0002:000287d0       ?_Buynode0@?$_Tree_comp_alloc@V?$_Tmap_traits@V?$basic_string@DU?$char_traits@D@std@@V?$allocator@D@2@@std@@HU?$less@V?$basic_string@DU?$char_traits@D@std@@V?$allocator@D@2@@std@@@2@V?$allocator@U?$pair@$$CBV?$basic_string@DU?$char_traits@D@std@@V?$allocator@D@2@@std@@H@std@@@2@$0A@@std@@@std@@QAEPAU?$_Tree_node@U?$pair@$$CBV?$basic_string@DU?$char_traits@D@std@@V?$allocator@D@2@@std@@H@std@@PAX@2@XZ 004527d0 f i CommonPathfindingLib:GraphicsBufferManager.obj
 0002:00028990       ?_Color@?$_Tree_comp_alloc@V?$_Tmap_traits@HPAVGraphicsBuffer@@U?$less@H@std@@V?$allocator@U?$pair@$$CBHPAVGraphicsBuffer@@@std@@@3@$0A@@std@@@std@@SAAADPAU?$_Tree_node@U?$pair@$$CBHPAVGraphicsBuffer@@@std@@PAX@2@@Z 00452990 f i CommonPathfindingLib:GraphicsBufferManager.obj
 0002:000289e0       ?_Color@?$_Tree_comp_alloc@V?$_Tmap_traits@V?$basic_string@DU?$char_traits@D@std@@V?$allocator@D@2@@std@@HU?$less@V?$basic_string@DU?$char_traits@D@std@@V?$allocator@D@2@@std@@@2@V?$allocator@U?$pair@$$CBV?$basic_string@DU?$char_traits@D@std@@V?$allocator@D@2@@std@@H@std@@@2@$0A@@std@@@std@@SAAADPAU?$_Tree_node@U?$pair@$$CBV?$basic_string@DU?$char_traits@D@std@@V?$allocator@D@2@@std@@H@std@@PAX@2@@Z 004529e0 f i CommonPathfindingLib:GraphicsBufferManager.obj
 0002:00028a30       ?_Color@?$_Tree_val@U?$_Tree_simple_types@U?$pair@$$CBHPAVGraphicsBuffer@@@std@@@std@@@std@@SAAADPAU?$_Tree_node@U?$pair@$$CBHPAVGraphicsBuffer@@@std@@PAX@2@@Z 00452a30 f i CommonPathfindingLib:GraphicsBufferManager.obj
 0002:00028a70       ?_Color@?$_Tree_val@U?$_Tree_simple_types@U?$pair@$$CBV?$basic_string@DU?$char_traits@D@std@@V?$allocator@D@2@@std@@H@std@@@std@@@std@@SAAADPAU?$_Tree_node@U?$pair@$$CBV?$basic_string@DU?$char_traits@D@std@@V?$allocator@D@2@@std@@H@std@@PAX@2@@Z 00452a70 f i CommonPathfindingLib:GraphicsBufferManager.obj
 0002:00028ab0       ?_Compare@?$_Tree@V?$_Tmap_traits@HPAVGraphicsBuffer@@U?$less@H@std@@V?$allocator@U?$pair@$$CBHPAVGraphicsBuffer@@@std@@@3@$0A@@std@@@std@@IBE_NABH0@Z 00452ab0 f i CommonPathfindingLib:GraphicsBufferManager.obj
 0002:00028b30       ?_Compare@?$_Tree@V?$_Tmap_traits@V?$basic_string@DU?$char_traits@D@std@@V?$allocator@D@2@@std@@HU?$less@V?$basic_string@DU?$char_traits@D@std@@V?$allocator@D@2@@std@@@2@V?$allocator@U?$pair@$$CBV?$basic_string@DU?$char_traits@D@std@@V?$allocator@D@2@@std@@H@std@@@2@$0A@@std@@@std@@IBE_NABV?$basic_string@DU?$char_traits@D@std@@V?$allocator@D@2@@2@0@Z 00452b30 f i CommonPathfindingLib:GraphicsBufferManager.obj
 0002:00028bb0       ?_Construct@?$_Tree_comp_alloc@V?$_Tmap_traits@HPAVGraphicsBuffer@@U?$less@H@std@@V?$allocator@U?$pair@$$CBHPAVGraphicsBuffer@@@std@@@3@$0A@@std@@@std@@QAEXXZ 00452bb0 f i CommonPathfindingLib:GraphicsBufferManager.obj
 0002:00028ca0       ?_Construct@?$_Tree_comp_alloc@V?$_Tmap_traits@V?$basic_string@DU?$char_traits@D@std@@V?$allocator@D@2@@std@@HU?$less@V?$basic_string@DU?$char_traits@D@std@@V?$allocator@D@2@@std@@@2@V?$allocator@U?$pair@$$CBV?$basic_string@DU?$char_traits@D@std@@V?$allocator@D@2@@std@@H@std@@@2@$0A@@std@@@std@@QAEXXZ 00452ca0 f i CommonPathfindingLib:GraphicsBufferManager.obj
 0002:00028d90       ?_Destroy_if_not_nil@?$_Tree@V?$_Tmap_traits@HPAVGraphicsBuffer@@U?$less@H@std@@V?$allocator@U?$pair@$$CBHPAVGraphicsBuffer@@@std@@@3@$0A@@std@@@std@@IAEXPAU?$_Tree_node@U?$pair@$$CBHPAVGraphicsBuffer@@@std@@PAX@2@@Z 00452d90 f i CommonPathfindingLib:GraphicsBufferManager.obj
 0002:00028e20       ?_Destroy_if_not_nil@?$_Tree@V?$_Tmap_traits@V?$basic_string@DU?$char_traits@D@std@@V?$allocator@D@2@@std@@HU?$less@V?$basic_string@DU?$char_traits@D@std@@V?$allocator@D@2@@std@@@2@V?$allocator@U?$pair@$$CBV?$basic_string@DU?$char_traits@D@std@@V?$allocator@D@2@@std@@H@std@@@2@$0A@@std@@@std@@IAEXPAU?$_Tree_node@U?$pair@$$CBV?$basic_string@DU?$char_traits@D@std@@V?$allocator@D@2@@std@@H@std@@PAX@2@@Z 00452e20 f i CommonPathfindingLib:GraphicsBufferManager.obj
 0002:00028eb0       ?_Erase@?$_Tree@V?$_Tmap_traits@HPAVGraphicsBuffer@@U?$less@H@std@@V?$allocator@U?$pair@$$CBHPAVGraphicsBuffer@@@std@@@3@$0A@@std@@@std@@IAEXPAU?$_Tree_node@U?$pair@$$CBHPAVGraphicsBuffer@@@std@@PAX@2@@Z 00452eb0 f i CommonPathfindingLib:GraphicsBufferManager.obj
 0002:00028fa0       ?_Erase@?$_Tree@V?$_Tmap_traits@V?$basic_string@DU?$char_traits@D@std@@V?$allocator@D@2@@std@@HU?$less@V?$basic_string@DU?$char_traits@D@std@@V?$allocator@D@2@@std@@@2@V?$allocator@U?$pair@$$CBV?$basic_string@DU?$char_traits@D@std@@V?$allocator@D@2@@std@@H@std@@@2@$0A@@std@@@std@@IAEXPAU?$_Tree_node@U?$pair@$$CBV?$basic_string@DU?$char_traits@D@std@@V?$allocator@D@2@@std@@H@std@@PAX@2@@Z 00452fa0 f i CommonPathfindingLib:GraphicsBufferManager.obj
 0002:00029090       ?_Free_proxy@?$_Tree_comp_alloc@V?$_Tmap_traits@HPAVGraphicsBuffer@@U?$less@H@std@@V?$allocator@U?$pair@$$CBHPAVGraphicsBuffer@@@std@@@3@$0A@@std@@@std@@QAEXXZ 00453090 f i CommonPathfindingLib:GraphicsBufferManager.obj
 0002:00029180       ?_Free_proxy@?$_Tree_comp_alloc@V?$_Tmap_traits@V?$basic_string@DU?$char_traits@D@std@@V?$allocator@D@2@@std@@HU?$less@V?$basic_string@DU?$char_traits@D@std@@V?$allocator@D@2@@std@@@2@V?$allocator@U?$pair@$$CBV?$basic_string@DU?$char_traits@D@std@@V?$allocator@D@2@@std@@H@std@@@2@$0A@@std@@@std@@QAEXXZ 00453180 f i CommonPathfindingLib:GraphicsBufferManager.obj
 0002:00029270       ?_Freeheadnode@?$_Tree_comp_alloc@V?$_Tmap_traits@HPAVGraphicsBuffer@@U?$less@H@std@@V?$allocator@U?$pair@$$CBHPAVGraphicsBuffer@@@std@@@3@$0A@@std@@@std@@QAEXPAU?$_Tree_node@U?$pair@$$CBHPAVGraphicsBuffer@@@std@@PAX@2@@Z 00453270 f i CommonPathfindingLib:GraphicsBufferManager.obj
 0002:00029360       ?_Freeheadnode@?$_Tree_comp_alloc@V?$_Tmap_traits@V?$basic_string@DU?$char_traits@D@std@@V?$allocator@D@2@@std@@HU?$less@V?$basic_string@DU?$char_traits@D@std@@V?$allocator@D@2@@std@@@2@V?$allocator@U?$pair@$$CBV?$basic_string@DU?$char_traits@D@std@@V?$allocator@D@2@@std@@H@std@@@2@$0A@@std@@@std@@QAEXPAU?$_Tree_node@U?$pair@$$CBV?$basic_string@DU?$char_traits@D@std@@V?$allocator@D@2@@std@@H@std@@PAX@2@@Z 00453360 f i CommonPathfindingLib:GraphicsBufferManager.obj
 0002:00029450       ?_Freenode0@?$_Tree_comp_alloc@V?$_Tmap_traits@HPAVGraphicsBuffer@@U?$less@H@std@@V?$allocator@U?$pair@$$CBHPAVGraphicsBuffer@@@std@@@3@$0A@@std@@@std@@QAEXPAU?$_Tree_node@U?$pair@$$CBHPAVGraphicsBuffer@@@std@@PAX@2@@Z 00453450 f i CommonPathfindingLib:GraphicsBufferManager.obj
 0002:00029540       ?_Freenode0@?$_Tree_comp_alloc@V?$_Tmap_traits@V?$basic_string@DU?$char_traits@D@std@@V?$allocator@D@2@@std@@HU?$less@V?$basic_string@DU?$char_traits@D@std@@V?$allocator@D@2@@std@@@2@V?$allocator@U?$pair@$$CBV?$basic_string@DU?$char_traits@D@std@@V?$allocator@D@2@@std@@H@std@@@2@$0A@@std@@@std@@QAEXPAU?$_Tree_node@U?$pair@$$CBV?$basic_string@DU?$char_traits@D@std@@V?$allocator@D@2@@std@@H@std@@PAX@2@@Z 00453540 f i CommonPathfindingLib:GraphicsBufferManager.obj
 0002:00029630       ?_Get_data@?$_Tree_comp_alloc@V?$_Tmap_traits@HPAVGraphicsBuffer@@U?$less@H@std@@V?$allocator@U?$pair@$$CBHPAVGraphicsBuffer@@@std@@@3@$0A@@std@@@std@@QAEAAV?$_Tree_val@U?$_Tree_simple_types@U?$pair@$$CBHPAVGraphicsBuffer@@@std@@@std@@@2@XZ 00453630 f i CommonPathfindingLib:GraphicsBufferManager.obj
 0002:00029690       ?_Get_data@?$_Tree_comp_alloc@V?$_Tmap_traits@HPAVGraphicsBuffer@@U?$less@H@std@@V?$allocator@U?$pair@$$CBHPAVGraphicsBuffer@@@std@@@3@$0A@@std@@@std@@QBEABV?$_Tree_val@U?$_Tree_simple_types@U?$pair@$$CBHPAVGraphicsBuffer@@@std@@@std@@@2@XZ 00453690 f i CommonPathfindingLib:GraphicsBufferManager.obj
 0002:000296f0       ?_Get_data@?$_Tree_comp_alloc@V?$_Tmap_traits@V?$basic_string@DU?$char_traits@D@std@@V?$allocator@D@2@@std@@HU?$less@V?$basic_string@DU?$char_traits@D@std@@V?$allocator@D@2@@std@@@2@V?$allocator@U?$pair@$$CBV?$basic_string@DU?$char_traits@D@std@@V?$allocator@D@2@@std@@H@std@@@2@$0A@@std@@@std@@QAEAAV?$_Tree_val@U?$_Tree_simple_types@U?$pair@$$CBV?$basic_string@DU?$char_traits@D@std@@V?$allocator@D@2@@std@@H@std@@@std@@@2@XZ 004536f0 f i CommonPathfindingLib:GraphicsBufferManager.obj
 0002:00029750       ?_Get_data@?$_Tree_comp_alloc@V?$_Tmap_traits@V?$basic_string@DU?$char_traits@D@std@@V?$allocator@D@2@@std@@HU?$less@V?$basic_string@DU?$char_traits@D@std@@V?$allocator@D@2@@std@@@2@V?$allocator@U?$pair@$$CBV?$basic_string@DU?$char_traits@D@std@@V?$allocator@D@2@@std@@H@std@@@2@$0A@@std@@@std@@QBEABV?$_Tree_val@U?$_Tree_simple_types@U?$pair@$$CBV?$basic_string@DU?$char_traits@D@std@@V?$allocator@D@2@@std@@H@std@@@std@@@2@XZ 00453750 f i CommonPathfindingLib:GraphicsBufferManager.obj
 0002:000297b0       ?_Get_first@?$_Compressed_pair@U?$_Wrap_alloc@V?$allocator@U?$_Tree_node@U?$pair@$$CBHPAVGraphicsBuffer@@@std@@PAX@std@@@std@@@std@@V?$_Tree_val@U?$_Tree_simple_types@U?$pair@$$CBHPAVGraphicsBuffer@@@std@@@std@@@2@$00@std@@QAEAAU?$_Wrap_alloc@V?$allocator@U?$_Tree_node@U?$pair@$$CBHPAVGraphicsBuffer@@@std@@PAX@std@@@std@@@2@XZ 004537b0 f i CommonPathfindingLib:GraphicsBufferManager.obj
 0002:000297f0       ?_Get_first@?$_Compressed_pair@U?$_Wrap_alloc@V?$allocator@U?$_Tree_node@U?$pair@$$CBHPAVGraphicsBuffer@@@std@@PAX@std@@@std@@@std@@V?$_Tree_val@U?$_Tree_simple_types@U?$pair@$$CBHPAVGraphicsBuffer@@@std@@@std@@@2@$00@std@@QBEABU?$_Wrap_alloc@V?$allocator@U?$_Tree_node@U?$pair@$$CBHPAVGraphicsBuffer@@@std@@PAX@std@@@std@@@2@XZ 004537f0 f i CommonPathfindingLib:GraphicsBufferManager.obj
 0002:00029830       ?_Get_first@?$_Compressed_pair@U?$_Wrap_alloc@V?$allocator@U?$_Tree_node@U?$pair@$$CBV?$basic_string@DU?$char_traits@D@std@@V?$allocator@D@2@@std@@H@std@@PAX@std@@@std@@@std@@V?$_Tree_val@U?$_Tree_simple_types@U?$pair@$$CBV?$basic_string@DU?$char_traits@D@std@@V?$allocator@D@2@@std@@H@std@@@std@@@2@$00@std@@QAEAAU?$_Wrap_alloc@V?$allocator@U?$_Tree_node@U?$pair@$$CBV?$basic_string@DU?$char_traits@D@std@@V?$allocator@D@2@@std@@H@std@@PAX@std@@@std@@@2@XZ 00453830 f i CommonPathfindingLib:GraphicsBufferManager.obj
 0002:00029870       ?_Get_first@?$_Compressed_pair@U?$_Wrap_alloc@V?$allocator@U?$_Tree_node@U?$pair@$$CBV?$basic_string@DU?$char_traits@D@std@@V?$allocator@D@2@@std@@H@std@@PAX@std@@@std@@@std@@V?$_Tree_val@U?$_Tree_simple_types@U?$pair@$$CBV?$basic_string@DU?$char_traits@D@std@@V?$allocator@D@2@@std@@H@std@@@std@@@2@$00@std@@QBEABU?$_Wrap_alloc@V?$allocator@U?$_Tree_node@U?$pair@$$CBV?$basic_string@DU?$char_traits@D@std@@V?$allocator@D@2@@std@@H@std@@PAX@std@@@std@@@2@XZ 00453870 f i CommonPathfindingLib:GraphicsBufferManager.obj
 0002:000298b0       ?_Get_first@?$_Compressed_pair@U?$less@H@std@@V?$_Compressed_pair@U?$_Wrap_alloc@V?$allocator@U?$_Tree_node@U?$pair@$$CBHPAVGraphicsBuffer@@@std@@PAX@std@@@std@@@std@@V?$_Tree_val@U?$_Tree_simple_types@U?$pair@$$CBHPAVGraphicsBuffer@@@std@@@std@@@2@$00@2@$00@std@@QAEAAU?$less@H@2@XZ 004538b0 f i CommonPathfindingLib:GraphicsBufferManager.obj
 0002:000298f0       ?_Get_first@?$_Compressed_pair@U?$less@H@std@@V?$_Compressed_pair@U?$_Wrap_alloc@V?$allocator@U?$_Tree_node@U?$pair@$$CBHPAVGraphicsBuffer@@@std@@PAX@std@@@std@@@std@@V?$_Tree_val@U?$_Tree_simple_types@U?$pair@$$CBHPAVGraphicsBuffer@@@std@@@std@@@2@$00@2@$00@std@@QBEABU?$less@H@2@XZ 004538f0 f i CommonPathfindingLib:GraphicsBufferManager.obj
 0002:00029930       ?_Get_first@?$_Compressed_pair@U?$less@V?$basic_string@DU?$char_traits@D@std@@V?$allocator@D@2@@std@@@std@@V?$_Compressed_pair@U?$_Wrap_alloc@V?$allocator@U?$_Tree_node@U?$pair@$$CBV?$basic_string@DU?$char_traits@D@std@@V?$allocator@D@2@@std@@H@std@@PAX@std@@@std@@@std@@V?$_Tree_val@U?$_Tree_simple_types@U?$pair@$$CBV?$basic_string@DU?$char_traits@D@std@@V?$allocator@D@2@@std@@H@std@@@std@@@2@$00@2@$00@std@@QAEAAU?$less@V?$basic_string@DU?$char_traits@D@std@@V?$allocator@D@2@@std@@@2@XZ 00453930 f i CommonPathfindingLib:GraphicsBufferManager.obj
 0002:00029970       ?_Get_first@?$_Compressed_pair@U?$less@V?$basic_string@DU?$char_traits@D@std@@V?$allocator@D@2@@std@@@std@@V?$_Compressed_pair@U?$_Wrap_alloc@V?$allocator@U?$_Tree_node@U?$pair@$$CBV?$basic_string@DU?$char_traits@D@std@@V?$allocator@D@2@@std@@H@std@@PAX@std@@@std@@@std@@V?$_Tree_val@U?$_Tree_simple_types@U?$pair@$$CBV?$basic_string@DU?$char_traits@D@std@@V?$allocator@D@2@@std@@H@std@@@std@@@2@$00@2@$00@std@@QBEABU?$less@V?$basic_string@DU?$char_traits@D@std@@V?$allocator@D@2@@std@@@2@XZ 00453970 f i CommonPathfindingLib:GraphicsBufferManager.obj
 0002:000299b0       ?_Get_second@?$_Compressed_pair@U?$_Wrap_alloc@V?$allocator@U?$_Tree_node@U?$pair@$$CBHPAVGraphicsBuffer@@@std@@PAX@std@@@std@@@std@@V?$_Tree_val@U?$_Tree_simple_types@U?$pair@$$CBHPAVGraphicsBuffer@@@std@@@std@@@2@$00@std@@QAEAAV?$_Tree_val@U?$_Tree_simple_types@U?$pair@$$CBHPAVGraphicsBuffer@@@std@@@std@@@2@XZ 004539b0 f i CommonPathfindingLib:GraphicsBufferManager.obj
 0002:000299f0       ?_Get_second@?$_Compressed_pair@U?$_Wrap_alloc@V?$allocator@U?$_Tree_node@U?$pair@$$CBHPAVGraphicsBuffer@@@std@@PAX@std@@@std@@@std@@V?$_Tree_val@U?$_Tree_simple_types@U?$pair@$$CBHPAVGraphicsBuffer@@@std@@@std@@@2@$00@std@@QBEABV?$_Tree_val@U?$_Tree_simple_types@U?$pair@$$CBHPAVGraphicsBuffer@@@std@@@std@@@2@XZ 004539f0 f i CommonPathfindingLib:GraphicsBufferManager.obj
 0002:00029a30       ?_Get_second@?$_Compressed_pair@U?$_Wrap_alloc@V?$allocator@U?$_Tree_node@U?$pair@$$CBV?$basic_string@DU?$char_traits@D@std@@V?$allocator@D@2@@std@@H@std@@PAX@std@@@std@@@std@@V?$_Tree_val@U?$_Tree_simple_types@U?$pair@$$CBV?$basic_string@DU?$char_traits@D@std@@V?$allocator@D@2@@std@@H@std@@@std@@@2@$00@std@@QAEAAV?$_Tree_val@U?$_Tree_simple_types@U?$pair@$$CBV?$basic_string@DU?$char_traits@D@std@@V?$allocator@D@2@@std@@H@std@@@std@@@2@XZ 00453a30 f i CommonPathfindingLib:GraphicsBufferManager.obj
 0002:00029a70       ?_Get_second@?$_Compressed_pair@U?$_Wrap_alloc@V?$allocator@U?$_Tree_node@U?$pair@$$CBV?$basic_string@DU?$char_traits@D@std@@V?$allocator@D@2@@std@@H@std@@PAX@std@@@std@@@std@@V?$_Tree_val@U?$_Tree_simple_types@U?$pair@$$CBV?$basic_string@DU?$char_traits@D@std@@V?$allocator@D@2@@std@@H@std@@@std@@@2@$00@std@@QBEABV?$_Tree_val@U?$_Tree_simple_types@U?$pair@$$CBV?$basic_string@DU?$char_traits@D@std@@V?$allocator@D@2@@std@@H@std@@@std@@@2@XZ 00453a70 f i CommonPathfindingLib:GraphicsBufferManager.obj
 0002:00029ab0       ?_Get_second@?$_Compressed_pair@U?$less@H@std@@V?$_Compressed_pair@U?$_Wrap_alloc@V?$allocator@U?$_Tree_node@U?$pair@$$CBHPAVGraphicsBuffer@@@std@@PAX@std@@@std@@@std@@V?$_Tree_val@U?$_Tree_simple_types@U?$pair@$$CBHPAVGraphicsBuffer@@@std@@@std@@@2@$00@2@$00@std@@QAEAAV?$_Compressed_pair@U?$_Wrap_alloc@V?$allocator@U?$_Tree_node@U?$pair@$$CBHPAVGraphicsBuffer@@@std@@PAX@std@@@std@@@std@@V?$_Tree_val@U?$_Tree_simple_types@U?$pair@$$CBHPAVGraphicsBuffer@@@std@@@std@@@2@$00@2@XZ 00453ab0 f i CommonPathfindingLib:GraphicsBufferManager.obj
 0002:00029af0       ?_Get_second@?$_Compressed_pair@U?$less@H@std@@V?$_Compressed_pair@U?$_Wrap_alloc@V?$allocator@U?$_Tree_node@U?$pair@$$CBHPAVGraphicsBuffer@@@std@@PAX@std@@@std@@@std@@V?$_Tree_val@U?$_Tree_simple_types@U?$pair@$$CBHPAVGraphicsBuffer@@@std@@@std@@@2@$00@2@$00@std@@QBEABV?$_Compressed_pair@U?$_Wrap_alloc@V?$allocator@U?$_Tree_node@U?$pair@$$CBHPAVGraphicsBuffer@@@std@@PAX@std@@@std@@@std@@V?$_Tree_val@U?$_Tree_simple_types@U?$pair@$$CBHPAVGraphicsBuffer@@@std@@@std@@@2@$00@2@XZ 00453af0 f i CommonPathfindingLib:GraphicsBufferManager.obj
 0002:00029b30       ?_Get_second@?$_Compressed_pair@U?$less@V?$basic_string@DU?$char_traits@D@std@@V?$allocator@D@2@@std@@@std@@V?$_Compressed_pair@U?$_Wrap_alloc@V?$allocator@U?$_Tree_node@U?$pair@$$CBV?$basic_string@DU?$char_traits@D@std@@V?$allocator@D@2@@std@@H@std@@PAX@std@@@std@@@std@@V?$_Tree_val@U?$_Tree_simple_types@U?$pair@$$CBV?$basic_string@DU?$char_traits@D@std@@V?$allocator@D@2@@std@@H@std@@@std@@@2@$00@2@$00@std@@QAEAAV?$_Compressed_pair@U?$_Wrap_alloc@V?$allocator@U?$_Tree_node@U?$pair@$$CBV?$basic_string@DU?$char_traits@D@std@@V?$allocator@D@2@@std@@H@std@@PAX@std@@@std@@@std@@V?$_Tree_val@U?$_Tree_simple_types@U?$pair@$$CBV?$basic_string@DU?$char_traits@D@std@@V?$allocator@D@2@@std@@H@std@@@std@@@2@$00@2@XZ 00453b30 f i CommonPathfindingLib:GraphicsBufferManager.obj
 0002:00029b70       ?_Get_second@?$_Compressed_pair@U?$less@V?$basic_string@DU?$char_traits@D@std@@V?$allocator@D@2@@std@@@std@@V?$_Compressed_pair@U?$_Wrap_alloc@V?$allocator@U?$_Tree_node@U?$pair@$$CBV?$basic_string@DU?$char_traits@D@std@@V?$allocator@D@2@@std@@H@std@@PAX@std@@@std@@@std@@V?$_Tree_val@U?$_Tree_simple_types@U?$pair@$$CBV?$basic_string@DU?$char_traits@D@std@@V?$allocator@D@2@@std@@H@std@@@std@@@2@$00@2@$00@std@@QBEABV?$_Compressed_pair@U?$_Wrap_alloc@V?$allocator@U?$_Tree_node@U?$pair@$$CBV?$basic_string@DU?$char_traits@D@std@@V?$allocator@D@2@@std@@H@std@@PAX@std@@@std@@@std@@V?$_Tree_val@U?$_Tree_simple_types@U?$pair@$$CBV?$basic_string@DU?$char_traits@D@std@@V?$allocator@D@2@@std@@H@std@@@std@@@2@$00@2@XZ 00453b70 f i CommonPathfindingLib:GraphicsBufferManager.obj
 0002:00029bb0       ?_Getal@?$_Tree_comp_alloc@V?$_Tmap_traits@HPAVGraphicsBuffer@@U?$less@H@std@@V?$allocator@U?$pair@$$CBHPAVGraphicsBuffer@@@std@@@3@$0A@@std@@@std@@QAEAAU?$_Wrap_alloc@V?$allocator@U?$_Tree_node@U?$pair@$$CBHPAVGraphicsBuffer@@@std@@PAX@std@@@std@@@2@XZ 00453bb0 f i CommonPathfindingLib:GraphicsBufferManager.obj
 0002:00029c10       ?_Getal@?$_Tree_comp_alloc@V?$_Tmap_traits@HPAVGraphicsBuffer@@U?$less@H@std@@V?$allocator@U?$pair@$$CBHPAVGraphicsBuffer@@@std@@@3@$0A@@std@@@std@@QBEABU?$_Wrap_alloc@V?$allocator@U?$_Tree_node@U?$pair@$$CBHPAVGraphicsBuffer@@@std@@PAX@std@@@std@@@2@XZ 00453c10 f i CommonPathfindingLib:GraphicsBufferManager.obj
 0002:00029c70       ?_Getal@?$_Tree_comp_alloc@V?$_Tmap_traits@V?$basic_string@DU?$char_traits@D@std@@V?$allocator@D@2@@std@@HU?$less@V?$basic_string@DU?$char_traits@D@std@@V?$allocator@D@2@@std@@@2@V?$allocator@U?$pair@$$CBV?$basic_string@DU?$char_traits@D@std@@V?$allocator@D@2@@std@@H@std@@@2@$0A@@std@@@std@@QAEAAU?$_Wrap_alloc@V?$allocator@U?$_Tree_node@U?$pair@$$CBV?$basic_string@DU?$char_traits@D@std@@V?$allocator@D@2@@std@@H@std@@PAX@std@@@std@@@2@XZ 00453c70 f i CommonPathfindingLib:GraphicsBufferManager.obj
 0002:00029cd0       ?_Getal@?$_Tree_comp_alloc@V?$_Tmap_traits@V?$basic_string@DU?$char_traits@D@std@@V?$allocator@D@2@@std@@HU?$less@V?$basic_string@DU?$char_traits@D@std@@V?$allocator@D@2@@std@@@2@V?$allocator@U?$pair@$$CBV?$basic_string@DU?$char_traits@D@std@@V?$allocator@D@2@@std@@H@std@@@2@$0A@@std@@@std@@QBEABU?$_Wrap_alloc@V?$allocator@U?$_Tree_node@U?$pair@$$CBV?$basic_string@DU?$char_traits@D@std@@V?$allocator@D@2@@std@@H@std@@PAX@std@@@std@@@2@XZ 00453cd0 f i CommonPathfindingLib:GraphicsBufferManager.obj
 0002:00029d30       ?_Getcomp@?$_Tree_comp_alloc@V?$_Tmap_traits@HPAVGraphicsBuffer@@U?$less@H@std@@V?$allocator@U?$pair@$$CBHPAVGraphicsBuffer@@@std@@@3@$0A@@std@@@std@@QAEAAU?$less@H@2@XZ 00453d30 f i CommonPathfindingLib:GraphicsBufferManager.obj
 0002:00029d80       ?_Getcomp@?$_Tree_comp_alloc@V?$_Tmap_traits@HPAVGraphicsBuffer@@U?$less@H@std@@V?$allocator@U?$pair@$$CBHPAVGraphicsBuffer@@@std@@@3@$0A@@std@@@std@@QBEABU?$less@H@2@XZ 00453d80 f i CommonPathfindingLib:GraphicsBufferManager.obj
 0002:00029dd0       ?_Getcomp@?$_Tree_comp_alloc@V?$_Tmap_traits@V?$basic_string@DU?$char_traits@D@std@@V?$allocator@D@2@@std@@HU?$less@V?$basic_string@DU?$char_traits@D@std@@V?$allocator@D@2@@std@@@2@V?$allocator@U?$pair@$$CBV?$basic_string@DU?$char_traits@D@std@@V?$allocator@D@2@@std@@H@std@@@2@$0A@@std@@@std@@QAEAAU?$less@V?$basic_string@DU?$char_traits@D@std@@V?$allocator@D@2@@std@@@2@XZ 00453dd0 f i CommonPathfindingLib:GraphicsBufferManager.obj
 0002:00029e20       ?_Getcomp@?$_Tree_comp_alloc@V?$_Tmap_traits@V?$basic_string@DU?$char_traits@D@std@@V?$allocator@D@2@@std@@HU?$less@V?$basic_string@DU?$char_traits@D@std@@V?$allocator@D@2@@std@@@2@V?$allocator@U?$pair@$$CBV?$basic_string@DU?$char_traits@D@std@@V?$allocator@D@2@@std@@H@std@@@2@$0A@@std@@@std@@QBEABU?$less@V?$basic_string@DU?$char_traits@D@std@@V?$allocator@D@2@@std@@@2@XZ 00453e20 f i CommonPathfindingLib:GraphicsBufferManager.obj
 0002:00029e70       ?_Getpfirst@?$_Tree_comp_alloc@V?$_Tmap_traits@HPAVGraphicsBuffer@@U?$less@H@std@@V?$allocator@U?$pair@$$CBHPAVGraphicsBuffer@@@std@@@3@$0A@@std@@@std@@QBEPAPAU_Iterator_base12@2@XZ 00453e70 f i CommonPathfindingLib:GraphicsBufferManager.obj
 0002:00029ed0       ?_Getpfirst@?$_Tree_comp_alloc@V?$_Tmap_traits@V?$basic_string@DU?$char_traits@D@std@@V?$allocator@D@2@@std@@HU?$less@V?$basic_string@DU?$char_traits@D@std@@V?$allocator@D@2@@std@@@2@V?$allocator@U?$pair@$$CBV?$basic_string@DU?$char_traits@D@std@@V?$allocator@D@2@@std@@H@std@@@2@$0A@@std@@@std@@QBEPAPAU_Iterator_base12@2@XZ 00453ed0 f i CommonPathfindingLib:GraphicsBufferManager.obj
 0002:00029f30       ?_Isnil@?$_Tree_comp_alloc@V?$_Tmap_traits@HPAVGraphicsBuffer@@U?$less@H@std@@V?$allocator@U?$pair@$$CBHPAVGraphicsBuffer@@@std@@@3@$0A@@std@@@std@@SAAADPAU?$_Tree_node@U?$pair@$$CBHPAVGraphicsBuffer@@@std@@PAX@2@@Z 00453f30 f i CommonPathfindingLib:GraphicsBufferManager.obj
 0002:00029f80       ?_Isnil@?$_Tree_comp_alloc@V?$_Tmap_traits@V?$basic_string@DU?$char_traits@D@std@@V?$allocator@D@2@@std@@HU?$less@V?$basic_string@DU?$char_traits@D@std@@V?$allocator@D@2@@std@@@2@V?$allocator@U?$pair@$$CBV?$basic_string@DU?$char_traits@D@std@@V?$allocator@D@2@@std@@H@std@@@2@$0A@@std@@@std@@SAAADPAU?$_Tree_node@U?$pair@$$CBV?$basic_string@DU?$char_traits@D@std@@V?$allocator@D@2@@std@@H@std@@PAX@2@@Z 00453f80 f i CommonPathfindingLib:GraphicsBufferManager.obj
 0002:00029fd0       ?_Isnil@?$_Tree_val@U?$_Tree_simple_types@U?$pair@$$CBHPAVGraphicsBuffer@@@std@@@std@@@std@@SAAADPAU?$_Tree_node@U?$pair@$$CBHPAVGraphicsBuffer@@@std@@PAX@2@@Z 00453fd0 f i CommonPathfindingLib:GraphicsBufferManager.obj
 0002:0002a010       ?_Isnil@?$_Tree_val@U?$_Tree_simple_types@U?$pair@$$CBV?$basic_string@DU?$char_traits@D@std@@V?$allocator@D@2@@std@@H@std@@@std@@@std@@SAAADPAU?$_Tree_node@U?$pair@$$CBV?$basic_string@DU?$char_traits@D@std@@V?$allocator@D@2@@std@@H@std@@PAX@2@@Z 00454010 f i CommonPathfindingLib:GraphicsBufferManager.obj
 0002:0002a050       ?_Key@?$_Tree@V?$_Tmap_traits@HPAVGraphicsBuffer@@U?$less@H@std@@V?$allocator@U?$pair@$$CBHPAVGraphicsBuffer@@@std@@@3@$0A@@std@@@std@@IBEABHPAU?$_Tree_node@U?$pair@$$CBHPAVGraphicsBuffer@@@std@@PAX@2@@Z 00454050 f i CommonPathfindingLib:GraphicsBufferManager.obj
 0002:0002a0c0       ?_Key@?$_Tree@V?$_Tmap_traits@V?$basic_string@DU?$char_traits@D@std@@V?$allocator@D@2@@std@@HU?$less@V?$basic_string@DU?$char_traits@D@std@@V?$allocator@D@2@@std@@@2@V?$allocator@U?$pair@$$CBV?$basic_string@DU?$char_traits@D@std@@V?$allocator@D@2@@std@@H@std@@@2@$0A@@std@@@std@@IBEABV?$basic_string@DU?$char_traits@D@std@@V?$allocator@D@2@@2@PAU?$_Tree_node@U?$pair@$$CBV?$basic_string@DU?$char_traits@D@std@@V?$allocator@D@2@@std@@H@std@@PAX@2@@Z 004540c0 f i CommonPathfindingLib:GraphicsBufferManager.obj
 0002:0002a130       ?_Kfn@?$_Tree@V?$_Tmap_traits@HPAVGraphicsBuffer@@U?$less@H@std@@V?$allocator@U?$pair@$$CBHPAVGraphicsBuffer@@@std@@@3@$0A@@std@@@std@@IBEABHABU?$pair@$$CBHPAVGraphicsBuffer@@@2@@Z 00454130 f i CommonPathfindingLib:GraphicsBufferManager.obj
 0002:0002a190       ?_Kfn@?$_Tree@V?$_Tmap_traits@V?$basic_string@DU?$char_traits@D@std@@V?$allocator@D@2@@std@@HU?$less@V?$basic_string@DU?$char_traits@D@std@@V?$allocator@D@2@@std@@@2@V?$allocator@U?$pair@$$CBV?$basic_string@DU?$char_traits@D@std@@V?$allocator@D@2@@std@@H@std@@@2@$0A@@std@@@std@@IBEABV?$basic_string@DU?$char_traits@D@std@@V?$allocator@D@2@@2@ABU?$pair@$$CBV?$basic_string@DU?$char_traits@D@std@@V?$allocator@D@2@@std@@H@2@@Z 00454190 f i CommonPathfindingLib:GraphicsBufferManager.obj
 0002:0002a1f0       ?_Left@?$_Tree_comp_alloc@V?$_Tmap_traits@HPAVGraphicsBuffer@@U?$less@H@std@@V?$allocator@U?$pair@$$CBHPAVGraphicsBuffer@@@std@@@3@$0A@@std@@@std@@SAAAPAU?$_Tree_node@U?$pair@$$CBHPAVGraphicsBuffer@@@std@@PAX@2@PAU32@@Z 004541f0 f i CommonPathfindingLib:GraphicsBufferManager.obj
 0002:0002a240       ?_Left@?$_Tree_comp_alloc@V?$_Tmap_traits@V?$basic_string@DU?$char_traits@D@std@@V?$allocator@D@2@@std@@HU?$less@V?$basic_string@DU?$char_traits@D@std@@V?$allocator@D@2@@std@@@2@V?$allocator@U?$pair@$$CBV?$basic_string@DU?$char_traits@D@std@@V?$allocator@D@2@@std@@H@std@@@2@$0A@@std@@@std@@SAAAPAU?$_Tree_node@U?$pair@$$CBV?$basic_string@DU?$char_traits@D@std@@V?$allocator@D@2@@std@@H@std@@PAX@2@PAU32@@Z 00454240 f i CommonPathfindingLib:GraphicsBufferManager.obj
 0002:0002a290       ?_Left@?$_Tree_val@U?$_Tree_simple_types@U?$pair@$$CBHPAVGraphicsBuffer@@@std@@@std@@@std@@SAAAPAU?$_Tree_node@U?$pair@$$CBHPAVGraphicsBuffer@@@std@@PAX@2@PAU32@@Z 00454290 f i CommonPathfindingLib:GraphicsBufferManager.obj
 0002:0002a2d0       ?_Left@?$_Tree_val@U?$_Tree_simple_types@U?$pair@$$CBV?$basic_string@DU?$char_traits@D@std@@V?$allocator@D@2@@std@@H@std@@@std@@@std@@SAAAPAU?$_Tree_node@U?$pair@$$CBV?$basic_string@DU?$char_traits@D@std@@V?$allocator@D@2@@std@@H@std@@PAX@2@PAU32@@Z 004542d0 f i CommonPathfindingLib:GraphicsBufferManager.obj
 0002:0002a310       ?_Lmost@?$_Tree@V?$_Tmap_traits@HPAVGraphicsBuffer@@U?$less@H@std@@V?$allocator@U?$pair@$$CBHPAVGraphicsBuffer@@@std@@@3@$0A@@std@@@std@@IBEAAPAU?$_Tree_node@U?$pair@$$CBHPAVGraphicsBuffer@@@std@@PAX@2@XZ 00454310 f i CommonPathfindingLib:GraphicsBufferManager.obj
 0002:0002a370       ?_Lmost@?$_Tree@V?$_Tmap_traits@V?$basic_string@DU?$char_traits@D@std@@V?$allocator@D@2@@std@@HU?$less@V?$basic_string@DU?$char_traits@D@std@@V?$allocator@D@2@@std@@@2@V?$allocator@U?$pair@$$CBV?$basic_string@DU?$char_traits@D@std@@V?$allocator@D@2@@std@@H@std@@@2@$0A@@std@@@std@@IBEAAPAU?$_Tree_node@U?$pair@$$CBV?$basic_string@DU?$char_traits@D@std@@V?$allocator@D@2@@std@@H@std@@PAX@2@XZ 00454370 f i CommonPathfindingLib:GraphicsBufferManager.obj
 0002:0002a3d0       ?_Lrotate@?$_Tree@V?$_Tmap_traits@HPAVGraphicsBuffer@@U?$less@H@std@@V?$allocator@U?$pair@$$CBHPAVGraphicsBuffer@@@std@@@3@$0A@@std@@@std@@IAEXPAU?$_Tree_node@U?$pair@$$CBHPAVGraphicsBuffer@@@std@@PAX@2@@Z 004543d0 f i CommonPathfindingLib:GraphicsBufferManager.obj
 0002:0002a580       ?_Lrotate@?$_Tree@V?$_Tmap_traits@V?$basic_string@DU?$char_traits@D@std@@V?$allocator@D@2@@std@@HU?$less@V?$basic_string@DU?$char_traits@D@std@@V?$allocator@D@2@@std@@@2@V?$allocator@U?$pair@$$CBV?$basic_string@DU?$char_traits@D@std@@V?$allocator@D@2@@std@@H@std@@@2@$0A@@std@@@std@@IAEXPAU?$_Tree_node@U?$pair@$$CBV?$basic_string@DU?$char_traits@D@std@@V?$allocator@D@2@@std@@H@std@@PAX@2@@Z 00454580 f i CommonPathfindingLib:GraphicsBufferManager.obj
 0002:0002a730       ?_Max@?$_Tree_comp_alloc@V?$_Tmap_traits@HPAVGraphicsBuffer@@U?$less@H@std@@V?$allocator@U?$pair@$$CBHPAVGraphicsBuffer@@@std@@@3@$0A@@std@@@std@@SAPAU?$_Tree_node@U?$pair@$$CBHPAVGraphicsBuffer@@@std@@PAX@2@PAU32@@Z 00454730 f i CommonPathfindingLib:GraphicsBufferManager.obj
 0002:0002a780       ?_Max@?$_Tree_comp_alloc@V?$_Tmap_traits@V?$basic_string@DU?$char_traits@D@std@@V?$allocator@D@2@@std@@HU?$less@V?$basic_string@DU?$char_traits@D@std@@V?$allocator@D@2@@std@@@2@V?$allocator@U?$pair@$$CBV?$basic_string@DU?$char_traits@D@std@@V?$allocator@D@2@@std@@H@std@@@2@$0A@@std@@@std@@SAPAU?$_Tree_node@U?$pair@$$CBV?$basic_string@DU?$char_traits@D@std@@V?$allocator@D@2@@std@@H@std@@PAX@2@PAU32@@Z 00454780 f i CommonPathfindingLib:GraphicsBufferManager.obj
 0002:0002a7d0       ?_Max@?$_Tree_val@U?$_Tree_simple_types@U?$pair@$$CBHPAVGraphicsBuffer@@@std@@@std@@@std@@SAPAU?$_Tree_node@U?$pair@$$CBHPAVGraphicsBuffer@@@std@@PAX@2@PAU32@@Z 004547d0 f i CommonPathfindingLib:GraphicsBufferManager.obj
 0002:0002a850       ?_Max@?$_Tree_val@U?$_Tree_simple_types@U?$pair@$$CBV?$basic_string@DU?$char_traits@D@std@@V?$allocator@D@2@@std@@H@std@@@std@@@std@@SAPAU?$_Tree_node@U?$pair@$$CBV?$basic_string@DU?$char_traits@D@std@@V?$allocator@D@2@@std@@H@std@@PAX@2@PAU32@@Z 00454850 f i CommonPathfindingLib:GraphicsBufferManager.obj
 0002:0002a8d0       ?_Min@?$_Tree_comp_alloc@V?$_Tmap_traits@HPAVGraphicsBuffer@@U?$less@H@std@@V?$allocator@U?$pair@$$CBHPAVGraphicsBuffer@@@std@@@3@$0A@@std@@@std@@SAPAU?$_Tree_node@U?$pair@$$CBHPAVGraphicsBuffer@@@std@@PAX@2@PAU32@@Z 004548d0 f i CommonPathfindingLib:GraphicsBufferManager.obj
 0002:0002a920       ?_Min@?$_Tree_comp_alloc@V?$_Tmap_traits@V?$basic_string@DU?$char_traits@D@std@@V?$allocator@D@2@@std@@HU?$less@V?$basic_string@DU?$char_traits@D@std@@V?$allocator@D@2@@std@@@2@V?$allocator@U?$pair@$$CBV?$basic_string@DU?$char_traits@D@std@@V?$allocator@D@2@@std@@H@std@@@2@$0A@@std@@@std@@SAPAU?$_Tree_node@U?$pair@$$CBV?$basic_string@DU?$char_traits@D@std@@V?$allocator@D@2@@std@@H@std@@PAX@2@PAU32@@Z 00454920 f i CommonPathfindingLib:GraphicsBufferManager.obj
 0002:0002a970       ?_Min@?$_Tree_val@U?$_Tree_simple_types@U?$pair@$$CBHPAVGraphicsBuffer@@@std@@@std@@@std@@SAPAU?$_Tree_node@U?$pair@$$CBHPAVGraphicsBuffer@@@std@@PAX@2@PAU32@@Z 00454970 f i CommonPathfindingLib:GraphicsBufferManager.obj
 0002:0002a9f0       ?_Min@?$_Tree_val@U?$_Tree_simple_types@U?$pair@$$CBV?$basic_string@DU?$char_traits@D@std@@V?$allocator@D@2@@std@@H@std@@@std@@@std@@SAPAU?$_Tree_node@U?$pair@$$CBV?$basic_string@DU?$char_traits@D@std@@V?$allocator@D@2@@std@@H@std@@PAX@2@PAU32@@Z 004549f0 f i CommonPathfindingLib:GraphicsBufferManager.obj
 0002:0002aa70       ?_Myhead@?$_Tree_comp_alloc@V?$_Tmap_traits@HPAVGraphicsBuffer@@U?$less@H@std@@V?$allocator@U?$pair@$$CBHPAVGraphicsBuffer@@@std@@@3@$0A@@std@@@std@@QAEAAPAU?$_Tree_node@U?$pair@$$CBHPAVGraphicsBuffer@@@std@@PAX@2@XZ 00454a70 f i CommonPathfindingLib:GraphicsBufferManager.obj
 0002:0002aad0       ?_Myhead@?$_Tree_comp_alloc@V?$_Tmap_traits@HPAVGraphicsBuffer@@U?$less@H@std@@V?$allocator@U?$pair@$$CBHPAVGraphicsBuffer@@@std@@@3@$0A@@std@@@std@@QBEABQAU?$_Tree_node@U?$pair@$$CBHPAVGraphicsBuffer@@@std@@PAX@2@XZ 00454ad0 f i CommonPathfindingLib:GraphicsBufferManager.obj
 0002:0002ab30       ?_Myhead@?$_Tree_comp_alloc@V?$_Tmap_traits@V?$basic_string@DU?$char_traits@D@std@@V?$allocator@D@2@@std@@HU?$less@V?$basic_string@DU?$char_traits@D@std@@V?$allocator@D@2@@std@@@2@V?$allocator@U?$pair@$$CBV?$basic_string@DU?$char_traits@D@std@@V?$allocator@D@2@@std@@H@std@@@2@$0A@@std@@@std@@QAEAAPAU?$_Tree_node@U?$pair@$$CBV?$basic_string@DU?$char_traits@D@std@@V?$allocator@D@2@@std@@H@std@@PAX@2@XZ 00454b30 f i CommonPathfindingLib:GraphicsBufferManager.obj
 0002:0002ab90       ?_Myhead@?$_Tree_comp_alloc@V?$_Tmap_traits@V?$basic_string@DU?$char_traits@D@std@@V?$allocator@D@2@@std@@HU?$less@V?$basic_string@DU?$char_traits@D@std@@V?$allocator@D@2@@std@@@2@V?$allocator@U?$pair@$$CBV?$basic_string@DU?$char_traits@D@std@@V?$allocator@D@2@@std@@H@std@@@2@$0A@@std@@@std@@QBEABQAU?$_Tree_node@U?$pair@$$CBV?$basic_string@DU?$char_traits@D@std@@V?$allocator@D@2@@std@@H@std@@PAX@2@XZ 00454b90 f i CommonPathfindingLib:GraphicsBufferManager.obj
 0002:0002abf0       ?_Mynode@?$_Tree_unchecked_const_iterator@V?$_Tree_val@U?$_Tree_simple_types@U?$pair@$$CBHPAVGraphicsBuffer@@@std@@@std@@@std@@U_Iterator_base12@2@@std@@QBEPAU?$_Tree_node@U?$pair@$$CBHPAVGraphicsBuffer@@@std@@PAX@2@XZ 00454bf0 f i CommonPathfindingLib:GraphicsBufferManager.obj
 0002:0002ac30       ?_Mynode@?$_Tree_unchecked_const_iterator@V?$_Tree_val@U?$_Tree_simple_types@U?$pair@$$CBV?$basic_string@DU?$char_traits@D@std@@V?$allocator@D@2@@std@@H@std@@@std@@@std@@U_Iterator_base12@2@@std@@QBEPAU?$_Tree_node@U?$pair@$$CBV?$basic_string@DU?$char_traits@D@std@@V?$allocator@D@2@@std@@H@std@@PAX@2@XZ 00454c30 f i CommonPathfindingLib:GraphicsBufferManager.obj
 0002:0002ac70       ?_Myproxy@?$_Tree_comp_alloc@V?$_Tmap_traits@HPAVGraphicsBuffer@@U?$less@H@std@@V?$allocator@U?$pair@$$CBHPAVGraphicsBuffer@@@std@@@3@$0A@@std@@@std@@QAEAAPAU_Container_proxy@2@XZ 00454c70 f i CommonPathfindingLib:GraphicsBufferManager.obj
 0002:0002acc0       ?_Myproxy@?$_Tree_comp_alloc@V?$_Tmap_traits@V?$basic_string@DU?$char_traits@D@std@@V?$allocator@D@2@@std@@HU?$less@V?$basic_string@DU?$char_traits@D@std@@V?$allocator@D@2@@std@@@2@V?$allocator@U?$pair@$$CBV?$basic_string@DU?$char_traits@D@std@@V?$allocator@D@2@@std@@H@std@@@2@$0A@@std@@@std@@QAEAAPAU_Container_proxy@2@XZ 00454cc0 f i CommonPathfindingLib:GraphicsBufferManager.obj
 0002:0002ad10       ?_Mysize@?$_Tree_comp_alloc@V?$_Tmap_traits@HPAVGraphicsBuffer@@U?$less@H@std@@V?$allocator@U?$pair@$$CBHPAVGraphicsBuffer@@@std@@@3@$0A@@std@@@std@@QAEAAIXZ 00454d10 f i CommonPathfindingLib:GraphicsBufferManager.obj
 0002:0002ad70       ?_Mysize@?$_Tree_comp_alloc@V?$_Tmap_traits@HPAVGraphicsBuffer@@U?$less@H@std@@V?$allocator@U?$pair@$$CBHPAVGraphicsBuffer@@@std@@@3@$0A@@std@@@std@@QBEABIXZ 00454d70 f i CommonPathfindingLib:GraphicsBufferManager.obj
 0002:0002add0       ?_Mysize@?$_Tree_comp_alloc@V?$_Tmap_traits@V?$basic_string@DU?$char_traits@D@std@@V?$allocator@D@2@@std@@HU?$less@V?$basic_string@DU?$char_traits@D@std@@V?$allocator@D@2@@std@@@2@V?$allocator@U?$pair@$$CBV?$basic_string@DU?$char_traits@D@std@@V?$allocator@D@2@@std@@H@std@@@2@$0A@@std@@@std@@QAEAAIXZ 00454dd0 f i CommonPathfindingLib:GraphicsBufferManager.obj
 0002:0002ae30       ?_Mysize@?$_Tree_comp_alloc@V?$_Tmap_traits@V?$basic_string@DU?$char_traits@D@std@@V?$allocator@D@2@@std@@HU?$less@V?$basic_string@DU?$char_traits@D@std@@V?$allocator@D@2@@std@@@2@V?$allocator@U?$pair@$$CBV?$basic_string@DU?$char_traits@D@std@@V?$allocator@D@2@@std@@H@std@@@2@$0A@@std@@@std@@QBEABIXZ 00454e30 f i CommonPathfindingLib:GraphicsBufferManager.obj
 0002:0002ae90       ?_Myval@?$_Tree_comp_alloc@V?$_Tmap_traits@HPAVGraphicsBuffer@@U?$less@H@std@@V?$allocator@U?$pair@$$CBHPAVGraphicsBuffer@@@std@@@3@$0A@@std@@@std@@SAAAU?$pair@$$CBHPAVGraphicsBuffer@@@2@PAU?$_Tree_node@U?$pair@$$CBHPAVGraphicsBuffer@@@std@@PAX@2@@Z 00454e90 f i CommonPathfindingLib:GraphicsBufferManager.obj
 0002:0002aee0       ?_Myval@?$_Tree_comp_alloc@V?$_Tmap_traits@V?$basic_string@DU?$char_traits@D@std@@V?$allocator@D@2@@std@@HU?$less@V?$basic_string@DU?$char_traits@D@std@@V?$allocator@D@2@@std@@@2@V?$allocator@U?$pair@$$CBV?$basic_string@DU?$char_traits@D@std@@V?$allocator@D@2@@std@@H@std@@@2@$0A@@std@@@std@@SAAAU?$pair@$$CBV?$basic_string@DU?$char_traits@D@std@@V?$allocator@D@2@@std@@H@2@PAU?$_Tree_node@U?$pair@$$CBV?$basic_string@DU?$char_traits@D@std@@V?$allocator@D@2@@std@@H@std@@PAX@2@@Z 00454ee0 f i CommonPathfindingLib:GraphicsBufferManager.obj
 0002:0002af30       ?_Myval@?$_Tree_val@U?$_Tree_simple_types@U?$pair@$$CBHPAVGraphicsBuffer@@@std@@@std@@@std@@SAAAU?$pair@$$CBHPAVGraphicsBuffer@@@2@PAU?$_Tree_node@U?$pair@$$CBHPAVGraphicsBuffer@@@std@@PAX@2@@Z 00454f30 f i CommonPathfindingLib:GraphicsBufferManager.obj
 0002:0002af70       ?_Myval@?$_Tree_val@U?$_Tree_simple_types@U?$pair@$$CBV?$basic_string@DU?$char_traits@D@std@@V?$allocator@D@2@@std@@H@std@@@std@@@std@@SAAAU?$pair@$$CBV?$basic_string@DU?$char_traits@D@std@@V?$allocator@D@2@@std@@H@2@PAU?$_Tree_node@U?$pair@$$CBV?$basic_string@DU?$char_traits@D@std@@V?$allocator@D@2@@std@@H@std@@PAX@2@@Z 00454f70 f i CommonPathfindingLib:GraphicsBufferManager.obj
 0002:0002afb0       ?_Orphan_all@?$_Tree_comp_alloc@V?$_Tmap_traits@HPAVGraphicsBuffer@@U?$less@H@std@@V?$allocator@U?$pair@$$CBHPAVGraphicsBuffer@@@std@@@3@$0A@@std@@@std@@QAEXXZ 00454fb0 f i CommonPathfindingLib:GraphicsBufferManager.obj
 0002:0002b010       ?_Orphan_all@?$_Tree_comp_alloc@V?$_Tmap_traits@V?$basic_string@DU?$char_traits@D@std@@V?$allocator@D@2@@std@@HU?$less@V?$basic_string@DU?$char_traits@D@std@@V?$allocator@D@2@@std@@@2@V?$allocator@U?$pair@$$CBV?$basic_string@DU?$char_traits@D@std@@V?$allocator@D@2@@std@@H@std@@@2@$0A@@std@@@std@@QAEXXZ 00455010 f i CommonPathfindingLib:GraphicsBufferManager.obj
 0002:0002b070       ?_Orphan_ptr@?$_Tree@V?$_Tmap_traits@HPAVGraphicsBuffer@@U?$less@H@std@@V?$allocator@U?$pair@$$CBHPAVGraphicsBuffer@@@std@@@3@$0A@@std@@@std@@IAEXPAU?$_Tree_node@U?$pair@$$CBHPAVGraphicsBuffer@@@std@@PAX@2@@Z 00455070 f i CommonPathfindingLib:GraphicsBufferManager.obj
 0002:0002b1f0       ?_Orphan_ptr@?$_Tree@V?$_Tmap_traits@V?$basic_string@DU?$char_traits@D@std@@V?$allocator@D@2@@std@@HU?$less@V?$basic_string@DU?$char_traits@D@std@@V?$allocator@D@2@@std@@@2@V?$allocator@U?$pair@$$CBV?$basic_string@DU?$char_traits@D@std@@V?$allocator@D@2@@std@@H@std@@@2@$0A@@std@@@std@@IAEXPAU?$_Tree_node@U?$pair@$$CBV?$basic_string@DU?$char_traits@D@std@@V?$allocator@D@2@@std@@H@std@@PAX@2@@Z 004551f0 f i CommonPathfindingLib:GraphicsBufferManager.obj
 0002:0002b370       ?_Parent@?$_Tree_comp_alloc@V?$_Tmap_traits@HPAVGraphicsBuffer@@U?$less@H@std@@V?$allocator@U?$pair@$$CBHPAVGraphicsBuffer@@@std@@@3@$0A@@std@@@std@@SAAAPAU?$_Tree_node@U?$pair@$$CBHPAVGraphicsBuffer@@@std@@PAX@2@PAU32@@Z 00455370 f i CommonPathfindingLib:GraphicsBufferManager.obj
 0002:0002b3c0       ?_Parent@?$_Tree_comp_alloc@V?$_Tmap_traits@V?$basic_string@DU?$char_traits@D@std@@V?$allocator@D@2@@std@@HU?$less@V?$basic_string@DU?$char_traits@D@std@@V?$allocator@D@2@@std@@@2@V?$allocator@U?$pair@$$CBV?$basic_string@DU?$char_traits@D@std@@V?$allocator@D@2@@std@@H@std@@@2@$0A@@std@@@std@@SAAAPAU?$_Tree_node@U?$pair@$$CBV?$basic_string@DU?$char_traits@D@std@@V?$allocator@D@2@@std@@H@std@@PAX@2@PAU32@@Z 004553c0 f i CommonPathfindingLib:GraphicsBufferManager.obj
 0002:0002b410       ?_Parent@?$_Tree_val@U?$_Tree_simple_types@U?$pair@$$CBHPAVGraphicsBuffer@@@std@@@std@@@std@@SAAAPAU?$_Tree_node@U?$pair@$$CBHPAVGraphicsBuffer@@@std@@PAX@2@PAU32@@Z 00455410 f i CommonPathfindingLib:GraphicsBufferManager.obj
 0002:0002b450       ?_Parent@?$_Tree_val@U?$_Tree_simple_types@U?$pair@$$CBV?$basic_string@DU?$char_traits@D@std@@V?$allocator@D@2@@std@@H@std@@@std@@@std@@SAAAPAU?$_Tree_node@U?$pair@$$CBV?$basic_string@DU?$char_traits@D@std@@V?$allocator@D@2@@std@@H@std@@PAX@2@PAU32@@Z 00455450 f i CommonPathfindingLib:GraphicsBufferManager.obj
 0002:0002b490       ?_Right@?$_Tree_comp_alloc@V?$_Tmap_traits@HPAVGraphicsBuffer@@U?$less@H@std@@V?$allocator@U?$pair@$$CBHPAVGraphicsBuffer@@@std@@@3@$0A@@std@@@std@@SAAAPAU?$_Tree_node@U?$pair@$$CBHPAVGraphicsBuffer@@@std@@PAX@2@PAU32@@Z 00455490 f i CommonPathfindingLib:GraphicsBufferManager.obj
 0002:0002b4e0       ?_Right@?$_Tree_comp_alloc@V?$_Tmap_traits@V?$basic_string@DU?$char_traits@D@std@@V?$allocator@D@2@@std@@HU?$less@V?$basic_string@DU?$char_traits@D@std@@V?$allocator@D@2@@std@@@2@V?$allocator@U?$pair@$$CBV?$basic_string@DU?$char_traits@D@std@@V?$allocator@D@2@@std@@H@std@@@2@$0A@@std@@@std@@SAAAPAU?$_Tree_node@U?$pair@$$CBV?$basic_string@DU?$char_traits@D@std@@V?$allocator@D@2@@std@@H@std@@PAX@2@PAU32@@Z 004554e0 f i CommonPathfindingLib:GraphicsBufferManager.obj
 0002:0002b530       ?_Right@?$_Tree_val@U?$_Tree_simple_types@U?$pair@$$CBHPAVGraphicsBuffer@@@std@@@std@@@std@@SAAAPAU?$_Tree_node@U?$pair@$$CBHPAVGraphicsBuffer@@@std@@PAX@2@PAU32@@Z 00455530 f i CommonPathfindingLib:GraphicsBufferManager.obj
 0002:0002b570       ?_Right@?$_Tree_val@U?$_Tree_simple_types@U?$pair@$$CBV?$basic_string@DU?$char_traits@D@std@@V?$allocator@D@2@@std@@H@std@@@std@@@std@@SAAAPAU?$_Tree_node@U?$pair@$$CBV?$basic_string@DU?$char_traits@D@std@@V?$allocator@D@2@@std@@H@std@@PAX@2@PAU32@@Z 00455570 f i CommonPathfindingLib:GraphicsBufferManager.obj
 0002:0002b5b0       ?_Rmost@?$_Tree@V?$_Tmap_traits@HPAVGraphicsBuffer@@U?$less@H@std@@V?$allocator@U?$pair@$$CBHPAVGraphicsBuffer@@@std@@@3@$0A@@std@@@std@@IBEAAPAU?$_Tree_node@U?$pair@$$CBHPAVGraphicsBuffer@@@std@@PAX@2@XZ 004555b0 f i CommonPathfindingLib:GraphicsBufferManager.obj
 0002:0002b610       ?_Rmost@?$_Tree@V?$_Tmap_traits@V?$basic_string@DU?$char_traits@D@std@@V?$allocator@D@2@@std@@HU?$less@V?$basic_string@DU?$char_traits@D@std@@V?$allocator@D@2@@std@@@2@V?$allocator@U?$pair@$$CBV?$basic_string@DU?$char_traits@D@std@@V?$allocator@D@2@@std@@H@std@@@2@$0A@@std@@@std@@IBEAAPAU?$_Tree_node@U?$pair@$$CBV?$basic_string@DU?$char_traits@D@std@@V?$allocator@D@2@@std@@H@std@@PAX@2@XZ 00455610 f i CommonPathfindingLib:GraphicsBufferManager.obj
 0002:0002b670       ?_Root@?$_Tree@V?$_Tmap_traits@HPAVGraphicsBuffer@@U?$less@H@std@@V?$allocator@U?$pair@$$CBHPAVGraphicsBuffer@@@std@@@3@$0A@@std@@@std@@IBEAAPAU?$_Tree_node@U?$pair@$$CBHPAVGraphicsBuffer@@@std@@PAX@2@XZ 00455670 f i CommonPathfindingLib:GraphicsBufferManager.obj
 0002:0002b6d0       ?_Root@?$_Tree@V?$_Tmap_traits@V?$basic_string@DU?$char_traits@D@std@@V?$allocator@D@2@@std@@HU?$less@V?$basic_string@DU?$char_traits@D@std@@V?$allocator@D@2@@std@@@2@V?$allocator@U?$pair@$$CBV?$basic_string@DU?$char_traits@D@std@@V?$allocator@D@2@@std@@H@std@@@2@$0A@@std@@@std@@IBEAAPAU?$_Tree_node@U?$pair@$$CBV?$basic_string@DU?$char_traits@D@std@@V?$allocator@D@2@@std@@H@std@@PAX@2@XZ 004556d0 f i CommonPathfindingLib:GraphicsBufferManager.obj
 0002:0002b730       ?_Rrotate@?$_Tree@V?$_Tmap_traits@HPAVGraphicsBuffer@@U?$less@H@std@@V?$allocator@U?$pair@$$CBHPAVGraphicsBuffer@@@std@@@3@$0A@@std@@@std@@IAEXPAU?$_Tree_node@U?$pair@$$CBHPAVGraphicsBuffer@@@std@@PAX@2@@Z 00455730 f i CommonPathfindingLib:GraphicsBufferManager.obj
 0002:0002b8e0       ?_Rrotate@?$_Tree@V?$_Tmap_traits@V?$basic_string@DU?$char_traits@D@std@@V?$allocator@D@2@@std@@HU?$less@V?$basic_string@DU?$char_traits@D@std@@V?$allocator@D@2@@std@@@2@V?$allocator@U?$pair@$$CBV?$basic_string@DU?$char_traits@D@std@@V?$allocator@D@2@@std@@H@std@@@2@$0A@@std@@@std@@IAEXPAU?$_Tree_node@U?$pair@$$CBV?$basic_string@DU?$char_traits@D@std@@V?$allocator@D@2@@std@@H@std@@PAX@2@@Z 004558e0 f i CommonPathfindingLib:GraphicsBufferManager.obj
 0002:0002ba90       ?_Tidy@?$_Tree@V?$_Tmap_traits@HPAVGraphicsBuffer@@U?$less@H@std@@V?$allocator@U?$pair@$$CBHPAVGraphicsBuffer@@@std@@@3@$0A@@std@@@std@@IAEXXZ 00455a90 f i CommonPathfindingLib:GraphicsBufferManager.obj
 0002:0002bc20       ?_Tidy@?$_Tree@V?$_Tmap_traits@V?$basic_string@DU?$char_traits@D@std@@V?$allocator@D@2@@std@@HU?$less@V?$basic_string@DU?$char_traits@D@std@@V?$allocator@D@2@@std@@@2@V?$allocator@U?$pair@$$CBV?$basic_string@DU?$char_traits@D@std@@V?$allocator@D@2@@std@@H@std@@@2@$0A@@std@@@std@@IAEXXZ 00455c20 f i CommonPathfindingLib:GraphicsBufferManager.obj
 0002:0002bdb0       ?_Traits_compare@?$basic_string@DU?$char_traits@D@std@@V?$allocator@D@2@@std@@SAHQBDI0I@Z 00455db0 f i CommonPathfindingLib:GraphicsBufferManager.obj
 0002:0002be70       ?allocate@?$_Wrap_alloc@V?$allocator@U?$_Tree_node@U?$pair@$$CBHPAVGraphicsBuffer@@@std@@PAX@std@@@std@@@std@@QAEPAU?$_Tree_node@U?$pair@$$CBHPAVGraphicsBuffer@@@std@@PAX@2@I@Z 00455e70 f i CommonPathfindingLib:GraphicsBufferManager.obj
 0002:0002bed0       ?allocate@?$_Wrap_alloc@V?$allocator@U?$_Tree_node@U?$pair@$$CBV?$basic_string@DU?$char_traits@D@std@@V?$allocator@D@2@@std@@H@std@@PAX@std@@@std@@@std@@QAEPAU?$_Tree_node@U?$pair@$$CBV?$basic_string@DU?$char_traits@D@std@@V?$allocator@D@2@@std@@H@std@@PAX@2@I@Z 00455ed0 f i CommonPathfindingLib:GraphicsBufferManager.obj
 0002:0002bf30       ?allocate@?$allocator@U?$_Tree_node@U?$pair@$$CBHPAVGraphicsBuffer@@@std@@PAX@std@@@std@@QAEPAU?$_Tree_node@U?$pair@$$CBHPAVGraphicsBuffer@@@std@@PAX@2@I@Z 00455f30 f i CommonPathfindingLib:GraphicsBufferManager.obj
 0002:0002bf90       ?allocate@?$allocator@U?$_Tree_node@U?$pair@$$CBV?$basic_string@DU?$char_traits@D@std@@V?$allocator@D@2@@std@@H@std@@PAX@std@@@std@@QAEPAU?$_Tree_node@U?$pair@$$CBV?$basic_string@DU?$char_traits@D@std@@V?$allocator@D@2@@std@@H@std@@PAX@2@I@Z 00455f90 f i CommonPathfindingLib:GraphicsBufferManager.obj
 0002:0002bff0       ?begin@?$_Tree@V?$_Tmap_traits@HPAVGraphicsBuffer@@U?$less@H@std@@V?$allocator@U?$pair@$$CBHPAVGraphicsBuffer@@@std@@@3@$0A@@std@@@std@@QAE?AV?$_Tree_iterator@V?$_Tree_val@U?$_Tree_simple_types@U?$pair@$$CBHPAVGraphicsBuffer@@@std@@@std@@@std@@@2@XZ 00455ff0 f i CommonPathfindingLib:GraphicsBufferManager.obj
 0002:0002c0a0       ?begin@?$_Tree@V?$_Tmap_traits@V?$basic_string@DU?$char_traits@D@std@@V?$allocator@D@2@@std@@HU?$less@V?$basic_string@DU?$char_traits@D@std@@V?$allocator@D@2@@std@@@2@V?$allocator@U?$pair@$$CBV?$basic_string@DU?$char_traits@D@std@@V?$allocator@D@2@@std@@H@std@@@2@$0A@@std@@@std@@QAE?AV?$_Tree_iterator@V?$_Tree_val@U?$_Tree_simple_types@U?$pair@$$CBV?$basic_string@DU?$char_traits@D@std@@V?$allocator@D@2@@std@@H@std@@@std@@@std@@@2@XZ 004560a0 f i CommonPathfindingLib:GraphicsBufferManager.obj
 0002:0002c150       ?clear@?$_Tree@V?$_Tmap_traits@HPAVGraphicsBuffer@@U?$less@H@std@@V?$allocator@U?$pair@$$CBHPAVGraphicsBuffer@@@std@@@3@$0A@@std@@@std@@QAEXXZ 00456150 f i CommonPathfindingLib:GraphicsBufferManager.obj
 0002:0002c260       ?clear@?$_Tree@V?$_Tmap_traits@V?$basic_string@DU?$char_traits@D@std@@V?$allocator@D@2@@std@@HU?$less@V?$basic_string@DU?$char_traits@D@std@@V?$allocator@D@2@@std@@@2@V?$allocator@U?$pair@$$CBV?$basic_string@DU?$char_traits@D@std@@V?$allocator@D@2@@std@@H@std@@@2@$0A@@std@@@std@@QAEXXZ 00456260 f i CommonPathfindingLib:GraphicsBufferManager.obj
 0002:0002c370       ?clear@GraphicsBufferManager@@QAEXXZ 00456370 f   CommonPathfindingLib:GraphicsBufferManager.obj
 0002:0002c590       ?compare@?$basic_string@DU?$char_traits@D@std@@V?$allocator@D@2@@std@@QBEHABV12@@Z 00456590 f i CommonPathfindingLib:GraphicsBufferManager.obj
 0002:0002c650       ?compare@?$char_traits@D@std@@SAHPBD0I@Z 00456650 f i CommonPathfindingLib:GraphicsBufferManager.obj
 0002:0002c6d0       ?deallocate@?$_Wrap_alloc@V?$allocator@U?$_Tree_node@U?$pair@$$CBHPAVGraphicsBuffer@@@std@@PAX@std@@@std@@@std@@QAEXPAU?$_Tree_node@U?$pair@$$CBHPAVGraphicsBuffer@@@std@@PAX@2@I@Z 004566d0 f i CommonPathfindingLib:GraphicsBufferManager.obj
 0002:0002c730       ?deallocate@?$_Wrap_alloc@V?$allocator@U?$_Tree_node@U?$pair@$$CBV?$basic_string@DU?$char_traits@D@std@@V?$allocator@D@2@@std@@H@std@@PAX@std@@@std@@@std@@QAEXPAU?$_Tree_node@U?$pair@$$CBV?$basic_string@DU?$char_traits@D@std@@V?$allocator@D@2@@std@@H@std@@PAX@2@I@Z 00456730 f i CommonPathfindingLib:GraphicsBufferManager.obj
 0002:0002c790       ?deallocate@?$allocator@U?$_Tree_node@U?$pair@$$CBHPAVGraphicsBuffer@@@std@@PAX@std@@@std@@QAEXPAU?$_Tree_node@U?$pair@$$CBHPAVGraphicsBuffer@@@std@@PAX@2@I@Z 00456790 f i CommonPathfindingLib:GraphicsBufferManager.obj
 0002:0002c7f0       ?deallocate@?$allocator@U?$_Tree_node@U?$pair@$$CBV?$basic_string@DU?$char_traits@D@std@@V?$allocator@D@2@@std@@H@std@@PAX@std@@@std@@QAEXPAU?$_Tree_node@U?$pair@$$CBV?$basic_string@DU?$char_traits@D@std@@V?$allocator@D@2@@std@@H@std@@PAX@2@I@Z 004567f0 f i CommonPathfindingLib:GraphicsBufferManager.obj
 0002:0002c850       ?deleteBuffer@GraphicsBufferManager@@QAEXABH@Z 00456850 f   CommonPathfindingLib:GraphicsBufferManager.obj
 0002:0002cbd0       ?deleteBufferByDescriptor@GraphicsBufferManager@@QAEXABV?$basic_string@DU?$char_traits@D@std@@V?$allocator@D@2@@std@@@Z 00456bd0 f   CommonPathfindingLib:GraphicsBufferManager.obj
 0002:0002cd40       ?end@?$_Tree@V?$_Tmap_traits@HPAVGraphicsBuffer@@U?$less@H@std@@V?$allocator@U?$pair@$$CBHPAVGraphicsBuffer@@@std@@@3@$0A@@std@@@std@@QAE?AV?$_Tree_iterator@V?$_Tree_val@U?$_Tree_simple_types@U?$pair@$$CBHPAVGraphicsBuffer@@@std@@@std@@@std@@@2@XZ 00456d40 f i CommonPathfindingLib:GraphicsBufferManager.obj
 0002:0002cdf0       ?end@?$_Tree@V?$_Tmap_traits@V?$basic_string@DU?$char_traits@D@std@@V?$allocator@D@2@@std@@HU?$less@V?$basic_string@DU?$char_traits@D@std@@V?$allocator@D@2@@std@@@2@V?$allocator@U?$pair@$$CBV?$basic_string@DU?$char_traits@D@std@@V?$allocator@D@2@@std@@H@std@@@2@$0A@@std@@@std@@QAE?AV?$_Tree_iterator@V?$_Tree_val@U?$_Tree_simple_types@U?$pair@$$CBV?$basic_string@DU?$char_traits@D@std@@V?$allocator@D@2@@std@@H@std@@@std@@@std@@@2@XZ 00456df0 f i CommonPathfindingLib:GraphicsBufferManager.obj
 0002:0002cea0       ?erase@?$_Tree@V?$_Tmap_traits@HPAVGraphicsBuffer@@U?$less@H@std@@V?$allocator@U?$pair@$$CBHPAVGraphicsBuffer@@@std@@@3@$0A@@std@@@std@@QAE?AV?$_Tree_iterator@V?$_Tree_val@U?$_Tree_simple_types@U?$pair@$$CBHPAVGraphicsBuffer@@@std@@@std@@@std@@@2@V?$_Tree_const_iterator@V?$_Tree_val@U?$_Tree_simple_types@U?$pair@$$CBHPAVGraphicsBuffer@@@std@@@std@@@std@@@2@0@Z 00456ea0 f i CommonPathfindingLib:GraphicsBufferManager.obj
 0002:0002d1c0       ?erase@?$_Tree@V?$_Tmap_traits@HPAVGraphicsBuffer@@U?$less@H@std@@V?$allocator@U?$pair@$$CBHPAVGraphicsBuffer@@@std@@@3@$0A@@std@@@std@@QAE?AV?$_Tree_iterator@V?$_Tree_val@U?$_Tree_simple_types@U?$pair@$$CBHPAVGraphicsBuffer@@@std@@@std@@@std@@@2@V?$_Tree_const_iterator@V?$_Tree_val@U?$_Tree_simple_types@U?$pair@$$CBHPAVGraphicsBuffer@@@std@@@std@@@std@@@2@@Z 004571c0 f i CommonPathfindingLib:GraphicsBufferManager.obj
 0002:0002dc50       ?erase@?$_Tree@V?$_Tmap_traits@V?$basic_string@DU?$char_traits@D@std@@V?$allocator@D@2@@std@@HU?$less@V?$basic_string@DU?$char_traits@D@std@@V?$allocator@D@2@@std@@@2@V?$allocator@U?$pair@$$CBV?$basic_string@DU?$char_traits@D@std@@V?$allocator@D@2@@std@@H@std@@@2@$0A@@std@@@std@@QAE?AV?$_Tree_iterator@V?$_Tree_val@U?$_Tree_simple_types@U?$pair@$$CBV?$basic_string@DU?$char_traits@D@std@@V?$allocator@D@2@@std@@H@std@@@std@@@std@@@2@V?$_Tree_const_iterator@V?$_Tree_val@U?$_Tree_simple_types@U?$pair@$$CBV?$basic_string@DU?$char_traits@D@std@@V?$allocator@D@2@@std@@H@std@@@std@@@std@@@2@0@Z 00457c50 f i CommonPathfindingLib:GraphicsBufferManager.obj
 0002:0002df70       ?erase@?$_Tree@V?$_Tmap_traits@V?$basic_string@DU?$char_traits@D@std@@V?$allocator@D@2@@std@@HU?$less@V?$basic_string@DU?$char_traits@D@std@@V?$allocator@D@2@@std@@@2@V?$allocator@U?$pair@$$CBV?$basic_string@DU?$char_traits@D@std@@V?$allocator@D@2@@std@@H@std@@@2@$0A@@std@@@std@@QAE?AV?$_Tree_iterator@V?$_Tree_val@U?$_Tree_simple_types@U?$pair@$$CBV?$basic_string@DU?$char_traits@D@std@@V?$allocator@D@2@@std@@H@std@@@std@@@std@@@2@V?$_Tree_const_iterator@V?$_Tree_val@U?$_Tree_simple_types@U?$pair@$$CBV?$basic_string@DU?$char_traits@D@std@@V?$allocator@D@2@@std@@H@std@@@std@@@std@@@2@@Z 00457f70 f i CommonPathfindingLib:GraphicsBufferManager.obj
 0002:0002ea00       ?find@?$_Tree@V?$_Tmap_traits@HPAVGraphicsBuffer@@U?$less@H@std@@V?$allocator@U?$pair@$$CBHPAVGraphicsBuffer@@@std@@@3@$0A@@std@@@std@@QAE?AV?$_Tree_iterator@V?$_Tree_val@U?$_Tree_simple_types@U?$pair@$$CBHPAVGraphicsBuffer@@@std@@@std@@@std@@@2@ABH@Z 00458a00 f i CommonPathfindingLib:GraphicsBufferManager.obj
 0002:0002ed00       ?find@?$_Tree@V?$_Tmap_traits@V?$basic_string@DU?$char_traits@D@std@@V?$allocator@D@2@@std@@HU?$less@V?$basic_string@DU?$char_traits@D@std@@V?$allocator@D@2@@std@@@2@V?$allocator@U?$pair@$$CBV?$basic_string@DU?$char_traits@D@std@@V?$allocator@D@2@@std@@H@std@@@2@$0A@@std@@@std@@QAE?AV?$_Tree_iterator@V?$_Tree_val@U?$_Tree_simple_types@U?$pair@$$CBV?$basic_string@DU?$char_traits@D@std@@V?$allocator@D@2@@std@@H@std@@@std@@@std@@@2@ABV?$basic_string@DU?$char_traits@D@std@@V?$allocator@D@2@@2@@Z 00458d00 f i CommonPathfindingLib:GraphicsBufferManager.obj
 0002:0002f000       ?getBuffer@GraphicsBufferManager@@QAEPAVGraphicsBuffer@@ABH@Z 00459000 f   CommonPathfindingLib:GraphicsBufferManager.obj
 0002:0002f180       ?getBufferByDescriptor@GraphicsBufferManager@@QAEPAVGraphicsBuffer@@ABV?$basic_string@DU?$char_traits@D@std@@V?$allocator@D@2@@std@@@Z 00459180 f   CommonPathfindingLib:GraphicsBufferManager.obj
 0002:0002f330       ?getNextID@GraphicsBufferManager@@AAEHXZ 00459330 f   CommonPathfindingLib:GraphicsBufferManager.obj
 0002:0002f4f0       ?init@GraphicsBufferManager@@QAEXXZ 004594f0 f   CommonPathfindingLib:GraphicsBufferManager.obj
 0002:0002f530       ?isValid@GraphicsBuffer@@QBE_NXZ 00459530 f i CommonPathfindingLib:GraphicsBufferManager.obj
 0002:0002f5a0       ?loadBuffer@GraphicsBufferManager@@QAEHABHABV?$basic_string@DU?$char_traits@D@std@@V?$allocator@D@2@@std@@@Z 004595a0 f   CommonPathfindingLib:GraphicsBufferManager.obj
 0002:0002f810       ?loadBuffer@GraphicsBufferManager@@QAEHABV?$basic_string@DU?$char_traits@D@std@@V?$allocator@D@2@@std@@@Z 00459810 f   CommonPathfindingLib:GraphicsBufferManager.obj
 0002:0002f8c0       ?lower_bound@?$_Tree@V?$_Tmap_traits@HPAVGraphicsBuffer@@U?$less@H@std@@V?$allocator@U?$pair@$$CBHPAVGraphicsBuffer@@@std@@@3@$0A@@std@@@std@@QAE?AV?$_Tree_iterator@V?$_Tree_val@U?$_Tree_simple_types@U?$pair@$$CBHPAVGraphicsBuffer@@@std@@@std@@@std@@@2@ABH@Z 004598c0 f i CommonPathfindingLib:GraphicsBufferManager.obj
 0002:0002f950       ?lower_bound@?$_Tree@V?$_Tmap_traits@V?$basic_string@DU?$char_traits@D@std@@V?$allocator@D@2@@std@@HU?$less@V?$basic_string@DU?$char_traits@D@std@@V?$allocator@D@2@@std@@@2@V?$allocator@U?$pair@$$CBV?$basic_string@DU?$char_traits@D@std@@V?$allocator@D@2@@std@@H@std@@@2@$0A@@std@@@std@@QAE?AV?$_Tree_iterator@V?$_Tree_val@U?$_Tree_simple_types@U?$pair@$$CBV?$basic_string@DU?$char_traits@D@std@@V?$allocator@D@2@@std@@H@std@@@std@@@std@@@2@ABV?$basic_string@DU?$char_traits@D@std@@V?$allocator@D@2@@2@@Z 00459950 f i CommonPathfindingLib:GraphicsBufferManager.obj
 0002:0002f9e0       ?manageBuffer@GraphicsBufferManager@@QAEHPAVGraphicsBuffer@@ABV?$basic_string@DU?$char_traits@D@std@@V?$allocator@D@2@@std@@@Z 004599e0 f   CommonPathfindingLib:GraphicsBufferManager.obj
 0002:0002fba0       ?max_size@?$_Tree@V?$_Tmap_traits@HPAVGraphicsBuffer@@U?$less@H@std@@V?$allocator@U?$pair@$$CBHPAVGraphicsBuffer@@@std@@@3@$0A@@std@@@std@@QBEIXZ 00459ba0 f i CommonPathfindingLib:GraphicsBufferManager.obj
 0002:0002fc10       ?max_size@?$_Tree@V?$_Tmap_traits@V?$basic_string@DU?$char_traits@D@std@@V?$allocator@D@2@@std@@HU?$less@V?$basic_string@DU?$char_traits@D@std@@V?$allocator@D@2@@std@@@2@V?$allocator@U?$pair@$$CBV?$basic_string@DU?$char_traits@D@std@@V?$allocator@D@2@@std@@H@std@@@2@$0A@@std@@@std@@QBEIXZ 00459c10 f i CommonPathfindingLib:GraphicsBufferManager.obj
 0002:0002fc80       ?max_size@?$_Wrap_alloc@V?$allocator@U?$_Tree_node@U?$pair@$$CBHPAVGraphicsBuffer@@@std@@PAX@std@@@std@@@std@@QBEIU_Nil@2@@Z 00459c80 f i CommonPathfindingLib:GraphicsBufferManager.obj
 0002:0002fce0       ?max_size@?$_Wrap_alloc@V?$allocator@U?$_Tree_node@U?$pair@$$CBV?$basic_string@DU?$char_traits@D@std@@V?$allocator@D@2@@std@@H@std@@PAX@std@@@std@@@std@@QBEIU_Nil@2@@Z 00459ce0 f i CommonPathfindingLib:GraphicsBufferManager.obj
 0002:0002fd40       ?max_size@?$allocator@U?$_Tree_node@U?$pair@$$CBHPAVGraphicsBuffer@@@std@@PAX@std@@@std@@QBEIXZ 00459d40 f i CommonPathfindingLib:GraphicsBufferManager.obj
 0002:0002fd80       ?max_size@?$allocator@U?$_Tree_node@U?$pair@$$CBV?$basic_string@DU?$char_traits@D@std@@V?$allocator@D@2@@std@@H@std@@PAX@std@@@std@@QBEIXZ 00459d80 f i CommonPathfindingLib:GraphicsBufferManager.obj
 0002:0002fdc0       ?max_size@?$allocator_traits@V?$allocator@U?$_Tree_node@U?$pair@$$CBHPAVGraphicsBuffer@@@std@@PAX@std@@@std@@@std@@SAIABV?$allocator@U?$_Tree_node@U?$pair@$$CBHPAVGraphicsBuffer@@@std@@PAX@std@@@2@@Z 00459dc0 f i CommonPathfindingLib:GraphicsBufferManager.obj
 0002:0002fe10       ?max_size@?$allocator_traits@V?$allocator@U?$_Tree_node@U?$pair@$$CBV?$basic_string@DU?$char_traits@D@std@@V?$allocator@D@2@@std@@H@std@@PAX@std@@@std@@@std@@SAIABV?$allocator@U?$_Tree_node@U?$pair@$$CBV?$basic_string@DU?$char_traits@D@std@@V?$allocator@D@2@@std@@H@std@@PAX@std@@@2@@Z 00459e10 f i CommonPathfindingLib:GraphicsBufferManager.obj
 0002:0002fe60       ?pointer_to@?$pointer_traits@PAU?$pair@$$CBHPAVGraphicsBuffer@@@std@@@std@@SAPAU?$pair@$$CBHPAVGraphicsBuffer@@@2@AAU32@@Z 00459e60 f i CommonPathfindingLib:GraphicsBufferManager.obj
 0002:0002feb0       ?pointer_to@?$pointer_traits@PAU?$pair@$$CBV?$basic_string@DU?$char_traits@D@std@@V?$allocator@D@2@@std@@H@std@@@std@@SAPAU?$pair@$$CBV?$basic_string@DU?$char_traits@D@std@@V?$allocator@D@2@@std@@H@2@AAU32@@Z 00459eb0 f i CommonPathfindingLib:GraphicsBufferManager.obj
 0002:0002ff00       ?select_on_container_copy_construction@?$_Wrap_alloc@V?$allocator@D@std@@@std@@QBE?AU12@U_Nil@2@@Z 00459f00 f i CommonPathfindingLib:GraphicsBufferManager.obj
 0002:0002ff70       ?select_on_container_copy_construction@?$allocator_traits@V?$allocator@D@std@@@std@@SA?AV?$allocator@D@2@ABV32@@Z 00459f70 f i CommonPathfindingLib:GraphicsBufferManager.obj
 0002:0002ffd0       ?size@?$_Tree@V?$_Tmap_traits@HPAVGraphicsBuffer@@U?$less@H@std@@V?$allocator@U?$pair@$$CBHPAVGraphicsBuffer@@@std@@@3@$0A@@std@@@std@@QBEIXZ 00459fd0 f i CommonPathfindingLib:GraphicsBufferManager.obj
 0002:00030030       ?size@?$_Tree@V?$_Tmap_traits@V?$basic_string@DU?$char_traits@D@std@@V?$allocator@D@2@@std@@HU?$less@V?$basic_string@DU?$char_traits@D@std@@V?$allocator@D@2@@std@@@2@V?$allocator@U?$pair@$$CBV?$basic_string@DU?$char_traits@D@std@@V?$allocator@D@2@@std@@H@std@@@2@$0A@@std@@@std@@QBEIXZ 0045a030 f i CommonPathfindingLib:GraphicsBufferManager.obj
 0002:00030090       ??$?0$$V@?$_Compressed_pair@U?$_Wrap_alloc@V?$allocator@U?$_Tree_node@U?$pair@$$CBUALLEGRO_COLOR@@V?$vector@HV?$allocator@H@std@@@std@@@std@@PAX@std@@@std@@@std@@V?$_Tree_val@U?$_Tree_simple_types@U?$pair@$$CBUALLEGRO_COLOR@@V?$vector@HV?$allocator@H@std@@@std@@@std@@@std@@@2@$00@std@@QAE@U_Zero_then_variadic_args_t@1@@Z 0045a090 f i CommonPathfindingLib:GridVisualizer.obj
 0002:000300f0       ??$?0AAU?$_Wrap_alloc@V?$allocator@U?$_Tree_node@U?$pair@$$CBUALLEGRO_COLOR@@V?$vector@HV?$allocator@H@std@@@std@@@std@@PAX@std@@@std@@@std@@@?$_Wrap_alloc@V?$allocator@U_Container_proxy@std@@@std@@@std@@QAE@AAU?$_Wrap_alloc@V?$allocator@U?$_Tree_node@U?$pair@$$CBUALLEGRO_COLOR@@V?$vector@HV?$allocator@H@std@@@std@@@std@@PAX@std@@@std@@@1@@Z 0045a0f0 f i CommonPathfindingLib:GridVisualizer.obj
 0002:00030160       ??$?0AAV?$_Tree_iterator@V?$_Tree_val@U?$_Tree_simple_types@U?$pair@$$CBUALLEGRO_COLOR@@V?$vector@HV?$allocator@H@std@@@std@@@std@@@std@@@std@@@std@@_NX$0A@@?$pair@V?$_Tree_iterator@V?$_Tree_val@U?$_Tree_simple_types@U?$pair@$$CBUALLEGRO_COLOR@@V?$vector@HV?$allocator@H@std@@@std@@@std@@@std@@@std@@@std@@_N@std@@QAE@AAV?$_Tree_iterator@V?$_Tree_val@U?$_Tree_simple_types@U?$pair@$$CBUALLEGRO_COLOR@@V?$vector@HV?$allocator@H@std@@@std@@@std@@@std@@@std@@@1@$$QA_N@Z 0045a160 f i CommonPathfindingLib:GridVisualizer.obj
 0002:000301e0       ??$?0ABUALLEGRO_COLOR@@$$Z$$V@?$pair@$$CBUALLEGRO_COLOR@@V?$vector@HV?$allocator@H@std@@@std@@@std@@QAE@Upiecewise_construct_t@1@V?$tuple@ABUALLEGRO_COLOR@@@1@V?$tuple@$$V@1@@Z 0045a1e0 f i CommonPathfindingLib:GridVisualizer.obj
 0002:00030260       ??$?0ABUALLEGRO_COLOR@@$0A@@?$tuple@ABUALLEGRO_COLOR@@@std@@QAE@ABUALLEGRO_COLOR@@@Z 0045a260 f i CommonPathfindingLib:GridVisualizer.obj
 0002:000302e0       ??$?0ABUALLEGRO_COLOR@@@?$_Tuple_val@ABUALLEGRO_COLOR@@@std@@QAE@ABUALLEGRO_COLOR@@@Z 0045a2e0 f i CommonPathfindingLib:GridVisualizer.obj
 0002:00030340       ??$?0ABVAllegroColorCompare@@U_Zero_then_variadic_args_t@std@@@?$_Compressed_pair@VAllegroColorCompare@@V?$_Compressed_pair@U?$_Wrap_alloc@V?$allocator@U?$_Tree_node@U?$pair@$$CBUALLEGRO_COLOR@@V?$vector@HV?$allocator@H@std@@@std@@@std@@PAX@std@@@std@@@std@@V?$_Tree_val@U?$_Tree_simple_types@U?$pair@$$CBUALLEGRO_COLOR@@V?$vector@HV?$allocator@H@std@@@std@@@std@@@std@@@2@$00@std@@$00@std@@QAE@U_One_then_variadic_args_t@1@ABVAllegroColorCompare@@$$QAU_Zero_then_variadic_args_t@1@@Z 0045a340 f i CommonPathfindingLib:GridVisualizer.obj
 0002:000303c0       ??$?0U?$_Tree_node@U?$pair@$$CBUALLEGRO_COLOR@@V?$vector@HV?$allocator@H@std@@@std@@@std@@PAX@std@@@?$allocator@U_Container_proxy@std@@@std@@QAE@ABV?$allocator@U?$_Tree_node@U?$pair@$$CBUALLEGRO_COLOR@@V?$vector@HV?$allocator@H@std@@@std@@@std@@PAX@std@@@1@@Z 0045a3c0 f i CommonPathfindingLib:GridVisualizer.obj
 0002:00030400       ??$?0V?$_Tree_iterator@V?$_Tree_val@U?$_Tree_simple_types@U?$pair@$$CBUALLEGRO_COLOR@@V?$vector@HV?$allocator@H@std@@@std@@@std@@@std@@@std@@@std@@_NX$0A@@?$pair@V?$_Tree_iterator@V?$_Tree_val@U?$_Tree_simple_types@U?$pair@$$CBUALLEGRO_COLOR@@V?$vector@HV?$allocator@H@std@@@std@@@std@@@std@@@std@@@std@@_N@std@@QAE@$$QAV?$_Tree_iterator@V?$_Tree_val@U?$_Tree_simple_types@U?$pair@$$CBUALLEGRO_COLOR@@V?$vector@HV?$allocator@H@std@@@std@@@std@@@std@@@std@@@1@$$QA_N@Z 0045a400 f i CommonPathfindingLib:GridVisualizer.obj
 0002:00030480       ??$?0V?$allocator@H@std@@@?$_Wrap_alloc@V?$allocator@H@std@@@std@@QAE@$$QAV?$allocator@H@1@@Z 0045a480 f i CommonPathfindingLib:GridVisualizer.obj
 0002:000304f0       ??$?0V?$tuple@ABUALLEGRO_COLOR@@@std@@V?$tuple@$$V@1@$0A@$$Z$S@?$pair@$$CBUALLEGRO_COLOR@@V?$vector@HV?$allocator@H@std@@@std@@@std@@QAE@AAV?$tuple@ABUALLEGRO_COLOR@@@1@AAV?$tuple@$$V@1@U?$integer_sequence@I$0A@@1@U?$integer_sequence@I$S@1@@Z 0045a4f0 f i CommonPathfindingLib:GridVisualizer.obj
 0002:00030590       ??$?8HH@std@@YA_NABV?$allocator@H@0@0@Z 0045a590 f i CommonPathfindingLib:GridVisualizer.obj
 0002:000305c0       ??$?8V?$allocator@H@std@@V01@@std@@YA_NABU?$_Wrap_alloc@V?$allocator@H@std@@@0@0@Z 0045a5c0 f i CommonPathfindingLib:GridVisualizer.obj
 0002:00030620       ??$?9V?$allocator@H@std@@V01@@std@@YA_NABU?$_Wrap_alloc@V?$allocator@H@std@@@0@0@Z 0045a620 f i CommonPathfindingLib:GridVisualizer.obj
 0002:000306a0       ??$_Buynode@ABUpiecewise_construct_t@std@@V?$tuple@ABUALLEGRO_COLOR@@@2@V?$tuple@$$V@2@@?$_Tree_comp_alloc@V?$_Tmap_traits@UALLEGRO_COLOR@@V?$vector@HV?$allocator@H@std@@@std@@VAllegroColorCompare@@V?$allocator@U?$pair@$$CBUALLEGRO_COLOR@@V?$vector@HV?$allocator@H@std@@@std@@@std@@@3@$0A@@std@@@std@@QAEPAU?$_Tree_node@U?$pair@$$CBUALLEGRO_COLOR@@V?$vector@HV?$allocator@H@std@@@std@@@std@@PAX@1@ABUpiecewise_construct_t@1@$$QAV?$tuple@ABUALLEGRO_COLOR@@@1@$$QAV?$tuple@$$V@1@@Z 0045a6a0 f i CommonPathfindingLib:GridVisualizer.obj
 0002:00030810       ??$_Buynode_if_nil@AAU?$pair@$$CBUALLEGRO_COLOR@@V?$vector@HV?$allocator@H@std@@@std@@@std@@@?$_Tree@V?$_Tmap_traits@UALLEGRO_COLOR@@V?$vector@HV?$allocator@H@std@@@std@@VAllegroColorCompare@@V?$allocator@U?$pair@$$CBUALLEGRO_COLOR@@V?$vector@HV?$allocator@H@std@@@std@@@std@@@3@$0A@@std@@@std@@IAEPAU?$_Tree_node@U?$pair@$$CBUALLEGRO_COLOR@@V?$vector@HV?$allocator@H@std@@@std@@@std@@PAX@1@PAU21@AAU?$pair@$$CBUALLEGRO_COLOR@@V?$vector@HV?$allocator@H@std@@@std@@@1@@Z 0045a810 f i CommonPathfindingLib:GridVisualizer.obj
 0002:00030850       ??$_Copy_memmove@PBHPAH@std@@YAPAHPBH0PAH@Z 0045a850 f i CommonPathfindingLib:GridVisualizer.obj
 0002:000308e0       ??$_Copy_unchecked1@PAHPAH@std@@YAPAHPAH00U_Trivially_copyable_ptr_iterator_tag@0@@Z 0045a8e0 f i CommonPathfindingLib:GridVisualizer.obj
 0002:00030940       ??$_Copy_unchecked@PAHPAH@std@@YAPAHPAH00@Z 0045a940 f i CommonPathfindingLib:GridVisualizer.obj
 0002:000309c0       ??$_Debug_lt_pred@AAVAllegroColorCompare@@ABUALLEGRO_COLOR@@ABU2@@std@@YA_NAAVAllegroColorCompare@@ABUALLEGRO_COLOR@@1PB_WI@Z 0045a9c0 f i CommonPathfindingLib:GridVisualizer.obj
 0002:00030aa0       ??$_Debug_lt_pred@ABVAllegroColorCompare@@ABUALLEGRO_COLOR@@ABU2@@std@@YA_NABVAllegroColorCompare@@ABUALLEGRO_COLOR@@1PB_WI@Z 0045aaa0 f i CommonPathfindingLib:GridVisualizer.obj
 0002:00030b80       ??$_Insert_at@AAU?$pair@$$CBUALLEGRO_COLOR@@V?$vector@HV?$allocator@H@std@@@std@@@std@@PAU?$_Tree_node@U?$pair@$$CBUALLEGRO_COLOR@@V?$vector@HV?$allocator@H@std@@@std@@@std@@PAX@2@@?$_Tree@V?$_Tmap_traits@UALLEGRO_COLOR@@V?$vector@HV?$allocator@H@std@@@std@@VAllegroColorCompare@@V?$allocator@U?$pair@$$CBUALLEGRO_COLOR@@V?$vector@HV?$allocator@H@std@@@std@@@std@@@3@$0A@@std@@@std@@IAE?AV?$_Tree_iterator@V?$_Tree_val@U?$_Tree_simple_types@U?$pair@$$CBUALLEGRO_COLOR@@V?$vector@HV?$allocator@H@std@@@std@@@std@@@std@@@std@@@1@_NPAU?$_Tree_node@U?$pair@$$CBUALLEGRO_COLOR@@V?$vector@HV?$allocator@H@std@@@std@@@std@@PAX@1@AAU?$pair@$$CBUALLEGRO_COLOR@@V?$vector@HV?$allocator@H@std@@@std@@@1@1@Z 0045ab80 f i CommonPathfindingLib:GridVisualizer.obj
 0002:00031140       ??$_Insert_hint@AAU?$pair@$$CBUALLEGRO_COLOR@@V?$vector@HV?$allocator@H@std@@@std@@@std@@PAU?$_Tree_node@U?$pair@$$CBUALLEGRO_COLOR@@V?$vector@HV?$allocator@H@std@@@std@@@std@@PAX@2@@?$_Tree@V?$_Tmap_traits@UALLEGRO_COLOR@@V?$vector@HV?$allocator@H@std@@@std@@VAllegroColorCompare@@V?$allocator@U?$pair@$$CBUALLEGRO_COLOR@@V?$vector@HV?$allocator@H@std@@@std@@@std@@@3@$0A@@std@@@std@@IAE?AV?$_Tree_iterator@V?$_Tree_val@U?$_Tree_simple_types@U?$pair@$$CBUALLEGRO_COLOR@@V?$vector@HV?$allocator@H@std@@@std@@@std@@@std@@@std@@@1@V?$_Tree_const_iterator@V?$_Tree_val@U?$_Tree_simple_types@U?$pair@$$CBUALLEGRO_COLOR@@V?$vector@HV?$allocator@H@std@@@std@@@std@@@std@@@std@@@1@AAU?$pair@$$CBUALLEGRO_COLOR@@V?$vector@HV?$allocator@H@std@@@std@@@1@PAU?$_Tree_node@U?$pair@$$CBUALLEGRO_COLOR@@V?$vector@HV?$allocator@H@std@@@std@@@std@@PAX@1@@Z 0045b140 f i CommonPathfindingLib:GridVisualizer.obj
 0002:00032690       ??$_Insert_nohint@AAU?$pair@$$CBUALLEGRO_COLOR@@V?$vector@HV?$allocator@H@std@@@std@@@std@@PAU?$_Tree_node@U?$pair@$$CBUALLEGRO_COLOR@@V?$vector@HV?$allocator@H@std@@@std@@@std@@PAX@2@@?$_Tree@V?$_Tmap_traits@UALLEGRO_COLOR@@V?$vector@HV?$allocator@H@std@@@std@@VAllegroColorCompare@@V?$allocator@U?$pair@$$CBUALLEGRO_COLOR@@V?$vector@HV?$allocator@H@std@@@std@@@std@@@3@$0A@@std@@@std@@IAE?AU?$pair@V?$_Tree_iterator@V?$_Tree_val@U?$_Tree_simple_types@U?$pair@$$CBUALLEGRO_COLOR@@V?$vector@HV?$allocator@H@std@@@std@@@std@@@std@@@std@@@std@@_N@1@_NAAU?$pair@$$CBUALLEGRO_COLOR@@V?$vector@HV?$allocator@H@std@@@std@@@1@PAU?$_Tree_node@U?$pair@$$CBUALLEGRO_COLOR@@V?$vector@HV?$allocator@H@std@@@std@@@std@@PAX@1@@Z 0045c690 f i CommonPathfindingLib:GridVisualizer.obj
 0002:00032d60       ??$_Kfn@$$CBUALLEGRO_COLOR@@V?$vector@HV?$allocator@H@std@@@std@@@?$_Tmap_traits@UALLEGRO_COLOR@@V?$vector@HV?$allocator@H@std@@@std@@VAllegroColorCompare@@V?$allocator@U?$pair@$$CBUALLEGRO_COLOR@@V?$vector@HV?$allocator@H@std@@@std@@@std@@@3@$0A@@std@@SAABUALLEGRO_COLOR@@ABU?$pair@$$CBUALLEGRO_COLOR@@V?$vector@HV?$allocator@H@std@@@std@@@1@@Z 0045cd60 f i CommonPathfindingLib:GridVisualizer.obj
 0002:00032da0       ??$_Lbound@UALLEGRO_COLOR@@@?$_Tree@V?$_Tmap_traits@UALLEGRO_COLOR@@V?$vector@HV?$allocator@H@std@@@std@@VAllegroColorCompare@@V?$allocator@U?$pair@$$CBUALLEGRO_COLOR@@V?$vector@HV?$allocator@H@std@@@std@@@std@@@3@$0A@@std@@@std@@IBEPAU?$_Tree_node@U?$pair@$$CBUALLEGRO_COLOR@@V?$vector@HV?$allocator@H@std@@@std@@@std@@PAX@1@ABUALLEGRO_COLOR@@@Z 0045cda0 f i CommonPathfindingLib:GridVisualizer.obj
 0002:00032e90       ??$_Pocca@U?$_Wrap_alloc@V?$allocator@H@std@@@std@@@std@@YAXAAU?$_Wrap_alloc@V?$allocator@H@std@@@0@ABU10@@Z 0045ce90 f i CommonPathfindingLib:GridVisualizer.obj
 0002:00032f20       ??$_Pocca@U?$_Wrap_alloc@V?$allocator@H@std@@@std@@@std@@YAXAAU?$_Wrap_alloc@V?$allocator@H@std@@@0@ABU10@U?$integral_constant@_N$0A@@0@@Z 0045cf20 f i CommonPathfindingLib:GridVisualizer.obj
 0002:00032f50       ??$_Ptr_copy_cat@$$CBHH@std@@YA?AU_Really_trivial_ptr_iterator_tag@0@ABQBHABQAH@Z 0045cf50 f i CommonPathfindingLib:GridVisualizer.obj
 0002:00032f90       ??$_Ptr_copy_cat@HH@std@@YA?AU_Really_trivial_ptr_iterator_tag@0@ABQAH0@Z 0045cf90 f i CommonPathfindingLib:GridVisualizer.obj
 0002:00032fd0       ??$_Try_emplace@ABUALLEGRO_COLOR@@$$V@?$map@UALLEGRO_COLOR@@V?$vector@HV?$allocator@H@std@@@std@@VAllegroColorCompare@@V?$allocator@U?$pair@$$CBUALLEGRO_COLOR@@V?$vector@HV?$allocator@H@std@@@std@@@std@@@3@@std@@QAE?AU?$pair@V?$_Tree_iterator@V?$_Tree_val@U?$_Tree_simple_types@U?$pair@$$CBUALLEGRO_COLOR@@V?$vector@HV?$allocator@H@std@@@std@@@std@@@std@@@std@@@std@@_N@1@ABUALLEGRO_COLOR@@@Z 0045cfd0 f i CommonPathfindingLib:GridVisualizer.obj
 0002:00033320       ??$_Ucopy@PAH@?$vector@HV?$allocator@H@std@@@std@@IAEPAHPAH00@Z 0045d320 f i CommonPathfindingLib:GridVisualizer.obj
 0002:00033390       ??$_Ucopy@V?$_Vector_const_iterator@V?$_Vector_val@U?$_Simple_types@H@std@@@std@@@std@@@?$vector@HV?$allocator@H@std@@@std@@IAEPAHV?$_Vector_const_iterator@V?$_Vector_val@U?$_Simple_types@H@std@@@std@@@1@0PAH@Z 0045d390 f i CommonPathfindingLib:GridVisualizer.obj
 0002:000334d0       ??$_Unchecked@V?$_Vector_val@U?$_Simple_types@H@std@@@std@@@std@@YAPBHV?$_Vector_const_iterator@V?$_Vector_val@U?$_Simple_types@H@std@@@std@@@0@@Z 0045d4d0 f i CommonPathfindingLib:GridVisualizer.obj
 0002:00033580       ??$_Uninitialized_copy@PAHPAHV?$allocator@H@std@@@std@@YAPAHPAH00AAU?$_Wrap_alloc@V?$allocator@H@std@@@0@@Z 0045d580 f i CommonPathfindingLib:GridVisualizer.obj
 0002:00033620       ??$_Uninitialized_copy@V?$_Vector_const_iterator@V?$_Vector_val@U?$_Simple_types@H@std@@@std@@@std@@PAHV?$allocator@H@2@@std@@YAPAHV?$_Vector_const_iterator@V?$_Vector_val@U?$_Simple_types@H@std@@@std@@@0@0PAHAAU?$_Wrap_alloc@V?$allocator@H@std@@@0@@Z 0045d620 f i CommonPathfindingLib:GridVisualizer.obj
 0002:00033790       ??$_Uninitialized_copy_al_unchecked1@$$CBHHV?$allocator@H@std@@@std@@YAPAHPBH0PAHAAU?$_Wrap_alloc@V?$allocator@H@std@@@0@U_Really_trivial_ptr_iterator_tag@0@U?$integral_constant@_N$00@0@@Z 0045d790 f i CommonPathfindingLib:GridVisualizer.obj
 0002:000337f0       ??$_Uninitialized_copy_al_unchecked1@HHV?$allocator@H@std@@@std@@YAPAHPAH00AAU?$_Wrap_alloc@V?$allocator@H@std@@@0@U_Really_trivial_ptr_iterator_tag@0@U?$integral_constant@_N$00@0@@Z 0045d7f0 f i CommonPathfindingLib:GridVisualizer.obj
 0002:00033850       ??$_Uninitialized_copy_al_unchecked@PAHPAHV?$allocator@H@std@@@std@@YAPAHPAH00AAU?$_Wrap_alloc@V?$allocator@H@std@@@0@@Z 0045d850 f i CommonPathfindingLib:GridVisualizer.obj
 0002:000338e0       ??$_Uninitialized_copy_al_unchecked@PBHPAHV?$allocator@H@std@@@std@@YAPAHPBH0PAHAAU?$_Wrap_alloc@V?$allocator@H@std@@@0@@Z 0045d8e0 f i CommonPathfindingLib:GridVisualizer.obj
 0002:00033970       ??$addressof@PAU?$_Tree_node@U?$pair@$$CBUALLEGRO_COLOR@@V?$vector@HV?$allocator@H@std@@@std@@@std@@PAX@std@@@std@@YAPAPAU?$_Tree_node@U?$pair@$$CBUALLEGRO_COLOR@@V?$vector@HV?$allocator@H@std@@@std@@@std@@PAX@0@AAPAU10@@Z 0045d970 f i CommonPathfindingLib:GridVisualizer.obj
 0002:000339b0       ??$addressof@U?$pair@$$CBUALLEGRO_COLOR@@V?$vector@HV?$allocator@H@std@@@std@@@std@@@std@@YAPAU?$pair@$$CBUALLEGRO_COLOR@@V?$vector@HV?$allocator@H@std@@@std@@@0@AAU10@@Z 0045d9b0 f i CommonPathfindingLib:GridVisualizer.obj
 0002:000339f0       ??$construct@PAU?$_Tree_node@U?$pair@$$CBUALLEGRO_COLOR@@V?$vector@HV?$allocator@H@std@@@std@@@std@@PAX@std@@AAPAU12@@?$_Wrap_alloc@V?$allocator@U?$_Tree_node@U?$pair@$$CBUALLEGRO_COLOR@@V?$vector@HV?$allocator@H@std@@@std@@@std@@PAX@std@@@std@@@std@@QAEXPAPAU?$_Tree_node@U?$pair@$$CBUALLEGRO_COLOR@@V?$vector@HV?$allocator@H@std@@@std@@@std@@PAX@1@AAPAU21@@Z 0045d9f0 f i CommonPathfindingLib:GridVisualizer.obj
 0002:00033a60       ??$construct@PAU?$_Tree_node@U?$pair@$$CBUALLEGRO_COLOR@@V?$vector@HV?$allocator@H@std@@@std@@@std@@PAX@std@@AAPAU12@@?$allocator@U?$_Tree_node@U?$pair@$$CBUALLEGRO_COLOR@@V?$vector@HV?$allocator@H@std@@@std@@@std@@PAX@std@@@std@@QAEXPAPAU?$_Tree_node@U?$pair@$$CBUALLEGRO_COLOR@@V?$vector@HV?$allocator@H@std@@@std@@@std@@PAX@1@AAPAU21@@Z 0045da60 f i CommonPathfindingLib:GridVisualizer.obj
 0002:00033b10       ??$construct@PAU?$_Tree_node@U?$pair@$$CBUALLEGRO_COLOR@@V?$vector@HV?$allocator@H@std@@@std@@@std@@PAX@std@@AAPAU12@@?$allocator_traits@V?$allocator@U?$_Tree_node@U?$pair@$$CBUALLEGRO_COLOR@@V?$vector@HV?$allocator@H@std@@@std@@@std@@PAX@std@@@std@@@std@@SAXAAV?$allocator@U?$_Tree_node@U?$pair@$$CBUALLEGRO_COLOR@@V?$vector@HV?$allocator@H@std@@@std@@@std@@PAX@std@@@1@PAPAU?$_Tree_node@U?$pair@$$CBUALLEGRO_COLOR@@V?$vector@HV?$allocator@H@std@@@std@@@std@@PAX@1@AAPAU31@@Z 0045db10 f i CommonPathfindingLib:GridVisualizer.obj
 0002:00033b70       ??$construct@U?$pair@$$CBUALLEGRO_COLOR@@V?$vector@HV?$allocator@H@std@@@std@@@std@@ABUpiecewise_construct_t@2@V?$tuple@ABUALLEGRO_COLOR@@@2@V?$tuple@$$V@2@@?$_Wrap_alloc@V?$allocator@U?$_Tree_node@U?$pair@$$CBUALLEGRO_COLOR@@V?$vector@HV?$allocator@H@std@@@std@@@std@@PAX@std@@@std@@@std@@QAEXPAU?$pair@$$CBUALLEGRO_COLOR@@V?$vector@HV?$allocator@H@std@@@std@@@1@ABUpiecewise_construct_t@1@$$QAV?$tuple@ABUALLEGRO_COLOR@@@1@$$QAV?$tuple@$$V@1@@Z 0045db70 f i CommonPathfindingLib:GridVisualizer.obj
 0002:00033c00       ??$construct@U?$pair@$$CBUALLEGRO_COLOR@@V?$vector@HV?$allocator@H@std@@@std@@@std@@ABUpiecewise_construct_t@2@V?$tuple@ABUALLEGRO_COLOR@@@2@V?$tuple@$$V@2@@?$allocator@U?$_Tree_node@U?$pair@$$CBUALLEGRO_COLOR@@V?$vector@HV?$allocator@H@std@@@std@@@std@@PAX@std@@@std@@QAEXPAU?$pair@$$CBUALLEGRO_COLOR@@V?$vector@HV?$allocator@H@std@@@std@@@1@ABUpiecewise_construct_t@1@$$QAV?$tuple@ABUALLEGRO_COLOR@@@1@$$QAV?$tuple@$$V@1@@Z 0045dc00 f i CommonPathfindingLib:GridVisualizer.obj
 0002:00033d40       ??$construct@U?$pair@$$CBUALLEGRO_COLOR@@V?$vector@HV?$allocator@H@std@@@std@@@std@@ABUpiecewise_construct_t@2@V?$tuple@ABUALLEGRO_COLOR@@@2@V?$tuple@$$V@2@@?$allocator_traits@V?$allocator@U?$_Tree_node@U?$pair@$$CBUALLEGRO_COLOR@@V?$vector@HV?$allocator@H@std@@@std@@@std@@PAX@std@@@std@@@std@@SAXAAV?$allocator@U?$_Tree_node@U?$pair@$$CBUALLEGRO_COLOR@@V?$vector@HV?$allocator@H@std@@@std@@@std@@PAX@std@@@1@PAU?$pair@$$CBUALLEGRO_COLOR@@V?$vector@HV?$allocator@H@std@@@std@@@1@ABUpiecewise_construct_t@1@$$QAV?$tuple@ABUALLEGRO_COLOR@@@1@$$QAV?$tuple@$$V@1@@Z 0045dd40 f i CommonPathfindingLib:GridVisualizer.obj
 0002:00033dc0       ??$destroy@PAU?$_Tree_node@U?$pair@$$CBUALLEGRO_COLOR@@V?$vector@HV?$allocator@H@std@@@std@@@std@@PAX@std@@@?$_Wrap_alloc@V?$allocator@U?$_Tree_node@U?$pair@$$CBUALLEGRO_COLOR@@V?$vector@HV?$allocator@H@std@@@std@@@std@@PAX@std@@@std@@@std@@QAEXPAPAU?$_Tree_node@U?$pair@$$CBUALLEGRO_COLOR@@V?$vector@HV?$allocator@H@std@@@std@@@std@@PAX@1@@Z 0045ddc0 f i CommonPathfindingLib:GridVisualizer.obj
 0002:00033e20       ??$destroy@PAU?$_Tree_node@U?$pair@$$CBUALLEGRO_COLOR@@V?$vector@HV?$allocator@H@std@@@std@@@std@@PAX@std@@@?$allocator@U?$_Tree_node@U?$pair@$$CBUALLEGRO_COLOR@@V?$vector@HV?$allocator@H@std@@@std@@@std@@PAX@std@@@std@@QAEXPAPAU?$_Tree_node@U?$pair@$$CBUALLEGRO_COLOR@@V?$vector@HV?$allocator@H@std@@@std@@@std@@PAX@1@@Z 0045de20 f i CommonPathfindingLib:GridVisualizer.obj
 0002:00033e60       ??$destroy@PAU?$_Tree_node@U?$pair@$$CBUALLEGRO_COLOR@@V?$vector@HV?$allocator@H@std@@@std@@@std@@PAX@std@@@?$allocator_traits@V?$allocator@U?$_Tree_node@U?$pair@$$CBUALLEGRO_COLOR@@V?$vector@HV?$allocator@H@std@@@std@@@std@@PAX@std@@@std@@@std@@SAXAAV?$allocator@U?$_Tree_node@U?$pair@$$CBUALLEGRO_COLOR@@V?$vector@HV?$allocator@H@std@@@std@@@std@@PAX@std@@@1@PAPAU?$_Tree_node@U?$pair@$$CBUALLEGRO_COLOR@@V?$vector@HV?$allocator@H@std@@@std@@@std@@PAX@1@@Z 0045de60 f i CommonPathfindingLib:GridVisualizer.obj
 0002:00033eb0       ??$destroy@U?$pair@$$CBUALLEGRO_COLOR@@V?$vector@HV?$allocator@H@std@@@std@@@std@@@?$_Wrap_alloc@V?$allocator@U?$_Tree_node@U?$pair@$$CBUALLEGRO_COLOR@@V?$vector@HV?$allocator@H@std@@@std@@@std@@PAX@std@@@std@@@std@@QAEXPAU?$pair@$$CBUALLEGRO_COLOR@@V?$vector@HV?$allocator@H@std@@@std@@@1@@Z 0045deb0 f i CommonPathfindingLib:GridVisualizer.obj
 0002:00033f10       ??$destroy@U?$pair@$$CBUALLEGRO_COLOR@@V?$vector@HV?$allocator@H@std@@@std@@@std@@@?$allocator@U?$_Tree_node@U?$pair@$$CBUALLEGRO_COLOR@@V?$vector@HV?$allocator@H@std@@@std@@@std@@PAX@std@@@std@@QAEXPAU?$pair@$$CBUALLEGRO_COLOR@@V?$vector@HV?$allocator@H@std@@@std@@@1@@Z 0045df10 f i CommonPathfindingLib:GridVisualizer.obj
 0002:00033f70       ??$destroy@U?$pair@$$CBUALLEGRO_COLOR@@V?$vector@HV?$allocator@H@std@@@std@@@std@@@?$allocator_traits@V?$allocator@U?$_Tree_node@U?$pair@$$CBUALLEGRO_COLOR@@V?$vector@HV?$allocator@H@std@@@std@@@std@@PAX@std@@@std@@@std@@SAXAAV?$allocator@U?$_Tree_node@U?$pair@$$CBUALLEGRO_COLOR@@V?$vector@HV?$allocator@H@std@@@std@@@std@@PAX@std@@@1@PAU?$pair@$$CBUALLEGRO_COLOR@@V?$vector@HV?$allocator@H@std@@@std@@@1@@Z 0045df70 f i CommonPathfindingLib:GridVisualizer.obj
 0002:00033fc0       ??$emplace_hint@ABUpiecewise_construct_t@std@@V?$tuple@ABUALLEGRO_COLOR@@@2@V?$tuple@$$V@2@@?$_Tree@V?$_Tmap_traits@UALLEGRO_COLOR@@V?$vector@HV?$allocator@H@std@@@std@@VAllegroColorCompare@@V?$allocator@U?$pair@$$CBUALLEGRO_COLOR@@V?$vector@HV?$allocator@H@std@@@std@@@std@@@3@$0A@@std@@@std@@QAE?AV?$_Tree_iterator@V?$_Tree_val@U?$_Tree_simple_types@U?$pair@$$CBUALLEGRO_COLOR@@V?$vector@HV?$allocator@H@std@@@std@@@std@@@std@@@std@@@1@V?$_Tree_const_iterator@V?$_Tree_val@U?$_Tree_simple_types@U?$pair@$$CBUALLEGRO_COLOR@@V?$vector@HV?$allocator@H@std@@@std@@@std@@@std@@@std@@@1@ABUpiecewise_construct_t@1@$$QAV?$tuple@ABUALLEGRO_COLOR@@@1@$$QAV?$tuple@$$V@1@@Z 0045dfc0 f i CommonPathfindingLib:GridVisualizer.obj
 0002:00034110       ??$forward@AAPAU?$_Tree_node@U?$pair@$$CBUALLEGRO_COLOR@@V?$vector@HV?$allocator@H@std@@@std@@@std@@PAX@std@@@std@@YAAAPAU?$_Tree_node@U?$pair@$$CBUALLEGRO_COLOR@@V?$vector@HV?$allocator@H@std@@@std@@@std@@PAX@0@AAPAU10@@Z 0045e110 f i CommonPathfindingLib:GridVisualizer.obj
 0002:00034150       ??$forward@AAU?$_Wrap_alloc@V?$allocator@U?$_Tree_node@U?$pair@$$CBUALLEGRO_COLOR@@V?$vector@HV?$allocator@H@std@@@std@@@std@@PAX@std@@@std@@@std@@@std@@YAAAU?$_Wrap_alloc@V?$allocator@U?$_Tree_node@U?$pair@$$CBUALLEGRO_COLOR@@V?$vector@HV?$allocator@H@std@@@std@@@std@@PAX@std@@@std@@@0@AAU10@@Z 0045e150 f i CommonPathfindingLib:GridVisualizer.obj
 0002:00034190       ??$forward@AAU?$pair@$$CBUALLEGRO_COLOR@@V?$vector@HV?$allocator@H@std@@@std@@@std@@@std@@YAAAU?$pair@$$CBUALLEGRO_COLOR@@V?$vector@HV?$allocator@H@std@@@std@@@0@AAU10@@Z 0045e190 f i CommonPathfindingLib:GridVisualizer.obj
 0002:000341d0       ??$forward@AAV?$_Tree_iterator@V?$_Tree_val@U?$_Tree_simple_types@U?$pair@$$CBUALLEGRO_COLOR@@V?$vector@HV?$allocator@H@std@@@std@@@std@@@std@@@std@@@std@@@std@@YAAAV?$_Tree_iterator@V?$_Tree_val@U?$_Tree_simple_types@U?$pair@$$CBUALLEGRO_COLOR@@V?$vector@HV?$allocator@H@std@@@std@@@std@@@std@@@std@@@0@AAV10@@Z 0045e1d0 f i CommonPathfindingLib:GridVisualizer.obj
 0002:00034210       ??$forward@ABUALLEGRO_COLOR@@@std@@YAABUALLEGRO_COLOR@@ABU1@@Z 0045e210 f i CommonPathfindingLib:GridVisualizer.obj
 0002:00034250       ??$forward@ABVAllegroColorCompare@@@std@@YAABVAllegroColorCompare@@ABV1@@Z 0045e250 f i CommonPathfindingLib:GridVisualizer.obj
 0002:00034290       ??$forward@V?$_Tree_iterator@V?$_Tree_val@U?$_Tree_simple_types@U?$pair@$$CBUALLEGRO_COLOR@@V?$vector@HV?$allocator@H@std@@@std@@@std@@@std@@@std@@@std@@@std@@YA$$QAV?$_Tree_iterator@V?$_Tree_val@U?$_Tree_simple_types@U?$pair@$$CBUALLEGRO_COLOR@@V?$vector@HV?$allocator@H@std@@@std@@@std@@@std@@@std@@@0@AAV10@@Z 0045e290 f i CommonPathfindingLib:GridVisualizer.obj
 0002:000342d0       ??$forward@V?$allocator@H@std@@@std@@YA$$QAV?$allocator@H@0@AAV10@@Z 0045e2d0 f i CommonPathfindingLib:GridVisualizer.obj
 0002:00034310       ??$forward@V?$tuple@ABUALLEGRO_COLOR@@@std@@@std@@YA$$QAV?$tuple@ABUALLEGRO_COLOR@@@0@AAV10@@Z 0045e310 f i CommonPathfindingLib:GridVisualizer.obj
 0002:00034350       ??$forward_as_tuple@ABUALLEGRO_COLOR@@@std@@YA?AV?$tuple@ABUALLEGRO_COLOR@@@0@ABUALLEGRO_COLOR@@@Z 0045e350 f i CommonPathfindingLib:GridVisualizer.obj
 0002:000343f0       ??$get@$0A@ABUALLEGRO_COLOR@@@std@@YAABUALLEGRO_COLOR@@$$QAV?$tuple@ABUALLEGRO_COLOR@@@0@@Z 0045e3f0 f i CommonPathfindingLib:GridVisualizer.obj
 0002:00034440       ??$move@AAV?$tuple@ABUALLEGRO_COLOR@@@std@@@std@@YA$$QAV?$tuple@ABUALLEGRO_COLOR@@@0@AAV10@@Z 0045e440 f i CommonPathfindingLib:GridVisualizer.obj
 0002:00034480       ??$try_emplace@$$V@?$map@UALLEGRO_COLOR@@V?$vector@HV?$allocator@H@std@@@std@@VAllegroColorCompare@@V?$allocator@U?$pair@$$CBUALLEGRO_COLOR@@V?$vector@HV?$allocator@H@std@@@std@@@std@@@3@@std@@QAE?AU?$pair@V?$_Tree_iterator@V?$_Tree_val@U?$_Tree_simple_types@U?$pair@$$CBUALLEGRO_COLOR@@V?$vector@HV?$allocator@H@std@@@std@@@std@@@std@@@std@@@std@@_N@1@ABUALLEGRO_COLOR@@@Z 0045e480 f i CommonPathfindingLib:GridVisualizer.obj
 0002:00034500       ??0?$_Iterator012@Ubidirectional_iterator_tag@std@@U?$pair@$$CBUALLEGRO_COLOR@@V?$vector@HV?$allocator@H@std@@@std@@@2@HPBU32@ABU32@U_Iterator_base12@2@@std@@QAE@$$QAU01@@Z 0045e500 f i CommonPathfindingLib:GridVisualizer.obj
 0002:00034560       ??0?$_Iterator012@Ubidirectional_iterator_tag@std@@U?$pair@$$CBUALLEGRO_COLOR@@V?$vector@HV?$allocator@H@std@@@std@@@2@HPBU32@ABU32@U_Iterator_base12@2@@std@@QAE@ABU01@@Z 0045e560 f i CommonPathfindingLib:GridVisualizer.obj
 0002:000345c0       ??0?$_Iterator012@Ubidirectional_iterator_tag@std@@U?$pair@$$CBUALLEGRO_COLOR@@V?$vector@HV?$allocator@H@std@@@std@@@2@HPBU32@ABU32@U_Iterator_base12@2@@std@@QAE@XZ 0045e5c0 f i CommonPathfindingLib:GridVisualizer.obj
 0002:00034620       ??0?$_Iterator012@Urandom_access_iterator_tag@std@@HHPBHABHU_Iterator_base12@2@@std@@QAE@ABU01@@Z 0045e620 f i CommonPathfindingLib:GridVisualizer.obj
 0002:00034680       ??0?$_Iterator012@Urandom_access_iterator_tag@std@@HHPBHABHU_Iterator_base12@2@@std@@QAE@XZ 0045e680 f i CommonPathfindingLib:GridVisualizer.obj
 0002:000346e0       ??0?$_Tree@V?$_Tmap_traits@UALLEGRO_COLOR@@V?$vector@HV?$allocator@H@std@@@std@@VAllegroColorCompare@@V?$allocator@U?$pair@$$CBUALLEGRO_COLOR@@V?$vector@HV?$allocator@H@std@@@std@@@std@@@3@$0A@@std@@@std@@QAE@ABVAllegroColorCompare@@@Z 0045e6e0 f i CommonPathfindingLib:GridVisualizer.obj
 0002:00034740       ??0?$_Tree_comp_alloc@V?$_Tmap_traits@UALLEGRO_COLOR@@V?$vector@HV?$allocator@H@std@@@std@@VAllegroColorCompare@@V?$allocator@U?$pair@$$CBUALLEGRO_COLOR@@V?$vector@HV?$allocator@H@std@@@std@@@std@@@3@$0A@@std@@@std@@QAE@ABVAllegroColorCompare@@@Z 0045e740 f i CommonPathfindingLib:GridVisualizer.obj
 0002:00034800       ??0?$_Tree_const_iterator@V?$_Tree_val@U?$_Tree_simple_types@U?$pair@$$CBUALLEGRO_COLOR@@V?$vector@HV?$allocator@H@std@@@std@@@std@@@std@@@std@@@std@@QAE@$$QAV01@@Z 0045e800 f i CommonPathfindingLib:GridVisualizer.obj
 0002:00034860       ??0?$_Tree_const_iterator@V?$_Tree_val@U?$_Tree_simple_types@U?$pair@$$CBUALLEGRO_COLOR@@V?$vector@HV?$allocator@H@std@@@std@@@std@@@std@@@std@@@std@@QAE@ABV01@@Z 0045e860 f i CommonPathfindingLib:GridVisualizer.obj
 0002:000348c0       ??0?$_Tree_const_iterator@V?$_Tree_val@U?$_Tree_simple_types@U?$pair@$$CBUALLEGRO_COLOR@@V?$vector@HV?$allocator@H@std@@@std@@@std@@@std@@@std@@@std@@QAE@PAU?$_Tree_node@U?$pair@$$CBUALLEGRO_COLOR@@V?$vector@HV?$allocator@H@std@@@std@@@std@@PAX@1@PBV?$_Tree_val@U?$_Tree_simple_types@U?$pair@$$CBUALLEGRO_COLOR@@V?$vector@HV?$allocator@H@std@@@std@@@std@@@std@@@1@@Z 0045e8c0 f i CommonPathfindingLib:GridVisualizer.obj
 0002:00034920       ??0?$_Tree_const_iterator@V?$_Tree_val@U?$_Tree_simple_types@U?$pair@$$CBUALLEGRO_COLOR@@V?$vector@HV?$allocator@H@std@@@std@@@std@@@std@@@std@@@std@@QAE@XZ 0045e920 f i CommonPathfindingLib:GridVisualizer.obj
 0002:00034980       ??0?$_Tree_iterator@V?$_Tree_val@U?$_Tree_simple_types@U?$pair@$$CBUALLEGRO_COLOR@@V?$vector@HV?$allocator@H@std@@@std@@@std@@@std@@@std@@@std@@QAE@$$QAV01@@Z 0045e980 f i CommonPathfindingLib:GridVisualizer.obj
 0002:000349e0       ??0?$_Tree_iterator@V?$_Tree_val@U?$_Tree_simple_types@U?$pair@$$CBUALLEGRO_COLOR@@V?$vector@HV?$allocator@H@std@@@std@@@std@@@std@@@std@@@std@@QAE@ABV01@@Z 0045e9e0 f i CommonPathfindingLib:GridVisualizer.obj
 0002:00034a40       ??0?$_Tree_iterator@V?$_Tree_val@U?$_Tree_simple_types@U?$pair@$$CBUALLEGRO_COLOR@@V?$vector@HV?$allocator@H@std@@@std@@@std@@@std@@@std@@@std@@QAE@PAU?$_Tree_node@U?$pair@$$CBUALLEGRO_COLOR@@V?$vector@HV?$allocator@H@std@@@std@@@std@@PAX@1@PBV?$_Tree_val@U?$_Tree_simple_types@U?$pair@$$CBUALLEGRO_COLOR@@V?$vector@HV?$allocator@H@std@@@std@@@std@@@std@@@1@@Z 0045ea40 f i CommonPathfindingLib:GridVisualizer.obj
 0002:00034aa0       ??0?$_Tree_iterator@V?$_Tree_val@U?$_Tree_simple_types@U?$pair@$$CBUALLEGRO_COLOR@@V?$vector@HV?$allocator@H@std@@@std@@@std@@@std@@@std@@@std@@QAE@XZ 0045eaa0 f i CommonPathfindingLib:GridVisualizer.obj
 0002:00034b00       ??0?$_Tree_unchecked_const_iterator@V?$_Tree_val@U?$_Tree_simple_types@U?$pair@$$CBUALLEGRO_COLOR@@V?$vector@HV?$allocator@H@std@@@std@@@std@@@std@@@std@@U_Iterator_base12@2@@std@@QAE@$$QAV01@@Z 0045eb00 f i CommonPathfindingLib:GridVisualizer.obj
 0002:00034b70       ??0?$_Tree_unchecked_const_iterator@V?$_Tree_val@U?$_Tree_simple_types@U?$pair@$$CBUALLEGRO_COLOR@@V?$vector@HV?$allocator@H@std@@@std@@@std@@@std@@@std@@U_Iterator_base12@2@@std@@QAE@ABV01@@Z 0045eb70 f i CommonPathfindingLib:GridVisualizer.obj
 0002:00034be0       ??0?$_Tree_unchecked_const_iterator@V?$_Tree_val@U?$_Tree_simple_types@U?$pair@$$CBUALLEGRO_COLOR@@V?$vector@HV?$allocator@H@std@@@std@@@std@@@std@@@std@@U_Iterator_base12@2@@std@@QAE@PAU?$_Tree_node@U?$pair@$$CBUALLEGRO_COLOR@@V?$vector@HV?$allocator@H@std@@@std@@@std@@PAX@1@PBV?$_Tree_val@U?$_Tree_simple_types@U?$pair@$$CBUALLEGRO_COLOR@@V?$vector@HV?$allocator@H@std@@@std@@@std@@@std@@@1@@Z 0045ebe0 f i CommonPathfindingLib:GridVisualizer.obj
 0002:00034ca0       ??0?$_Tree_unchecked_const_iterator@V?$_Tree_val@U?$_Tree_simple_types@U?$pair@$$CBUALLEGRO_COLOR@@V?$vector@HV?$allocator@H@std@@@std@@@std@@@std@@@std@@U_Iterator_base12@2@@std@@QAE@XZ 0045eca0 f i CommonPathfindingLib:GridVisualizer.obj
 0002:00034d00       ??0?$_Tree_val@U?$_Tree_simple_types@U?$pair@$$CBUALLEGRO_COLOR@@V?$vector@HV?$allocator@H@std@@@std@@@std@@@std@@@std@@QAE@XZ 0045ed00 f i CommonPathfindingLib:GridVisualizer.obj
 0002:00034d70       ??0?$_Vector_const_iterator@V?$_Vector_val@U?$_Simple_types@H@std@@@std@@@std@@QAE@ABV01@@Z 0045ed70 f i CommonPathfindingLib:GridVisualizer.obj
 0002:00034de0       ??0?$_Vector_const_iterator@V?$_Vector_val@U?$_Simple_types@H@std@@@std@@@std@@QAE@PAHPBU_Container_base12@1@@Z 0045ede0 f i CommonPathfindingLib:GridVisualizer.obj
 0002:00034ea0       ??0?$_Wrap_alloc@V?$allocator@U?$_Tree_node@U?$pair@$$CBUALLEGRO_COLOR@@V?$vector@HV?$allocator@H@std@@@std@@@std@@PAX@std@@@std@@@std@@QAE@XZ 0045eea0 f i CommonPathfindingLib:GridVisualizer.obj
 0002:00034f00       ??0?$allocator@U?$_Tree_node@U?$pair@$$CBUALLEGRO_COLOR@@V?$vector@HV?$allocator@H@std@@@std@@@std@@PAX@std@@@std@@QAE@XZ 0045ef00 f i CommonPathfindingLib:GridVisualizer.obj
 0002:00034f40       ??0?$map@UALLEGRO_COLOR@@V?$vector@HV?$allocator@H@std@@@std@@VAllegroColorCompare@@V?$allocator@U?$pair@$$CBUALLEGRO_COLOR@@V?$vector@HV?$allocator@H@std@@@std@@@std@@@3@@std@@QAE@XZ 0045ef40 f i CommonPathfindingLib:GridVisualizer.obj
 0002:00034fa0       ??0?$tuple@ABUALLEGRO_COLOR@@@std@@QAE@$$QAV01@@Z 0045efa0 f i CommonPathfindingLib:GridVisualizer.obj
 0002:00035010       ??0?$vector@HV?$allocator@H@std@@@std@@QAE@ABV01@@Z 0045f010 f i CommonPathfindingLib:GridVisualizer.obj
 0002:000351b0       ??0GridVisualizer@@QAE@PAVGrid@@@Z 0045f1b0 f   CommonPathfindingLib:GridVisualizer.obj
 0002:00035230       ??1?$_Compressed_pair@U?$_Wrap_alloc@V?$allocator@U?$_Tree_node@U?$pair@$$CBUALLEGRO_COLOR@@V?$vector@HV?$allocator@H@std@@@std@@@std@@PAX@std@@@std@@@std@@V?$_Tree_val@U?$_Tree_simple_types@U?$pair@$$CBUALLEGRO_COLOR@@V?$vector@HV?$allocator@H@std@@@std@@@std@@@std@@@2@$00@std@@QAE@XZ 0045f230 f i CommonPathfindingLib:GridVisualizer.obj
 0002:00035280       ??1?$_Compressed_pair@VAllegroColorCompare@@V?$_Compressed_pair@U?$_Wrap_alloc@V?$allocator@U?$_Tree_node@U?$pair@$$CBUALLEGRO_COLOR@@V?$vector@HV?$allocator@H@std@@@std@@@std@@PAX@std@@@std@@@std@@V?$_Tree_val@U?$_Tree_simple_types@U?$pair@$$CBUALLEGRO_COLOR@@V?$vector@HV?$allocator@H@std@@@std@@@std@@@std@@@2@$00@std@@$00@std@@QAE@XZ 0045f280 f i CommonPathfindingLib:GridVisualizer.obj
 0002:000352d0       ??1?$_Iterator012@Ubidirectional_iterator_tag@std@@U?$pair@$$CBUALLEGRO_COLOR@@V?$vector@HV?$allocator@H@std@@@std@@@2@HPBU32@ABU32@U_Iterator_base12@2@@std@@QAE@XZ 0045f2d0 f i CommonPathfindingLib:GridVisualizer.obj
 0002:00035320       ??1?$_Iterator012@Urandom_access_iterator_tag@std@@HHPBHABHU_Iterator_base12@2@@std@@QAE@XZ 0045f320 f i CommonPathfindingLib:GridVisualizer.obj
 0002:00035370       ??1?$_Tree@V?$_Tmap_traits@UALLEGRO_COLOR@@V?$vector@HV?$allocator@H@std@@@std@@VAllegroColorCompare@@V?$allocator@U?$pair@$$CBUALLEGRO_COLOR@@V?$vector@HV?$allocator@H@std@@@std@@@std@@@3@$0A@@std@@@std@@QAE@XZ 0045f370 f i CommonPathfindingLib:GridVisualizer.obj
 0002:00035400       ??1?$_Tree_comp_alloc@V?$_Tmap_traits@UALLEGRO_COLOR@@V?$vector@HV?$allocator@H@std@@@std@@VAllegroColorCompare@@V?$allocator@U?$pair@$$CBUALLEGRO_COLOR@@V?$vector@HV?$allocator@H@std@@@std@@@std@@@3@$0A@@std@@@std@@QAE@XZ 0045f400 f i CommonPathfindingLib:GridVisualizer.obj
 0002:000354b0       ??1?$_Tree_const_iterator@V?$_Tree_val@U?$_Tree_simple_types@U?$pair@$$CBUALLEGRO_COLOR@@V?$vector@HV?$allocator@H@std@@@std@@@std@@@std@@@std@@@std@@QAE@XZ 0045f4b0 f i CommonPathfindingLib:GridVisualizer.obj
 0002:00035500       ??1?$_Tree_iterator@V?$_Tree_val@U?$_Tree_simple_types@U?$pair@$$CBUALLEGRO_COLOR@@V?$vector@HV?$allocator@H@std@@@std@@@std@@@std@@@std@@@std@@QAE@XZ 0045f500 f i CommonPathfindingLib:GridVisualizer.obj
 0002:00035550       ??1?$_Tree_unchecked_const_iterator@V?$_Tree_val@U?$_Tree_simple_types@U?$pair@$$CBUALLEGRO_COLOR@@V?$vector@HV?$allocator@H@std@@@std@@@std@@@std@@@std@@U_Iterator_base12@2@@std@@QAE@XZ 0045f550 f i CommonPathfindingLib:GridVisualizer.obj
 0002:000355a0       ??1?$_Tree_val@U?$_Tree_simple_types@U?$pair@$$CBUALLEGRO_COLOR@@V?$vector@HV?$allocator@H@std@@@std@@@std@@@std@@@std@@QAE@XZ 0045f5a0 f i CommonPathfindingLib:GridVisualizer.obj
 0002:000355f0       ??1?$_Vector_const_iterator@V?$_Vector_val@U?$_Simple_types@H@std@@@std@@@std@@QAE@XZ 0045f5f0 f i CommonPathfindingLib:GridVisualizer.obj
 0002:00035640       ??1?$map@UALLEGRO_COLOR@@V?$vector@HV?$allocator@H@std@@@std@@VAllegroColorCompare@@V?$allocator@U?$pair@$$CBUALLEGRO_COLOR@@V?$vector@HV?$allocator@H@std@@@std@@@std@@@3@@std@@QAE@XZ 0045f640 f i CommonPathfindingLib:GridVisualizer.obj
 0002:00035690       ??1?$pair@$$CBUALLEGRO_COLOR@@V?$vector@HV?$allocator@H@std@@@std@@@std@@QAE@XZ 0045f690 f i CommonPathfindingLib:GridVisualizer.obj
 0002:000356f0       ??1?$pair@V?$_Tree_iterator@V?$_Tree_val@U?$_Tree_simple_types@U?$pair@$$CBUALLEGRO_COLOR@@V?$vector@HV?$allocator@H@std@@@std@@@std@@@std@@@std@@@std@@_N@std@@QAE@XZ 0045f6f0 f i CommonPathfindingLib:GridVisualizer.obj
 0002:00035740       ??1GridVisualizer@@QAE@XZ  0045f740 f   CommonPathfindingLib:GridVisualizer.obj
 0002:000357a0       ??4?$_Iterator012@Ubidirectional_iterator_tag@std@@U?$pair@$$CBUALLEGRO_COLOR@@V?$vector@HV?$allocator@H@std@@@std@@@2@HPBU32@ABU32@U_Iterator_base12@2@@std@@QAEAAU01@$$QAU01@@Z 0045f7a0 f i CommonPathfindingLib:GridVisualizer.obj
 0002:00035800       ??4?$_Iterator012@Ubidirectional_iterator_tag@std@@U?$pair@$$CBUALLEGRO_COLOR@@V?$vector@HV?$allocator@H@std@@@std@@@2@HPBU32@ABU32@U_Iterator_base12@2@@std@@QAEAAU01@ABU01@@Z 0045f800 f i CommonPathfindingLib:GridVisualizer.obj
 0002:00035860       ??4?$_Tree_const_iterator@V?$_Tree_val@U?$_Tree_simple_types@U?$pair@$$CBUALLEGRO_COLOR@@V?$vector@HV?$allocator@H@std@@@std@@@std@@@std@@@std@@@std@@QAEAAV01@$$QAV01@@Z 0045f860 f i CommonPathfindingLib:GridVisualizer.obj
 0002:000358c0       ??4?$_Tree_const_iterator@V?$_Tree_val@U?$_Tree_simple_types@U?$pair@$$CBUALLEGRO_COLOR@@V?$vector@HV?$allocator@H@std@@@std@@@std@@@std@@@std@@@std@@QAEAAV01@ABV01@@Z 0045f8c0 f i CommonPathfindingLib:GridVisualizer.obj
 0002:00035920       ??4?$_Tree_iterator@V?$_Tree_val@U?$_Tree_simple_types@U?$pair@$$CBUALLEGRO_COLOR@@V?$vector@HV?$allocator@H@std@@@std@@@std@@@std@@@std@@@std@@QAEAAV01@$$QAV01@@Z 0045f920 f i CommonPathfindingLib:GridVisualizer.obj
 0002:00035980       ??4?$_Tree_unchecked_const_iterator@V?$_Tree_val@U?$_Tree_simple_types@U?$pair@$$CBUALLEGRO_COLOR@@V?$vector@HV?$allocator@H@std@@@std@@@std@@@std@@@std@@U_Iterator_base12@2@@std@@QAEAAV01@$$QAV01@@Z 0045f980 f i CommonPathfindingLib:GridVisualizer.obj
 0002:000359f0       ??4?$_Tree_unchecked_const_iterator@V?$_Tree_val@U?$_Tree_simple_types@U?$pair@$$CBUALLEGRO_COLOR@@V?$vector@HV?$allocator@H@std@@@std@@@std@@@std@@@std@@U_Iterator_base12@2@@std@@QAEAAV01@ABV01@@Z 0045f9f0 f i CommonPathfindingLib:GridVisualizer.obj
 0002:00035a60       ??4?$vector@HV?$allocator@H@std@@@std@@QAEAAV01@ABV01@@Z 0045fa60 f i CommonPathfindingLib:GridVisualizer.obj
 0002:00035de0       ??8?$_Tree_const_iterator@V?$_Tree_val@U?$_Tree_simple_types@U?$pair@$$CBUALLEGRO_COLOR@@V?$vector@HV?$allocator@H@std@@@std@@@std@@@std@@@std@@@std@@QBE_NABV01@@Z 0045fde0 f i CommonPathfindingLib:GridVisualizer.obj
 0002:00035f30       ??9?$_Tree_const_iterator@V?$_Tree_val@U?$_Tree_simple_types@U?$pair@$$CBUALLEGRO_COLOR@@V?$vector@HV?$allocator@H@std@@@std@@@std@@@std@@@std@@@std@@QBE_NABV01@@Z 0045ff30 f i CommonPathfindingLib:GridVisualizer.obj
 0002:00035fc0       ??A?$map@UALLEGRO_COLOR@@V?$vector@HV?$allocator@H@std@@@std@@VAllegroColorCompare@@V?$allocator@U?$pair@$$CBUALLEGRO_COLOR@@V?$vector@HV?$allocator@H@std@@@std@@@std@@@3@@std@@QAEAAV?$vector@HV?$allocator@H@std@@@1@ABUALLEGRO_COLOR@@@Z 0045ffc0 f i CommonPathfindingLib:GridVisualizer.obj
 0002:000360b0       ??A?$vector@HV?$allocator@H@std@@@std@@QAEAAHI@Z 004600b0 f i CommonPathfindingLib:GridVisualizer.obj
 0002:000361d0       ??C?$_Tree_iterator@V?$_Tree_val@U?$_Tree_simple_types@U?$pair@$$CBUALLEGRO_COLOR@@V?$vector@HV?$allocator@H@std@@@std@@@std@@@std@@@std@@@std@@QBEPAU?$pair@$$CBUALLEGRO_COLOR@@V?$vector@HV?$allocator@H@std@@@std@@@1@XZ 004601d0 f i CommonPathfindingLib:GridVisualizer.obj
 0002:00036230       ??D?$_Tree_const_iterator@V?$_Tree_val@U?$_Tree_simple_types@U?$pair@$$CBUALLEGRO_COLOR@@V?$vector@HV?$allocator@H@std@@@std@@@std@@@std@@@std@@@std@@QBEABU?$pair@$$CBUALLEGRO_COLOR@@V?$vector@HV?$allocator@H@std@@@std@@@1@XZ 00460230 f i CommonPathfindingLib:GridVisualizer.obj
 0002:00036370       ??D?$_Tree_iterator@V?$_Tree_val@U?$_Tree_simple_types@U?$pair@$$CBUALLEGRO_COLOR@@V?$vector@HV?$allocator@H@std@@@std@@@std@@@std@@@std@@@std@@QBEAAU?$pair@$$CBUALLEGRO_COLOR@@V?$vector@HV?$allocator@H@std@@@std@@@1@XZ 00460370 f i CommonPathfindingLib:GridVisualizer.obj
 0002:000363c0       ??E?$_Tree_const_iterator@V?$_Tree_val@U?$_Tree_simple_types@U?$pair@$$CBUALLEGRO_COLOR@@V?$vector@HV?$allocator@H@std@@@std@@@std@@@std@@@std@@@std@@QAE?AV01@H@Z 004603c0 f i CommonPathfindingLib:GridVisualizer.obj
 0002:000364e0       ??E?$_Tree_const_iterator@V?$_Tree_val@U?$_Tree_simple_types@U?$pair@$$CBUALLEGRO_COLOR@@V?$vector@HV?$allocator@H@std@@@std@@@std@@@std@@@std@@@std@@QAEAAV01@XZ 004604e0 f i CommonPathfindingLib:GridVisualizer.obj
 0002:00036620       ??E?$_Tree_iterator@V?$_Tree_val@U?$_Tree_simple_types@U?$pair@$$CBUALLEGRO_COLOR@@V?$vector@HV?$allocator@H@std@@@std@@@std@@@std@@@std@@@std@@QAEAAV01@XZ 00460620 f i CommonPathfindingLib:GridVisualizer.obj
 0002:00036680       ??E?$_Tree_unchecked_const_iterator@V?$_Tree_val@U?$_Tree_simple_types@U?$pair@$$CBUALLEGRO_COLOR@@V?$vector@HV?$allocator@H@std@@@std@@@std@@@std@@@std@@U_Iterator_base12@2@@std@@QAEAAV01@XZ 00460680 f i CommonPathfindingLib:GridVisualizer.obj
 0002:000367b0       ??F?$_Tree_const_iterator@V?$_Tree_val@U?$_Tree_simple_types@U?$pair@$$CBUALLEGRO_COLOR@@V?$vector@HV?$allocator@H@std@@@std@@@std@@@std@@@std@@@std@@QAEAAV01@XZ 004607b0 f i CommonPathfindingLib:GridVisualizer.obj
 0002:00036990       ??F?$_Tree_iterator@V?$_Tree_val@U?$_Tree_simple_types@U?$pair@$$CBUALLEGRO_COLOR@@V?$vector@HV?$allocator@H@std@@@std@@@std@@@std@@@std@@@std@@QAEAAV01@XZ 00460990 f i CommonPathfindingLib:GridVisualizer.obj
 0002:000369f0       ??F?$_Tree_unchecked_const_iterator@V?$_Tree_val@U?$_Tree_simple_types@U?$pair@$$CBUALLEGRO_COLOR@@V?$vector@HV?$allocator@H@std@@@std@@@std@@@std@@@std@@U_Iterator_base12@2@@std@@QAEAAV01@XZ 004609f0 f i CommonPathfindingLib:GridVisualizer.obj
 0002:00036b50       ??_G?$pair@$$CBUALLEGRO_COLOR@@V?$vector@HV?$allocator@H@std@@@std@@@std@@QAEPAXI@Z 00460b50 f i CommonPathfindingLib:GridVisualizer.obj
 0002:00036bc0       ?_Alloc_proxy@?$_Tree_comp_alloc@V?$_Tmap_traits@UALLEGRO_COLOR@@V?$vector@HV?$allocator@H@std@@@std@@VAllegroColorCompare@@V?$allocator@U?$pair@$$CBUALLEGRO_COLOR@@V?$vector@HV?$allocator@H@std@@@std@@@std@@@3@$0A@@std@@@std@@QAEXXZ 00460bc0 f i CommonPathfindingLib:GridVisualizer.obj
 0002:00036cc0       ?_Buy@?$vector@HV?$allocator@H@std@@@std@@IAE_NI@Z 00460cc0 f i CommonPathfindingLib:GridVisualizer.obj
 0002:00036dd0       ?_Buyheadnode@?$_Tree_comp_alloc@V?$_Tmap_traits@UALLEGRO_COLOR@@V?$vector@HV?$allocator@H@std@@@std@@VAllegroColorCompare@@V?$allocator@U?$pair@$$CBUALLEGRO_COLOR@@V?$vector@HV?$allocator@H@std@@@std@@@std@@@3@$0A@@std@@@std@@QAEPAU?$_Tree_node@U?$pair@$$CBUALLEGRO_COLOR@@V?$vector@HV?$allocator@H@std@@@std@@@std@@PAX@2@XZ 00460dd0 f i CommonPathfindingLib:GridVisualizer.obj
 0002:00036fe0       ?_Buynode0@?$_Tree_comp_alloc@V?$_Tmap_traits@UALLEGRO_COLOR@@V?$vector@HV?$allocator@H@std@@@std@@VAllegroColorCompare@@V?$allocator@U?$pair@$$CBUALLEGRO_COLOR@@V?$vector@HV?$allocator@H@std@@@std@@@std@@@3@$0A@@std@@@std@@QAEPAU?$_Tree_node@U?$pair@$$CBUALLEGRO_COLOR@@V?$vector@HV?$allocator@H@std@@@std@@@std@@PAX@2@XZ 00460fe0 f i CommonPathfindingLib:GridVisualizer.obj
 0002:000371a0       ?_Color@?$_Tree_comp_alloc@V?$_Tmap_traits@UALLEGRO_COLOR@@V?$vector@HV?$allocator@H@std@@@std@@VAllegroColorCompare@@V?$allocator@U?$pair@$$CBUALLEGRO_COLOR@@V?$vector@HV?$allocator@H@std@@@std@@@std@@@3@$0A@@std@@@std@@SAAADPAU?$_Tree_node@U?$pair@$$CBUALLEGRO_COLOR@@V?$vector@HV?$allocator@H@std@@@std@@@std@@PAX@2@@Z 004611a0 f i CommonPathfindingLib:GridVisualizer.obj
 0002:000371f0       ?_Color@?$_Tree_val@U?$_Tree_simple_types@U?$pair@$$CBUALLEGRO_COLOR@@V?$vector@HV?$allocator@H@std@@@std@@@std@@@std@@@std@@SAAADPAU?$_Tree_node@U?$pair@$$CBUALLEGRO_COLOR@@V?$vector@HV?$allocator@H@std@@@std@@@std@@PAX@2@@Z 004611f0 f i CommonPathfindingLib:GridVisualizer.obj
 0002:00037230       ?_Compare@?$_Tree@V?$_Tmap_traits@UALLEGRO_COLOR@@V?$vector@HV?$allocator@H@std@@@std@@VAllegroColorCompare@@V?$allocator@U?$pair@$$CBUALLEGRO_COLOR@@V?$vector@HV?$allocator@H@std@@@std@@@std@@@3@$0A@@std@@@std@@IBE_NABUALLEGRO_COLOR@@0@Z 00461230 f i CommonPathfindingLib:GridVisualizer.obj
 0002:000372b0       ?_Construct@?$_Tree_comp_alloc@V?$_Tmap_traits@UALLEGRO_COLOR@@V?$vector@HV?$allocator@H@std@@@std@@VAllegroColorCompare@@V?$allocator@U?$pair@$$CBUALLEGRO_COLOR@@V?$vector@HV?$allocator@H@std@@@std@@@std@@@3@$0A@@std@@@std@@QAEXXZ 004612b0 f i CommonPathfindingLib:GridVisualizer.obj
 0002:000373a0       ?_Copy_alloc@?$_Vector_alloc@U?$_Vec_base_types@HV?$allocator@H@std@@@std@@@std@@QAEXABU?$_Wrap_alloc@V?$allocator@H@std@@@2@@Z 004613a0 f i CommonPathfindingLib:GridVisualizer.obj
 0002:00037420       ?_Destroy_if_not_nil@?$_Tree@V?$_Tmap_traits@UALLEGRO_COLOR@@V?$vector@HV?$allocator@H@std@@@std@@VAllegroColorCompare@@V?$allocator@U?$pair@$$CBUALLEGRO_COLOR@@V?$vector@HV?$allocator@H@std@@@std@@@std@@@3@$0A@@std@@@std@@IAEXPAU?$_Tree_node@U?$pair@$$CBUALLEGRO_COLOR@@V?$vector@HV?$allocator@H@std@@@std@@@std@@PAX@2@@Z 00461420 f i CommonPathfindingLib:GridVisualizer.obj
 0002:000374b0       ?_Erase@?$_Tree@V?$_Tmap_traits@UALLEGRO_COLOR@@V?$vector@HV?$allocator@H@std@@@std@@VAllegroColorCompare@@V?$allocator@U?$pair@$$CBUALLEGRO_COLOR@@V?$vector@HV?$allocator@H@std@@@std@@@std@@@3@$0A@@std@@@std@@IAEXPAU?$_Tree_node@U?$pair@$$CBUALLEGRO_COLOR@@V?$vector@HV?$allocator@H@std@@@std@@@std@@PAX@2@@Z 004614b0 f i CommonPathfindingLib:GridVisualizer.obj
 0002:000375a0       ?_Free_proxy@?$_Tree_comp_alloc@V?$_Tmap_traits@UALLEGRO_COLOR@@V?$vector@HV?$allocator@H@std@@@std@@VAllegroColorCompare@@V?$allocator@U?$pair@$$CBUALLEGRO_COLOR@@V?$vector@HV?$allocator@H@std@@@std@@@std@@@3@$0A@@std@@@std@@QAEXXZ 004615a0 f i CommonPathfindingLib:GridVisualizer.obj
 0002:00037690       ?_Freeheadnode@?$_Tree_comp_alloc@V?$_Tmap_traits@UALLEGRO_COLOR@@V?$vector@HV?$allocator@H@std@@@std@@VAllegroColorCompare@@V?$allocator@U?$pair@$$CBUALLEGRO_COLOR@@V?$vector@HV?$allocator@H@std@@@std@@@std@@@3@$0A@@std@@@std@@QAEXPAU?$_Tree_node@U?$pair@$$CBUALLEGRO_COLOR@@V?$vector@HV?$allocator@H@std@@@std@@@std@@PAX@2@@Z 00461690 f i CommonPathfindingLib:GridVisualizer.obj
 0002:00037780       ?_Freenode0@?$_Tree_comp_alloc@V?$_Tmap_traits@UALLEGRO_COLOR@@V?$vector@HV?$allocator@H@std@@@std@@VAllegroColorCompare@@V?$allocator@U?$pair@$$CBUALLEGRO_COLOR@@V?$vector@HV?$allocator@H@std@@@std@@@std@@@3@$0A@@std@@@std@@QAEXPAU?$_Tree_node@U?$pair@$$CBUALLEGRO_COLOR@@V?$vector@HV?$allocator@H@std@@@std@@@std@@PAX@2@@Z 00461780 f i CommonPathfindingLib:GridVisualizer.obj
 0002:00037870       ?_Get_data@?$_Tree_comp_alloc@V?$_Tmap_traits@UALLEGRO_COLOR@@V?$vector@HV?$allocator@H@std@@@std@@VAllegroColorCompare@@V?$allocator@U?$pair@$$CBUALLEGRO_COLOR@@V?$vector@HV?$allocator@H@std@@@std@@@std@@@3@$0A@@std@@@std@@QAEAAV?$_Tree_val@U?$_Tree_simple_types@U?$pair@$$CBUALLEGRO_COLOR@@V?$vector@HV?$allocator@H@std@@@std@@@std@@@std@@@2@XZ 00461870 f i CommonPathfindingLib:GridVisualizer.obj
 0002:000378d0       ?_Get_data@?$_Tree_comp_alloc@V?$_Tmap_traits@UALLEGRO_COLOR@@V?$vector@HV?$allocator@H@std@@@std@@VAllegroColorCompare@@V?$allocator@U?$pair@$$CBUALLEGRO_COLOR@@V?$vector@HV?$allocator@H@std@@@std@@@std@@@3@$0A@@std@@@std@@QBEABV?$_Tree_val@U?$_Tree_simple_types@U?$pair@$$CBUALLEGRO_COLOR@@V?$vector@HV?$allocator@H@std@@@std@@@std@@@std@@@2@XZ 004618d0 f i CommonPathfindingLib:GridVisualizer.obj
 0002:00037930       ?_Get_first@?$_Compressed_pair@U?$_Wrap_alloc@V?$allocator@U?$_Tree_node@U?$pair@$$CBUALLEGRO_COLOR@@V?$vector@HV?$allocator@H@std@@@std@@@std@@PAX@std@@@std@@@std@@V?$_Tree_val@U?$_Tree_simple_types@U?$pair@$$CBUALLEGRO_COLOR@@V?$vector@HV?$allocator@H@std@@@std@@@std@@@std@@@2@$00@std@@QAEAAU?$_Wrap_alloc@V?$allocator@U?$_Tree_node@U?$pair@$$CBUALLEGRO_COLOR@@V?$vector@HV?$allocator@H@std@@@std@@@std@@PAX@std@@@std@@@2@XZ 00461930 f i CommonPathfindingLib:GridVisualizer.obj
 0002:00037970       ?_Get_first@?$_Compressed_pair@U?$_Wrap_alloc@V?$allocator@U?$_Tree_node@U?$pair@$$CBUALLEGRO_COLOR@@V?$vector@HV?$allocator@H@std@@@std@@@std@@PAX@std@@@std@@@std@@V?$_Tree_val@U?$_Tree_simple_types@U?$pair@$$CBUALLEGRO_COLOR@@V?$vector@HV?$allocator@H@std@@@std@@@std@@@std@@@2@$00@std@@QBEABU?$_Wrap_alloc@V?$allocator@U?$_Tree_node@U?$pair@$$CBUALLEGRO_COLOR@@V?$vector@HV?$allocator@H@std@@@std@@@std@@PAX@std@@@std@@@2@XZ 00461970 f i CommonPathfindingLib:GridVisualizer.obj
 0002:000379b0       ?_Get_first@?$_Compressed_pair@VAllegroColorCompare@@V?$_Compressed_pair@U?$_Wrap_alloc@V?$allocator@U?$_Tree_node@U?$pair@$$CBUALLEGRO_COLOR@@V?$vector@HV?$allocator@H@std@@@std@@@std@@PAX@std@@@std@@@std@@V?$_Tree_val@U?$_Tree_simple_types@U?$pair@$$CBUALLEGRO_COLOR@@V?$vector@HV?$allocator@H@std@@@std@@@std@@@std@@@2@$00@std@@$00@std@@QAEAAVAllegroColorCompare@@XZ 004619b0 f i CommonPathfindingLib:GridVisualizer.obj
 0002:000379f0       ?_Get_first@?$_Compressed_pair@VAllegroColorCompare@@V?$_Compressed_pair@U?$_Wrap_alloc@V?$allocator@U?$_Tree_node@U?$pair@$$CBUALLEGRO_COLOR@@V?$vector@HV?$allocator@H@std@@@std@@@std@@PAX@std@@@std@@@std@@V?$_Tree_val@U?$_Tree_simple_types@U?$pair@$$CBUALLEGRO_COLOR@@V?$vector@HV?$allocator@H@std@@@std@@@std@@@std@@@2@$00@std@@$00@std@@QBEABVAllegroColorCompare@@XZ 004619f0 f i CommonPathfindingLib:GridVisualizer.obj
 0002:00037a30       ?_Get_second@?$_Compressed_pair@U?$_Wrap_alloc@V?$allocator@U?$_Tree_node@U?$pair@$$CBUALLEGRO_COLOR@@V?$vector@HV?$allocator@H@std@@@std@@@std@@PAX@std@@@std@@@std@@V?$_Tree_val@U?$_Tree_simple_types@U?$pair@$$CBUALLEGRO_COLOR@@V?$vector@HV?$allocator@H@std@@@std@@@std@@@std@@@2@$00@std@@QAEAAV?$_Tree_val@U?$_Tree_simple_types@U?$pair@$$CBUALLEGRO_COLOR@@V?$vector@HV?$allocator@H@std@@@std@@@std@@@std@@@2@XZ 00461a30 f i CommonPathfindingLib:GridVisualizer.obj
 0002:00037a70       ?_Get_second@?$_Compressed_pair@U?$_Wrap_alloc@V?$allocator@U?$_Tree_node@U?$pair@$$CBUALLEGRO_COLOR@@V?$vector@HV?$allocator@H@std@@@std@@@std@@PAX@std@@@std@@@std@@V?$_Tree_val@U?$_Tree_simple_types@U?$pair@$$CBUALLEGRO_COLOR@@V?$vector@HV?$allocator@H@std@@@std@@@std@@@std@@@2@$00@std@@QBEABV?$_Tree_val@U?$_Tree_simple_types@U?$pair@$$CBUALLEGRO_COLOR@@V?$vector@HV?$allocator@H@std@@@std@@@std@@@std@@@2@XZ 00461a70 f i CommonPathfindingLib:GridVisualizer.obj
 0002:00037ab0       ?_Get_second@?$_Compressed_pair@VAllegroColorCompare@@V?$_Compressed_pair@U?$_Wrap_alloc@V?$allocator@U?$_Tree_node@U?$pair@$$CBUALLEGRO_COLOR@@V?$vector@HV?$allocator@H@std@@@std@@@std@@PAX@std@@@std@@@std@@V?$_Tree_val@U?$_Tree_simple_types@U?$pair@$$CBUALLEGRO_COLOR@@V?$vector@HV?$allocator@H@std@@@std@@@std@@@std@@@2@$00@std@@$00@std@@QAEAAV?$_Compressed_pair@U?$_Wrap_alloc@V?$allocator@U?$_Tree_node@U?$pair@$$CBUALLEGRO_COLOR@@V?$vector@HV?$allocator@H@std@@@std@@@std@@PAX@std@@@std@@@std@@V?$_Tree_val@U?$_Tree_simple_types@U?$pair@$$CBUALLEGRO_COLOR@@V?$vector@HV?$allocator@H@std@@@std@@@std@@@std@@@2@$00@2@XZ 00461ab0 f i CommonPathfindingLib:GridVisualizer.obj
 0002:00037af0       ?_Get_second@?$_Compressed_pair@VAllegroColorCompare@@V?$_Compressed_pair@U?$_Wrap_alloc@V?$allocator@U?$_Tree_node@U?$pair@$$CBUALLEGRO_COLOR@@V?$vector@HV?$allocator@H@std@@@std@@@std@@PAX@std@@@std@@@std@@V?$_Tree_val@U?$_Tree_simple_types@U?$pair@$$CBUALLEGRO_COLOR@@V?$vector@HV?$allocator@H@std@@@std@@@std@@@std@@@2@$00@std@@$00@std@@QBEABV?$_Compressed_pair@U?$_Wrap_alloc@V?$allocator@U?$_Tree_node@U?$pair@$$CBUALLEGRO_COLOR@@V?$vector@HV?$allocator@H@std@@@std@@@std@@PAX@std@@@std@@@std@@V?$_Tree_val@U?$_Tree_simple_types@U?$pair@$$CBUALLEGRO_COLOR@@V?$vector@HV?$allocator@H@std@@@std@@@std@@@std@@@2@$00@2@XZ 00461af0 f i CommonPathfindingLib:GridVisualizer.obj
 0002:00037b30       ?_Getal@?$_Tree_comp_alloc@V?$_Tmap_traits@UALLEGRO_COLOR@@V?$vector@HV?$allocator@H@std@@@std@@VAllegroColorCompare@@V?$allocator@U?$pair@$$CBUALLEGRO_COLOR@@V?$vector@HV?$allocator@H@std@@@std@@@std@@@3@$0A@@std@@@std@@QAEAAU?$_Wrap_alloc@V?$allocator@U?$_Tree_node@U?$pair@$$CBUALLEGRO_COLOR@@V?$vector@HV?$allocator@H@std@@@std@@@std@@PAX@std@@@std@@@2@XZ 00461b30 f i CommonPathfindingLib:GridVisualizer.obj
 0002:00037b90       ?_Getal@?$_Tree_comp_alloc@V?$_Tmap_traits@UALLEGRO_COLOR@@V?$vector@HV?$allocator@H@std@@@std@@VAllegroColorCompare@@V?$allocator@U?$pair@$$CBUALLEGRO_COLOR@@V?$vector@HV?$allocator@H@std@@@std@@@std@@@3@$0A@@std@@@std@@QBEABU?$_Wrap_alloc@V?$allocator@U?$_Tree_node@U?$pair@$$CBUALLEGRO_COLOR@@V?$vector@HV?$allocator@H@std@@@std@@@std@@PAX@std@@@std@@@2@XZ 00461b90 f i CommonPathfindingLib:GridVisualizer.obj
 0002:00037bf0       ?_Getcomp@?$_Tree_comp_alloc@V?$_Tmap_traits@UALLEGRO_COLOR@@V?$vector@HV?$allocator@H@std@@@std@@VAllegroColorCompare@@V?$allocator@U?$pair@$$CBUALLEGRO_COLOR@@V?$vector@HV?$allocator@H@std@@@std@@@std@@@3@$0A@@std@@@std@@QAEAAVAllegroColorCompare@@XZ 00461bf0 f i CommonPathfindingLib:GridVisualizer.obj
 0002:00037c40       ?_Getcomp@?$_Tree_comp_alloc@V?$_Tmap_traits@UALLEGRO_COLOR@@V?$vector@HV?$allocator@H@std@@@std@@VAllegroColorCompare@@V?$allocator@U?$pair@$$CBUALLEGRO_COLOR@@V?$vector@HV?$allocator@H@std@@@std@@@std@@@3@$0A@@std@@@std@@QBEABVAllegroColorCompare@@XZ 00461c40 f i CommonPathfindingLib:GridVisualizer.obj
 0002:00037c90       ?_Getpfirst@?$_Tree_comp_alloc@V?$_Tmap_traits@UALLEGRO_COLOR@@V?$vector@HV?$allocator@H@std@@@std@@VAllegroColorCompare@@V?$allocator@U?$pair@$$CBUALLEGRO_COLOR@@V?$vector@HV?$allocator@H@std@@@std@@@std@@@3@$0A@@std@@@std@@QBEPAPAU_Iterator_base12@2@XZ 00461c90 f i CommonPathfindingLib:GridVisualizer.obj
 0002:00037cf0       ?_Isnil@?$_Tree_comp_alloc@V?$_Tmap_traits@UALLEGRO_COLOR@@V?$vector@HV?$allocator@H@std@@@std@@VAllegroColorCompare@@V?$allocator@U?$pair@$$CBUALLEGRO_COLOR@@V?$vector@HV?$allocator@H@std@@@std@@@std@@@3@$0A@@std@@@std@@SAAADPAU?$_Tree_node@U?$pair@$$CBUALLEGRO_COLOR@@V?$vector@HV?$allocator@H@std@@@std@@@std@@PAX@2@@Z 00461cf0 f i CommonPathfindingLib:GridVisualizer.obj
 0002:00037d40       ?_Isnil@?$_Tree_val@U?$_Tree_simple_types@U?$pair@$$CBUALLEGRO_COLOR@@V?$vector@HV?$allocator@H@std@@@std@@@std@@@std@@@std@@SAAADPAU?$_Tree_node@U?$pair@$$CBUALLEGRO_COLOR@@V?$vector@HV?$allocator@H@std@@@std@@@std@@PAX@2@@Z 00461d40 f i CommonPathfindingLib:GridVisualizer.obj
 0002:00037d80       ?_Key@?$_Tree@V?$_Tmap_traits@UALLEGRO_COLOR@@V?$vector@HV?$allocator@H@std@@@std@@VAllegroColorCompare@@V?$allocator@U?$pair@$$CBUALLEGRO_COLOR@@V?$vector@HV?$allocator@H@std@@@std@@@std@@@3@$0A@@std@@@std@@IBEABUALLEGRO_COLOR@@PAU?$_Tree_node@U?$pair@$$CBUALLEGRO_COLOR@@V?$vector@HV?$allocator@H@std@@@std@@@std@@PAX@2@@Z 00461d80 f i CommonPathfindingLib:GridVisualizer.obj
 0002:00037df0       ?_Kfn@?$_Tree@V?$_Tmap_traits@UALLEGRO_COLOR@@V?$vector@HV?$allocator@H@std@@@std@@VAllegroColorCompare@@V?$allocator@U?$pair@$$CBUALLEGRO_COLOR@@V?$vector@HV?$allocator@H@std@@@std@@@std@@@3@$0A@@std@@@std@@IBEABUALLEGRO_COLOR@@ABU?$pair@$$CBUALLEGRO_COLOR@@V?$vector@HV?$allocator@H@std@@@std@@@2@@Z 00461df0 f i CommonPathfindingLib:GridVisualizer.obj
 0002:00037e50       ?_Left@?$_Tree_comp_alloc@V?$_Tmap_traits@UALLEGRO_COLOR@@V?$vector@HV?$allocator@H@std@@@std@@VAllegroColorCompare@@V?$allocator@U?$pair@$$CBUALLEGRO_COLOR@@V?$vector@HV?$allocator@H@std@@@std@@@std@@@3@$0A@@std@@@std@@SAAAPAU?$_Tree_node@U?$pair@$$CBUALLEGRO_COLOR@@V?$vector@HV?$allocator@H@std@@@std@@@std@@PAX@2@PAU32@@Z 00461e50 f i CommonPathfindingLib:GridVisualizer.obj
 0002:00037ea0       ?_Left@?$_Tree_val@U?$_Tree_simple_types@U?$pair@$$CBUALLEGRO_COLOR@@V?$vector@HV?$allocator@H@std@@@std@@@std@@@std@@@std@@SAAAPAU?$_Tree_node@U?$pair@$$CBUALLEGRO_COLOR@@V?$vector@HV?$allocator@H@std@@@std@@@std@@PAX@2@PAU32@@Z 00461ea0 f i CommonPathfindingLib:GridVisualizer.obj
 0002:00037ee0       ?_Lmost@?$_Tree@V?$_Tmap_traits@UALLEGRO_COLOR@@V?$vector@HV?$allocator@H@std@@@std@@VAllegroColorCompare@@V?$allocator@U?$pair@$$CBUALLEGRO_COLOR@@V?$vector@HV?$allocator@H@std@@@std@@@std@@@3@$0A@@std@@@std@@IBEAAPAU?$_Tree_node@U?$pair@$$CBUALLEGRO_COLOR@@V?$vector@HV?$allocator@H@std@@@std@@@std@@PAX@2@XZ 00461ee0 f i CommonPathfindingLib:GridVisualizer.obj
 0002:00037f40       ?_Lrotate@?$_Tree@V?$_Tmap_traits@UALLEGRO_COLOR@@V?$vector@HV?$allocator@H@std@@@std@@VAllegroColorCompare@@V?$allocator@U?$pair@$$CBUALLEGRO_COLOR@@V?$vector@HV?$allocator@H@std@@@std@@@std@@@3@$0A@@std@@@std@@IAEXPAU?$_Tree_node@U?$pair@$$CBUALLEGRO_COLOR@@V?$vector@HV?$allocator@H@std@@@std@@@std@@PAX@2@@Z 00461f40 f i CommonPathfindingLib:GridVisualizer.obj
 0002:000380f0       ?_Max@?$_Tree_comp_alloc@V?$_Tmap_traits@UALLEGRO_COLOR@@V?$vector@HV?$allocator@H@std@@@std@@VAllegroColorCompare@@V?$allocator@U?$pair@$$CBUALLEGRO_COLOR@@V?$vector@HV?$allocator@H@std@@@std@@@std@@@3@$0A@@std@@@std@@SAPAU?$_Tree_node@U?$pair@$$CBUALLEGRO_COLOR@@V?$vector@HV?$allocator@H@std@@@std@@@std@@PAX@2@PAU32@@Z 004620f0 f i CommonPathfindingLib:GridVisualizer.obj
 0002:00038140       ?_Max@?$_Tree_val@U?$_Tree_simple_types@U?$pair@$$CBUALLEGRO_COLOR@@V?$vector@HV?$allocator@H@std@@@std@@@std@@@std@@@std@@SAPAU?$_Tree_node@U?$pair@$$CBUALLEGRO_COLOR@@V?$vector@HV?$allocator@H@std@@@std@@@std@@PAX@2@PAU32@@Z 00462140 f i CommonPathfindingLib:GridVisualizer.obj
 0002:000381c0       ?_Min@?$_Tree_comp_alloc@V?$_Tmap_traits@UALLEGRO_COLOR@@V?$vector@HV?$allocator@H@std@@@std@@VAllegroColorCompare@@V?$allocator@U?$pair@$$CBUALLEGRO_COLOR@@V?$vector@HV?$allocator@H@std@@@std@@@std@@@3@$0A@@std@@@std@@SAPAU?$_Tree_node@U?$pair@$$CBUALLEGRO_COLOR@@V?$vector@HV?$allocator@H@std@@@std@@@std@@PAX@2@PAU32@@Z 004621c0 f i CommonPathfindingLib:GridVisualizer.obj
 0002:00038210       ?_Min@?$_Tree_val@U?$_Tree_simple_types@U?$pair@$$CBUALLEGRO_COLOR@@V?$vector@HV?$allocator@H@std@@@std@@@std@@@std@@@std@@SAPAU?$_Tree_node@U?$pair@$$CBUALLEGRO_COLOR@@V?$vector@HV?$allocator@H@std@@@std@@@std@@PAX@2@PAU32@@Z 00462210 f i CommonPathfindingLib:GridVisualizer.obj
 0002:00038290       ?_Myhead@?$_Tree_comp_alloc@V?$_Tmap_traits@UALLEGRO_COLOR@@V?$vector@HV?$allocator@H@std@@@std@@VAllegroColorCompare@@V?$allocator@U?$pair@$$CBUALLEGRO_COLOR@@V?$vector@HV?$allocator@H@std@@@std@@@std@@@3@$0A@@std@@@std@@QAEAAPAU?$_Tree_node@U?$pair@$$CBUALLEGRO_COLOR@@V?$vector@HV?$allocator@H@std@@@std@@@std@@PAX@2@XZ 00462290 f i CommonPathfindingLib:GridVisualizer.obj
 0002:000382f0       ?_Myhead@?$_Tree_comp_alloc@V?$_Tmap_traits@UALLEGRO_COLOR@@V?$vector@HV?$allocator@H@std@@@std@@VAllegroColorCompare@@V?$allocator@U?$pair@$$CBUALLEGRO_COLOR@@V?$vector@HV?$allocator@H@std@@@std@@@std@@@3@$0A@@std@@@std@@QBEABQAU?$_Tree_node@U?$pair@$$CBUALLEGRO_COLOR@@V?$vector@HV?$allocator@H@std@@@std@@@std@@PAX@2@XZ 004622f0 f i CommonPathfindingLib:GridVisualizer.obj
 0002:00038350       ?_Mynode@?$_Tree_unchecked_const_iterator@V?$_Tree_val@U?$_Tree_simple_types@U?$pair@$$CBUALLEGRO_COLOR@@V?$vector@HV?$allocator@H@std@@@std@@@std@@@std@@@std@@U_Iterator_base12@2@@std@@QBEPAU?$_Tree_node@U?$pair@$$CBUALLEGRO_COLOR@@V?$vector@HV?$allocator@H@std@@@std@@@std@@PAX@2@XZ 00462350 f i CommonPathfindingLib:GridVisualizer.obj
 0002:00038390       ?_Myproxy@?$_Tree_comp_alloc@V?$_Tmap_traits@UALLEGRO_COLOR@@V?$vector@HV?$allocator@H@std@@@std@@VAllegroColorCompare@@V?$allocator@U?$pair@$$CBUALLEGRO_COLOR@@V?$vector@HV?$allocator@H@std@@@std@@@std@@@3@$0A@@std@@@std@@QAEAAPAU_Container_proxy@2@XZ 00462390 f i CommonPathfindingLib:GridVisualizer.obj
 0002:000383e0       ?_Mysize@?$_Tree_comp_alloc@V?$_Tmap_traits@UALLEGRO_COLOR@@V?$vector@HV?$allocator@H@std@@@std@@VAllegroColorCompare@@V?$allocator@U?$pair@$$CBUALLEGRO_COLOR@@V?$vector@HV?$allocator@H@std@@@std@@@std@@@3@$0A@@std@@@std@@QAEAAIXZ 004623e0 f i CommonPathfindingLib:GridVisualizer.obj
 0002:00038440       ?_Mysize@?$_Tree_comp_alloc@V?$_Tmap_traits@UALLEGRO_COLOR@@V?$vector@HV?$allocator@H@std@@@std@@VAllegroColorCompare@@V?$allocator@U?$pair@$$CBUALLEGRO_COLOR@@V?$vector@HV?$allocator@H@std@@@std@@@std@@@3@$0A@@std@@@std@@QBEABIXZ 00462440 f i CommonPathfindingLib:GridVisualizer.obj
 0002:000384a0       ?_Myval@?$_Tree_comp_alloc@V?$_Tmap_traits@UALLEGRO_COLOR@@V?$vector@HV?$allocator@H@std@@@std@@VAllegroColorCompare@@V?$allocator@U?$pair@$$CBUALLEGRO_COLOR@@V?$vector@HV?$allocator@H@std@@@std@@@std@@@3@$0A@@std@@@std@@SAAAU?$pair@$$CBUALLEGRO_COLOR@@V?$vector@HV?$allocator@H@std@@@std@@@2@PAU?$_Tree_node@U?$pair@$$CBUALLEGRO_COLOR@@V?$vector@HV?$allocator@H@std@@@std@@@std@@PAX@2@@Z 004624a0 f i CommonPathfindingLib:GridVisualizer.obj
 0002:000384f0       ?_Myval@?$_Tree_val@U?$_Tree_simple_types@U?$pair@$$CBUALLEGRO_COLOR@@V?$vector@HV?$allocator@H@std@@@std@@@std@@@std@@@std@@SAAAU?$pair@$$CBUALLEGRO_COLOR@@V?$vector@HV?$allocator@H@std@@@std@@@2@PAU?$_Tree_node@U?$pair@$$CBUALLEGRO_COLOR@@V?$vector@HV?$allocator@H@std@@@std@@@std@@PAX@2@@Z 004624f0 f i CommonPathfindingLib:GridVisualizer.obj
 0002:00038530       ?_Orphan_all@?$_Tree_comp_alloc@V?$_Tmap_traits@UALLEGRO_COLOR@@V?$vector@HV?$allocator@H@std@@@std@@VAllegroColorCompare@@V?$allocator@U?$pair@$$CBUALLEGRO_COLOR@@V?$vector@HV?$allocator@H@std@@@std@@@std@@@3@$0A@@std@@@std@@QAEXXZ 00462530 f i CommonPathfindingLib:GridVisualizer.obj
 0002:00038590       ?_Orphan_ptr@?$_Tree@V?$_Tmap_traits@UALLEGRO_COLOR@@V?$vector@HV?$allocator@H@std@@@std@@VAllegroColorCompare@@V?$allocator@U?$pair@$$CBUALLEGRO_COLOR@@V?$vector@HV?$allocator@H@std@@@std@@@std@@@3@$0A@@std@@@std@@IAEXPAU?$_Tree_node@U?$pair@$$CBUALLEGRO_COLOR@@V?$vector@HV?$allocator@H@std@@@std@@@std@@PAX@2@@Z 00462590 f i CommonPathfindingLib:GridVisualizer.obj
 0002:00038710       ?_Parent@?$_Tree_comp_alloc@V?$_Tmap_traits@UALLEGRO_COLOR@@V?$vector@HV?$allocator@H@std@@@std@@VAllegroColorCompare@@V?$allocator@U?$pair@$$CBUALLEGRO_COLOR@@V?$vector@HV?$allocator@H@std@@@std@@@std@@@3@$0A@@std@@@std@@SAAAPAU?$_Tree_node@U?$pair@$$CBUALLEGRO_COLOR@@V?$vector@HV?$allocator@H@std@@@std@@@std@@PAX@2@PAU32@@Z 00462710 f i CommonPathfindingLib:GridVisualizer.obj
 0002:00038760       ?_Parent@?$_Tree_val@U?$_Tree_simple_types@U?$pair@$$CBUALLEGRO_COLOR@@V?$vector@HV?$allocator@H@std@@@std@@@std@@@std@@@std@@SAAAPAU?$_Tree_node@U?$pair@$$CBUALLEGRO_COLOR@@V?$vector@HV?$allocator@H@std@@@std@@@std@@PAX@2@PAU32@@Z 00462760 f i CommonPathfindingLib:GridVisualizer.obj
 0002:000387a0       ?_Right@?$_Tree_comp_alloc@V?$_Tmap_traits@UALLEGRO_COLOR@@V?$vector@HV?$allocator@H@std@@@std@@VAllegroColorCompare@@V?$allocator@U?$pair@$$CBUALLEGRO_COLOR@@V?$vector@HV?$allocator@H@std@@@std@@@std@@@3@$0A@@std@@@std@@SAAAPAU?$_Tree_node@U?$pair@$$CBUALLEGRO_COLOR@@V?$vector@HV?$allocator@H@std@@@std@@@std@@PAX@2@PAU32@@Z 004627a0 f i CommonPathfindingLib:GridVisualizer.obj
 0002:000387f0       ?_Right@?$_Tree_val@U?$_Tree_simple_types@U?$pair@$$CBUALLEGRO_COLOR@@V?$vector@HV?$allocator@H@std@@@std@@@std@@@std@@@std@@SAAAPAU?$_Tree_node@U?$pair@$$CBUALLEGRO_COLOR@@V?$vector@HV?$allocator@H@std@@@std@@@std@@PAX@2@PAU32@@Z 004627f0 f i CommonPathfindingLib:GridVisualizer.obj
 0002:00038830       ?_Rmost@?$_Tree@V?$_Tmap_traits@UALLEGRO_COLOR@@V?$vector@HV?$allocator@H@std@@@std@@VAllegroColorCompare@@V?$allocator@U?$pair@$$CBUALLEGRO_COLOR@@V?$vector@HV?$allocator@H@std@@@std@@@std@@@3@$0A@@std@@@std@@IBEAAPAU?$_Tree_node@U?$pair@$$CBUALLEGRO_COLOR@@V?$vector@HV?$allocator@H@std@@@std@@@std@@PAX@2@XZ 00462830 f i CommonPathfindingLib:GridVisualizer.obj
 0002:00038890       ?_Root@?$_Tree@V?$_Tmap_traits@UALLEGRO_COLOR@@V?$vector@HV?$allocator@H@std@@@std@@VAllegroColorCompare@@V?$allocator@U?$pair@$$CBUALLEGRO_COLOR@@V?$vector@HV?$allocator@H@std@@@std@@@std@@@3@$0A@@std@@@std@@IBEAAPAU?$_Tree_node@U?$pair@$$CBUALLEGRO_COLOR@@V?$vector@HV?$allocator@H@std@@@std@@@std@@PAX@2@XZ 00462890 f i CommonPathfindingLib:GridVisualizer.obj
 0002:000388f0       ?_Rrotate@?$_Tree@V?$_Tmap_traits@UALLEGRO_COLOR@@V?$vector@HV?$allocator@H@std@@@std@@VAllegroColorCompare@@V?$allocator@U?$pair@$$CBUALLEGRO_COLOR@@V?$vector@HV?$allocator@H@std@@@std@@@std@@@3@$0A@@std@@@std@@IAEXPAU?$_Tree_node@U?$pair@$$CBUALLEGRO_COLOR@@V?$vector@HV?$allocator@H@std@@@std@@@std@@PAX@2@@Z 004628f0 f i CommonPathfindingLib:GridVisualizer.obj
 0002:00038aa0       ?_Tidy@?$_Tree@V?$_Tmap_traits@UALLEGRO_COLOR@@V?$vector@HV?$allocator@H@std@@@std@@VAllegroColorCompare@@V?$allocator@U?$pair@$$CBUALLEGRO_COLOR@@V?$vector@HV?$allocator@H@std@@@std@@@std@@@3@$0A@@std@@@std@@IAEXXZ 00462aa0 f i CommonPathfindingLib:GridVisualizer.obj
 0002:00038c30       ?_Unchecked@?$_Vector_const_iterator@V?$_Vector_val@U?$_Simple_types@H@std@@@std@@@std@@QBEPBHXZ 00462c30 f i CommonPathfindingLib:GridVisualizer.obj
 0002:00038c70       ?addColor@GridVisualizer@@QAEXHABUALLEGRO_COLOR@@@Z 00462c70 f   CommonPathfindingLib:GridVisualizer.obj
 0002:00038e60       ?allocate@?$_Wrap_alloc@V?$allocator@U?$_Tree_node@U?$pair@$$CBUALLEGRO_COLOR@@V?$vector@HV?$allocator@H@std@@@std@@@std@@PAX@std@@@std@@@std@@QAEPAU?$_Tree_node@U?$pair@$$CBUALLEGRO_COLOR@@V?$vector@HV?$allocator@H@std@@@std@@@std@@PAX@2@I@Z 00462e60 f i CommonPathfindingLib:GridVisualizer.obj
 0002:00038ec0       ?allocate@?$allocator@U?$_Tree_node@U?$pair@$$CBUALLEGRO_COLOR@@V?$vector@HV?$allocator@H@std@@@std@@@std@@PAX@std@@@std@@QAEPAU?$_Tree_node@U?$pair@$$CBUALLEGRO_COLOR@@V?$vector@HV?$allocator@H@std@@@std@@@std@@PAX@2@I@Z 00462ec0 f i CommonPathfindingLib:GridVisualizer.obj
 0002:00038f20       ?begin@?$_Tree@V?$_Tmap_traits@UALLEGRO_COLOR@@V?$vector@HV?$allocator@H@std@@@std@@VAllegroColorCompare@@V?$allocator@U?$pair@$$CBUALLEGRO_COLOR@@V?$vector@HV?$allocator@H@std@@@std@@@std@@@3@$0A@@std@@@std@@QAE?AV?$_Tree_iterator@V?$_Tree_val@U?$_Tree_simple_types@U?$pair@$$CBUALLEGRO_COLOR@@V?$vector@HV?$allocator@H@std@@@std@@@std@@@std@@@std@@@2@XZ 00462f20 f i CommonPathfindingLib:GridVisualizer.obj
 0002:00038fd0       ?begin@?$vector@HV?$allocator@H@std@@@std@@QBE?AV?$_Vector_const_iterator@V?$_Vector_val@U?$_Simple_types@H@std@@@std@@@2@XZ 00462fd0 f i CommonPathfindingLib:GridVisualizer.obj
 0002:00039080       ?clear@?$_Tree@V?$_Tmap_traits@UALLEGRO_COLOR@@V?$vector@HV?$allocator@H@std@@@std@@VAllegroColorCompare@@V?$allocator@U?$pair@$$CBUALLEGRO_COLOR@@V?$vector@HV?$allocator@H@std@@@std@@@std@@@3@$0A@@std@@@std@@QAEXXZ 00463080 f i CommonPathfindingLib:GridVisualizer.obj
 0002:00039190       ?clear@?$vector@HV?$allocator@H@std@@@std@@QAEXXZ 00463190 f i CommonPathfindingLib:GridVisualizer.obj
 0002:00039260       ?clear@GridVisualizer@@QAEXXZ 00463260 f   CommonPathfindingLib:GridVisualizer.obj
 0002:000392c0       ?deallocate@?$_Wrap_alloc@V?$allocator@U?$_Tree_node@U?$pair@$$CBUALLEGRO_COLOR@@V?$vector@HV?$allocator@H@std@@@std@@@std@@PAX@std@@@std@@@std@@QAEXPAU?$_Tree_node@U?$pair@$$CBUALLEGRO_COLOR@@V?$vector@HV?$allocator@H@std@@@std@@@std@@PAX@2@I@Z 004632c0 f i CommonPathfindingLib:GridVisualizer.obj
 0002:00039320       ?deallocate@?$allocator@U?$_Tree_node@U?$pair@$$CBUALLEGRO_COLOR@@V?$vector@HV?$allocator@H@std@@@std@@@std@@PAX@std@@@std@@QAEXPAU?$_Tree_node@U?$pair@$$CBUALLEGRO_COLOR@@V?$vector@HV?$allocator@H@std@@@std@@@std@@PAX@2@I@Z 00463320 f i CommonPathfindingLib:GridVisualizer.obj
 0002:00039380       ?draw@GridVisualizer@@QAEXAAVGraphicsBuffer@@@Z 00463380 f   CommonPathfindingLib:GridVisualizer.obj
 0002:0003a100       ?empty@?$vector@HV?$allocator@H@std@@@std@@QBE_NXZ 00464100 f i CommonPathfindingLib:GridVisualizer.obj
 0002:0003a190       ?end@?$_Tree@V?$_Tmap_traits@UALLEGRO_COLOR@@V?$vector@HV?$allocator@H@std@@@std@@VAllegroColorCompare@@V?$allocator@U?$pair@$$CBUALLEGRO_COLOR@@V?$vector@HV?$allocator@H@std@@@std@@@std@@@3@$0A@@std@@@std@@QAE?AV?$_Tree_iterator@V?$_Tree_val@U?$_Tree_simple_types@U?$pair@$$CBUALLEGRO_COLOR@@V?$vector@HV?$allocator@H@std@@@std@@@std@@@std@@@std@@@2@XZ 00464190 f i CommonPathfindingLib:GridVisualizer.obj
 0002:0003a240       ?end@?$vector@HV?$allocator@H@std@@@std@@QBE?AV?$_Vector_const_iterator@V?$_Vector_val@U?$_Simple_types@H@std@@@std@@@2@XZ 00464240 f i CommonPathfindingLib:GridVisualizer.obj
 0002:0003a2f0       ?erase@?$_Tree@V?$_Tmap_traits@UALLEGRO_COLOR@@V?$vector@HV?$allocator@H@std@@@std@@VAllegroColorCompare@@V?$allocator@U?$pair@$$CBUALLEGRO_COLOR@@V?$vector@HV?$allocator@H@std@@@std@@@std@@@3@$0A@@std@@@std@@QAE?AV?$_Tree_iterator@V?$_Tree_val@U?$_Tree_simple_types@U?$pair@$$CBUALLEGRO_COLOR@@V?$vector@HV?$allocator@H@std@@@std@@@std@@@std@@@std@@@2@V?$_Tree_const_iterator@V?$_Tree_val@U?$_Tree_simple_types@U?$pair@$$CBUALLEGRO_COLOR@@V?$vector@HV?$allocator@H@std@@@std@@@std@@@std@@@std@@@2@0@Z 004642f0 f i CommonPathfindingLib:GridVisualizer.obj
 0002:0003a610       ?erase@?$_Tree@V?$_Tmap_traits@UALLEGRO_COLOR@@V?$vector@HV?$allocator@H@std@@@std@@VAllegroColorCompare@@V?$allocator@U?$pair@$$CBUALLEGRO_COLOR@@V?$vector@HV?$allocator@H@std@@@std@@@std@@@3@$0A@@std@@@std@@QAE?AV?$_Tree_iterator@V?$_Tree_val@U?$_Tree_simple_types@U?$pair@$$CBUALLEGRO_COLOR@@V?$vector@HV?$allocator@H@std@@@std@@@std@@@std@@@std@@@2@V?$_Tree_const_iterator@V?$_Tree_val@U?$_Tree_simple_types@U?$pair@$$CBUALLEGRO_COLOR@@V?$vector@HV?$allocator@H@std@@@std@@@std@@@std@@@std@@@2@@Z 00464610 f i CommonPathfindingLib:GridVisualizer.obj
 0002:0003b0a0       ?find@?$_Tree@V?$_Tmap_traits@UALLEGRO_COLOR@@V?$vector@HV?$allocator@H@std@@@std@@VAllegroColorCompare@@V?$allocator@U?$pair@$$CBUALLEGRO_COLOR@@V?$vector@HV?$allocator@H@std@@@std@@@std@@@3@$0A@@std@@@std@@QAE?AV?$_Tree_iterator@V?$_Tree_val@U?$_Tree_simple_types@U?$pair@$$CBUALLEGRO_COLOR@@V?$vector@HV?$allocator@H@std@@@std@@@std@@@std@@@std@@@2@ABUALLEGRO_COLOR@@@Z 004650a0 f i CommonPathfindingLib:GridVisualizer.obj
 0002:0003b3a0       ?getBitmap@GraphicsBuffer@@QBEPAUALLEGRO_BITMAP@@XZ 004653a0 f i CommonPathfindingLib:GridVisualizer.obj
 0002:0003b3e0       ?getGridHeight@Grid@@QBEHXZ 004653e0 f i CommonPathfindingLib:GridVisualizer.obj
 0002:0003b420       ?getGridWidth@Grid@@QBEHXZ 00465420 f i CommonPathfindingLib:GridVisualizer.obj
 0002:0003b460       ?getNumValues@Grid@@QBEHXZ 00465460 f i CommonPathfindingLib:GridVisualizer.obj
 0002:0003b4b0       ?getSpriteManager@Game@@QBEPAVSpriteManager@@XZ 004654b0 f i CommonPathfindingLib:GridVisualizer.obj
 0002:0003b4f0       ?getSquareSize@Grid@@QBEHXZ 004654f0 f i CommonPathfindingLib:GridVisualizer.obj
 0002:0003b530       ?getX@Vector2D@@QBEMXZ     00465530 f i CommonPathfindingLib:GridVisualizer.obj
 0002:0003b570       ?getY@Vector2D@@QBEMXZ     00465570 f i CommonPathfindingLib:GridVisualizer.obj
 0002:0003b5b0       ?lower_bound@?$_Tree@V?$_Tmap_traits@UALLEGRO_COLOR@@V?$vector@HV?$allocator@H@std@@@std@@VAllegroColorCompare@@V?$allocator@U?$pair@$$CBUALLEGRO_COLOR@@V?$vector@HV?$allocator@H@std@@@std@@@std@@@3@$0A@@std@@@std@@QAE?AV?$_Tree_iterator@V?$_Tree_val@U?$_Tree_simple_types@U?$pair@$$CBUALLEGRO_COLOR@@V?$vector@HV?$allocator@H@std@@@std@@@std@@@std@@@std@@@2@ABUALLEGRO_COLOR@@@Z 004655b0 f i CommonPathfindingLib:GridVisualizer.obj
 0002:0003b640       ?max_size@?$_Tree@V?$_Tmap_traits@UALLEGRO_COLOR@@V?$vector@HV?$allocator@H@std@@@std@@VAllegroColorCompare@@V?$allocator@U?$pair@$$CBUALLEGRO_COLOR@@V?$vector@HV?$allocator@H@std@@@std@@@std@@@3@$0A@@std@@@std@@QBEIXZ 00465640 f i CommonPathfindingLib:GridVisualizer.obj
 0002:0003b6b0       ?max_size@?$_Wrap_alloc@V?$allocator@U?$_Tree_node@U?$pair@$$CBUALLEGRO_COLOR@@V?$vector@HV?$allocator@H@std@@@std@@@std@@PAX@std@@@std@@@std@@QBEIU_Nil@2@@Z 004656b0 f i CommonPathfindingLib:GridVisualizer.obj
 0002:0003b710       ?max_size@?$allocator@U?$_Tree_node@U?$pair@$$CBUALLEGRO_COLOR@@V?$vector@HV?$allocator@H@std@@@std@@@std@@PAX@std@@@std@@QBEIXZ 00465710 f i CommonPathfindingLib:GridVisualizer.obj
 0002:0003b750       ?max_size@?$allocator_traits@V?$allocator@U?$_Tree_node@U?$pair@$$CBUALLEGRO_COLOR@@V?$vector@HV?$allocator@H@std@@@std@@@std@@PAX@std@@@std@@@std@@SAIABV?$allocator@U?$_Tree_node@U?$pair@$$CBUALLEGRO_COLOR@@V?$vector@HV?$allocator@H@std@@@std@@@std@@PAX@std@@@2@@Z 00465750 f i CommonPathfindingLib:GridVisualizer.obj
 0002:0003b7a0       ?pointer_to@?$pointer_traits@PAU?$pair@$$CBUALLEGRO_COLOR@@V?$vector@HV?$allocator@H@std@@@std@@@std@@@std@@SAPAU?$pair@$$CBUALLEGRO_COLOR@@V?$vector@HV?$allocator@H@std@@@std@@@2@AAU32@@Z 004657a0 f i CommonPathfindingLib:GridVisualizer.obj
 0002:0003b7f0       ?refresh@GridVisualizer@@AAEXXZ 004657f0 f   CommonPathfindingLib:GridVisualizer.obj
 0002:0003b8e0       ?removeAllEntriesOfColor@GridVisualizer@@QAEXABUALLEGRO_COLOR@@@Z 004658e0 f   CommonPathfindingLib:GridVisualizer.obj
 0002:0003ba80       ?select_on_container_copy_construction@?$_Wrap_alloc@V?$allocator@H@std@@@std@@QBE?AU12@U_Nil@2@@Z 00465a80 f i CommonPathfindingLib:GridVisualizer.obj
 0002:0003baf0       ?select_on_container_copy_construction@?$allocator_traits@V?$allocator@H@std@@@std@@SA?AV?$allocator@H@2@ABV32@@Z 00465af0 f i CommonPathfindingLib:GridVisualizer.obj
 0002:0003bb50       ?size@?$_Tree@V?$_Tmap_traits@UALLEGRO_COLOR@@V?$vector@HV?$allocator@H@std@@@std@@VAllegroColorCompare@@V?$allocator@U?$pair@$$CBUALLEGRO_COLOR@@V?$vector@HV?$allocator@H@std@@@std@@@std@@@3@$0A@@std@@@std@@QBEIXZ 00465b50 f i CommonPathfindingLib:GridVisualizer.obj
 0002:0003bbb0       ??$?0$$V@?$_Compressed_pair@U?$_Wrap_alloc@V?$allocator@U?$_Tree_node@U?$pair@$$CBHPAVSprite@@@std@@PAX@std@@@std@@@std@@V?$_Tree_val@U?$_Tree_simple_types@U?$pair@$$CBHPAVSprite@@@std@@@std@@@2@$00@std@@QAE@U_Zero_then_variadic_args_t@1@@Z 00465bb0 f i CommonPathfindingLib:SpriteManager.obj
 0002:0003bc10       ??$?0AAU?$_Wrap_alloc@V?$allocator@U?$_Tree_node@U?$pair@$$CBHPAVSprite@@@std@@PAX@std@@@std@@@std@@@?$_Wrap_alloc@V?$allocator@U_Container_proxy@std@@@std@@@std@@QAE@AAU?$_Wrap_alloc@V?$allocator@U?$_Tree_node@U?$pair@$$CBHPAVSprite@@@std@@PAX@std@@@std@@@1@@Z 00465c10 f i CommonPathfindingLib:SpriteManager.obj
 0002:0003bc80       ??$?0AAV?$_Tree_iterator@V?$_Tree_val@U?$_Tree_simple_types@U?$pair@$$CBHPAVSprite@@@std@@@std@@@std@@@std@@_NX$0A@@?$pair@V?$_Tree_iterator@V?$_Tree_val@U?$_Tree_simple_types@U?$pair@$$CBHPAVSprite@@@std@@@std@@@std@@@std@@_N@std@@QAE@AAV?$_Tree_iterator@V?$_Tree_val@U?$_Tree_simple_types@U?$pair@$$CBHPAVSprite@@@std@@@std@@@std@@@1@$$QA_N@Z 00465c80 f i CommonPathfindingLib:SpriteManager.obj
 0002:0003bd00       ??$?0ABH$$Z$$V@?$pair@$$CBHPAVSprite@@@std@@QAE@Upiecewise_construct_t@1@V?$tuple@ABH@1@V?$tuple@$$V@1@@Z 00465d00 f i CommonPathfindingLib:SpriteManager.obj
 0002:0003bd80       ??$?0ABU?$less@H@std@@U_Zero_then_variadic_args_t@1@@?$_Compressed_pair@U?$less@H@std@@V?$_Compressed_pair@U?$_Wrap_alloc@V?$allocator@U?$_Tree_node@U?$pair@$$CBHPAVSprite@@@std@@PAX@std@@@std@@@std@@V?$_Tree_val@U?$_Tree_simple_types@U?$pair@$$CBHPAVSprite@@@std@@@std@@@2@$00@2@$00@std@@QAE@U_One_then_variadic_args_t@1@ABU?$less@H@1@$$QAU_Zero_then_variadic_args_t@1@@Z 00465d80 f i CommonPathfindingLib:SpriteManager.obj
 0002:0003be00       ??$?0U?$_Tree_node@U?$pair@$$CBHPAVSprite@@@std@@PAX@std@@@?$allocator@U_Container_proxy@std@@@std@@QAE@ABV?$allocator@U?$_Tree_node@U?$pair@$$CBHPAVSprite@@@std@@PAX@std@@@1@@Z 00465e00 f i CommonPathfindingLib:SpriteManager.obj
 0002:0003be40       ??$?0V?$_Tree_iterator@V?$_Tree_val@U?$_Tree_simple_types@U?$pair@$$CBHPAVSprite@@@std@@@std@@@std@@@std@@_NX$0A@@?$pair@V?$_Tree_iterator@V?$_Tree_val@U?$_Tree_simple_types@U?$pair@$$CBHPAVSprite@@@std@@@std@@@std@@@std@@_N@std@@QAE@$$QAV?$_Tree_iterator@V?$_Tree_val@U?$_Tree_simple_types@U?$pair@$$CBHPAVSprite@@@std@@@std@@@std@@@1@$$QA_N@Z 00465e40 f i CommonPathfindingLib:SpriteManager.obj
 0002:0003bec0       ??$?0V?$tuple@ABH@std@@V?$tuple@$$V@1@$0A@$$Z$S@?$pair@$$CBHPAVSprite@@@std@@QAE@AAV?$tuple@ABH@1@AAV?$tuple@$$V@1@U?$integer_sequence@I$0A@@1@U?$integer_sequence@I$S@1@@Z 00465ec0 f i CommonPathfindingLib:SpriteManager.obj
 0002:0003bf40       ??$_Buynode@ABUpiecewise_construct_t@std@@V?$tuple@ABH@2@V?$tuple@$$V@2@@?$_Tree_comp_alloc@V?$_Tmap_traits@HPAVSprite@@U?$less@H@std@@V?$allocator@U?$pair@$$CBHPAVSprite@@@std@@@3@$0A@@std@@@std@@QAEPAU?$_Tree_node@U?$pair@$$CBHPAVSprite@@@std@@PAX@1@ABUpiecewise_construct_t@1@$$QAV?$tuple@ABH@1@$$QAV?$tuple@$$V@1@@Z 00465f40 f i CommonPathfindingLib:SpriteManager.obj
 0002:0003c0b0       ??$_Buynode_if_nil@AAU?$pair@$$CBHPAVSprite@@@std@@@?$_Tree@V?$_Tmap_traits@HPAVSprite@@U?$less@H@std@@V?$allocator@U?$pair@$$CBHPAVSprite@@@std@@@3@$0A@@std@@@std@@IAEPAU?$_Tree_node@U?$pair@$$CBHPAVSprite@@@std@@PAX@1@PAU21@AAU?$pair@$$CBHPAVSprite@@@1@@Z 004660b0 f i CommonPathfindingLib:SpriteManager.obj
 0002:0003c0f0       ??$_Insert_at@AAU?$pair@$$CBHPAVSprite@@@std@@PAU?$_Tree_node@U?$pair@$$CBHPAVSprite@@@std@@PAX@2@@?$_Tree@V?$_Tmap_traits@HPAVSprite@@U?$less@H@std@@V?$allocator@U?$pair@$$CBHPAVSprite@@@std@@@3@$0A@@std@@@std@@IAE?AV?$_Tree_iterator@V?$_Tree_val@U?$_Tree_simple_types@U?$pair@$$CBHPAVSprite@@@std@@@std@@@std@@@1@_NPAU?$_Tree_node@U?$pair@$$CBHPAVSprite@@@std@@PAX@1@AAU?$pair@$$CBHPAVSprite@@@1@1@Z 004660f0 f i CommonPathfindingLib:SpriteManager.obj
 0002:0003c6b0       ??$_Insert_hint@AAU?$pair@$$CBHPAVSprite@@@std@@PAU?$_Tree_node@U?$pair@$$CBHPAVSprite@@@std@@PAX@2@@?$_Tree@V?$_Tmap_traits@HPAVSprite@@U?$less@H@std@@V?$allocator@U?$pair@$$CBHPAVSprite@@@std@@@3@$0A@@std@@@std@@IAE?AV?$_Tree_iterator@V?$_Tree_val@U?$_Tree_simple_types@U?$pair@$$CBHPAVSprite@@@std@@@std@@@std@@@1@V?$_Tree_const_iterator@V?$_Tree_val@U?$_Tree_simple_types@U?$pair@$$CBHPAVSprite@@@std@@@std@@@std@@@1@AAU?$pair@$$CBHPAVSprite@@@1@PAU?$_Tree_node@U?$pair@$$CBHPAVSprite@@@std@@PAX@1@@Z 004666b0 f i CommonPathfindingLib:SpriteManager.obj
 0002:0003dc00       ??$_Insert_nohint@AAU?$pair@$$CBHPAVSprite@@@std@@PAU?$_Tree_node@U?$pair@$$CBHPAVSprite@@@std@@PAX@2@@?$_Tree@V?$_Tmap_traits@HPAVSprite@@U?$less@H@std@@V?$allocator@U?$pair@$$CBHPAVSprite@@@std@@@3@$0A@@std@@@std@@IAE?AU?$pair@V?$_Tree_iterator@V?$_Tree_val@U?$_Tree_simple_types@U?$pair@$$CBHPAVSprite@@@std@@@std@@@std@@@std@@_N@1@_NAAU?$pair@$$CBHPAVSprite@@@1@PAU?$_Tree_node@U?$pair@$$CBHPAVSprite@@@std@@PAX@1@@Z 00467c00 f i CommonPathfindingLib:SpriteManager.obj
 0002:0003e2d0       ??$_Kfn@$$CBHPAVSprite@@@?$_Tmap_traits@HPAVSprite@@U?$less@H@std@@V?$allocator@U?$pair@$$CBHPAVSprite@@@std@@@3@$0A@@std@@SAABHABU?$pair@$$CBHPAVSprite@@@1@@Z 004682d0 f i CommonPathfindingLib:SpriteManager.obj
 0002:0003e310       ??$_Lbound@H@?$_Tree@V?$_Tmap_traits@HPAVSprite@@U?$less@H@std@@V?$allocator@U?$pair@$$CBHPAVSprite@@@std@@@3@$0A@@std@@@std@@IBEPAU?$_Tree_node@U?$pair@$$CBHPAVSprite@@@std@@PAX@1@ABH@Z 00468310 f i CommonPathfindingLib:SpriteManager.obj
 0002:0003e400       ??$_Try_emplace@ABH$$V@?$map@HPAVSprite@@U?$less@H@std@@V?$allocator@U?$pair@$$CBHPAVSprite@@@std@@@3@@std@@QAE?AU?$pair@V?$_Tree_iterator@V?$_Tree_val@U?$_Tree_simple_types@U?$pair@$$CBHPAVSprite@@@std@@@std@@@std@@@std@@_N@1@ABH@Z 00468400 f i CommonPathfindingLib:SpriteManager.obj
 0002:0003e750       ??$addressof@PAU?$_Tree_node@U?$pair@$$CBHPAVSprite@@@std@@PAX@std@@@std@@YAPAPAU?$_Tree_node@U?$pair@$$CBHPAVSprite@@@std@@PAX@0@AAPAU10@@Z 00468750 f i CommonPathfindingLib:SpriteManager.obj
 0002:0003e790       ??$addressof@U?$pair@$$CBHPAVSprite@@@std@@@std@@YAPAU?$pair@$$CBHPAVSprite@@@0@AAU10@@Z 00468790 f i CommonPathfindingLib:SpriteManager.obj
 0002:0003e7d0       ??$construct@PAU?$_Tree_node@U?$pair@$$CBHPAVSprite@@@std@@PAX@std@@AAPAU12@@?$_Wrap_alloc@V?$allocator@U?$_Tree_node@U?$pair@$$CBHPAVSprite@@@std@@PAX@std@@@std@@@std@@QAEXPAPAU?$_Tree_node@U?$pair@$$CBHPAVSprite@@@std@@PAX@1@AAPAU21@@Z 004687d0 f i CommonPathfindingLib:SpriteManager.obj
 0002:0003e840       ??$construct@PAU?$_Tree_node@U?$pair@$$CBHPAVSprite@@@std@@PAX@std@@AAPAU12@@?$allocator@U?$_Tree_node@U?$pair@$$CBHPAVSprite@@@std@@PAX@std@@@std@@QAEXPAPAU?$_Tree_node@U?$pair@$$CBHPAVSprite@@@std@@PAX@1@AAPAU21@@Z 00468840 f i CommonPathfindingLib:SpriteManager.obj
 0002:0003e8f0       ??$construct@PAU?$_Tree_node@U?$pair@$$CBHPAVSprite@@@std@@PAX@std@@AAPAU12@@?$allocator_traits@V?$allocator@U?$_Tree_node@U?$pair@$$CBHPAVSprite@@@std@@PAX@std@@@std@@@std@@SAXAAV?$allocator@U?$_Tree_node@U?$pair@$$CBHPAVSprite@@@std@@PAX@std@@@1@PAPAU?$_Tree_node@U?$pair@$$CBHPAVSprite@@@std@@PAX@1@AAPAU31@@Z 004688f0 f i CommonPathfindingLib:SpriteManager.obj
 0002:0003e950       ??$construct@U?$pair@$$CBHPAVSprite@@@std@@ABUpiecewise_construct_t@2@V?$tuple@ABH@2@V?$tuple@$$V@2@@?$_Wrap_alloc@V?$allocator@U?$_Tree_node@U?$pair@$$CBHPAVSprite@@@std@@PAX@std@@@std@@@std@@QAEXPAU?$pair@$$CBHPAVSprite@@@1@ABUpiecewise_construct_t@1@$$QAV?$tuple@ABH@1@$$QAV?$tuple@$$V@1@@Z 00468950 f i CommonPathfindingLib:SpriteManager.obj
 0002:0003e9e0       ??$construct@U?$pair@$$CBHPAVSprite@@@std@@ABUpiecewise_construct_t@2@V?$tuple@ABH@2@V?$tuple@$$V@2@@?$allocator@U?$_Tree_node@U?$pair@$$CBHPAVSprite@@@std@@PAX@std@@@std@@QAEXPAU?$pair@$$CBHPAVSprite@@@1@ABUpiecewise_construct_t@1@$$QAV?$tuple@ABH@1@$$QAV?$tuple@$$V@1@@Z 004689e0 f i CommonPathfindingLib:SpriteManager.obj
 0002:0003eb20       ??$construct@U?$pair@$$CBHPAVSprite@@@std@@ABUpiecewise_construct_t@2@V?$tuple@ABH@2@V?$tuple@$$V@2@@?$allocator_traits@V?$allocator@U?$_Tree_node@U?$pair@$$CBHPAVSprite@@@std@@PAX@std@@@std@@@std@@SAXAAV?$allocator@U?$_Tree_node@U?$pair@$$CBHPAVSprite@@@std@@PAX@std@@@1@PAU?$pair@$$CBHPAVSprite@@@1@ABUpiecewise_construct_t@1@$$QAV?$tuple@ABH@1@$$QAV?$tuple@$$V@1@@Z 00468b20 f i CommonPathfindingLib:SpriteManager.obj
 0002:0003eba0       ??$destroy@PAU?$_Tree_node@U?$pair@$$CBHPAVSprite@@@std@@PAX@std@@@?$_Wrap_alloc@V?$allocator@U?$_Tree_node@U?$pair@$$CBHPAVSprite@@@std@@PAX@std@@@std@@@std@@QAEXPAPAU?$_Tree_node@U?$pair@$$CBHPAVSprite@@@std@@PAX@1@@Z 00468ba0 f i CommonPathfindingLib:SpriteManager.obj
 0002:0003ec00       ??$destroy@PAU?$_Tree_node@U?$pair@$$CBHPAVSprite@@@std@@PAX@std@@@?$allocator@U?$_Tree_node@U?$pair@$$CBHPAVSprite@@@std@@PAX@std@@@std@@QAEXPAPAU?$_Tree_node@U?$pair@$$CBHPAVSprite@@@std@@PAX@1@@Z 00468c00 f i CommonPathfindingLib:SpriteManager.obj
 0002:0003ec40       ??$destroy@PAU?$_Tree_node@U?$pair@$$CBHPAVSprite@@@std@@PAX@std@@@?$allocator_traits@V?$allocator@U?$_Tree_node@U?$pair@$$CBHPAVSprite@@@std@@PAX@std@@@std@@@std@@SAXAAV?$allocator@U?$_Tree_node@U?$pair@$$CBHPAVSprite@@@std@@PAX@std@@@1@PAPAU?$_Tree_node@U?$pair@$$CBHPAVSprite@@@std@@PAX@1@@Z 00468c40 f i CommonPathfindingLib:SpriteManager.obj
 0002:0003ec90       ??$destroy@U?$pair@$$CBHPAVSprite@@@std@@@?$_Wrap_alloc@V?$allocator@U?$_Tree_node@U?$pair@$$CBHPAVSprite@@@std@@PAX@std@@@std@@@std@@QAEXPAU?$pair@$$CBHPAVSprite@@@1@@Z 00468c90 f i CommonPathfindingLib:SpriteManager.obj
 0002:0003ecf0       ??$destroy@U?$pair@$$CBHPAVSprite@@@std@@@?$allocator@U?$_Tree_node@U?$pair@$$CBHPAVSprite@@@std@@PAX@std@@@std@@QAEXPAU?$pair@$$CBHPAVSprite@@@1@@Z 00468cf0 f i CommonPathfindingLib:SpriteManager.obj
 0002:0003ed30       ??$destroy@U?$pair@$$CBHPAVSprite@@@std@@@?$allocator_traits@V?$allocator@U?$_Tree_node@U?$pair@$$CBHPAVSprite@@@std@@PAX@std@@@std@@@std@@SAXAAV?$allocator@U?$_Tree_node@U?$pair@$$CBHPAVSprite@@@std@@PAX@std@@@1@PAU?$pair@$$CBHPAVSprite@@@1@@Z 00468d30 f i CommonPathfindingLib:SpriteManager.obj
 0002:0003ed80       ??$emplace_hint@ABUpiecewise_construct_t@std@@V?$tuple@ABH@2@V?$tuple@$$V@2@@?$_Tree@V?$_Tmap_traits@HPAVSprite@@U?$less@H@std@@V?$allocator@U?$pair@$$CBHPAVSprite@@@std@@@3@$0A@@std@@@std@@QAE?AV?$_Tree_iterator@V?$_Tree_val@U?$_Tree_simple_types@U?$pair@$$CBHPAVSprite@@@std@@@std@@@std@@@1@V?$_Tree_const_iterator@V?$_Tree_val@U?$_Tree_simple_types@U?$pair@$$CBHPAVSprite@@@std@@@std@@@std@@@1@ABUpiecewise_construct_t@1@$$QAV?$tuple@ABH@1@$$QAV?$tuple@$$V@1@@Z 00468d80 f i CommonPathfindingLib:SpriteManager.obj
 0002:0003eed0       ??$forward@AAPAU?$_Tree_node@U?$pair@$$CBHPAVSprite@@@std@@PAX@std@@@std@@YAAAPAU?$_Tree_node@U?$pair@$$CBHPAVSprite@@@std@@PAX@0@AAPAU10@@Z 00468ed0 f i CommonPathfindingLib:SpriteManager.obj
 0002:0003ef10       ??$forward@AAU?$_Wrap_alloc@V?$allocator@U?$_Tree_node@U?$pair@$$CBHPAVSprite@@@std@@PAX@std@@@std@@@std@@@std@@YAAAU?$_Wrap_alloc@V?$allocator@U?$_Tree_node@U?$pair@$$CBHPAVSprite@@@std@@PAX@std@@@std@@@0@AAU10@@Z 00468f10 f i CommonPathfindingLib:SpriteManager.obj
 0002:0003ef50       ??$forward@AAU?$pair@$$CBHPAVSprite@@@std@@@std@@YAAAU?$pair@$$CBHPAVSprite@@@0@AAU10@@Z 00468f50 f i CommonPathfindingLib:SpriteManager.obj
 0002:0003ef90       ??$forward@AAV?$_Tree_iterator@V?$_Tree_val@U?$_Tree_simple_types@U?$pair@$$CBHPAVSprite@@@std@@@std@@@std@@@std@@@std@@YAAAV?$_Tree_iterator@V?$_Tree_val@U?$_Tree_simple_types@U?$pair@$$CBHPAVSprite@@@std@@@std@@@std@@@0@AAV10@@Z 00468f90 f i CommonPathfindingLib:SpriteManager.obj
 0002:0003efd0       ??$forward@V?$_Tree_iterator@V?$_Tree_val@U?$_Tree_simple_types@U?$pair@$$CBHPAVSprite@@@std@@@std@@@std@@@std@@@std@@YA$$QAV?$_Tree_iterator@V?$_Tree_val@U?$_Tree_simple_types@U?$pair@$$CBHPAVSprite@@@std@@@std@@@std@@@0@AAV10@@Z 00468fd0 f i CommonPathfindingLib:SpriteManager.obj
 0002:0003f010       ??$try_emplace@$$V@?$map@HPAVSprite@@U?$less@H@std@@V?$allocator@U?$pair@$$CBHPAVSprite@@@std@@@3@@std@@QAE?AU?$pair@V?$_Tree_iterator@V?$_Tree_val@U?$_Tree_simple_types@U?$pair@$$CBHPAVSprite@@@std@@@std@@@std@@@std@@_N@1@ABH@Z 00469010 f i CommonPathfindingLib:SpriteManager.obj
 0002:0003f090       ??0?$_Iterator012@Ubidirectional_iterator_tag@std@@U?$pair@$$CBHPAVSprite@@@2@HPBU32@ABU32@U_Iterator_base12@2@@std@@QAE@$$QAU01@@Z 00469090 f i CommonPathfindingLib:SpriteManager.obj
 0002:0003f0f0       ??0?$_Iterator012@Ubidirectional_iterator_tag@std@@U?$pair@$$CBHPAVSprite@@@2@HPBU32@ABU32@U_Iterator_base12@2@@std@@QAE@ABU01@@Z 004690f0 f i CommonPathfindingLib:SpriteManager.obj
 0002:0003f150       ??0?$_Iterator012@Ubidirectional_iterator_tag@std@@U?$pair@$$CBHPAVSprite@@@2@HPBU32@ABU32@U_Iterator_base12@2@@std@@QAE@XZ 00469150 f i CommonPathfindingLib:SpriteManager.obj
 0002:0003f1b0       ??0?$_Tree@V?$_Tmap_traits@HPAVSprite@@U?$less@H@std@@V?$allocator@U?$pair@$$CBHPAVSprite@@@std@@@3@$0A@@std@@@std@@QAE@ABU?$less@H@1@@Z 004691b0 f i CommonPathfindingLib:SpriteManager.obj
 0002:0003f210       ??0?$_Tree_comp_alloc@V?$_Tmap_traits@HPAVSprite@@U?$less@H@std@@V?$allocator@U?$pair@$$CBHPAVSprite@@@std@@@3@$0A@@std@@@std@@QAE@ABU?$less@H@1@@Z 00469210 f i CommonPathfindingLib:SpriteManager.obj
 0002:0003f2d0       ??0?$_Tree_const_iterator@V?$_Tree_val@U?$_Tree_simple_types@U?$pair@$$CBHPAVSprite@@@std@@@std@@@std@@@std@@QAE@$$QAV01@@Z 004692d0 f i CommonPathfindingLib:SpriteManager.obj
 0002:0003f330       ??0?$_Tree_const_iterator@V?$_Tree_val@U?$_Tree_simple_types@U?$pair@$$CBHPAVSprite@@@std@@@std@@@std@@@std@@QAE@ABV01@@Z 00469330 f i CommonPathfindingLib:SpriteManager.obj
 0002:0003f390       ??0?$_Tree_const_iterator@V?$_Tree_val@U?$_Tree_simple_types@U?$pair@$$CBHPAVSprite@@@std@@@std@@@std@@@std@@QAE@PAU?$_Tree_node@U?$pair@$$CBHPAVSprite@@@std@@PAX@1@PBV?$_Tree_val@U?$_Tree_simple_types@U?$pair@$$CBHPAVSprite@@@std@@@std@@@1@@Z 00469390 f i CommonPathfindingLib:SpriteManager.obj
 0002:0003f3f0       ??0?$_Tree_const_iterator@V?$_Tree_val@U?$_Tree_simple_types@U?$pair@$$CBHPAVSprite@@@std@@@std@@@std@@@std@@QAE@XZ 004693f0 f i CommonPathfindingLib:SpriteManager.obj
 0002:0003f450       ??0?$_Tree_iterator@V?$_Tree_val@U?$_Tree_simple_types@U?$pair@$$CBHPAVSprite@@@std@@@std@@@std@@@std@@QAE@$$QAV01@@Z 00469450 f i CommonPathfindingLib:SpriteManager.obj
 0002:0003f4b0       ??0?$_Tree_iterator@V?$_Tree_val@U?$_Tree_simple_types@U?$pair@$$CBHPAVSprite@@@std@@@std@@@std@@@std@@QAE@ABV01@@Z 004694b0 f i CommonPathfindingLib:SpriteManager.obj
 0002:0003f510       ??0?$_Tree_iterator@V?$_Tree_val@U?$_Tree_simple_types@U?$pair@$$CBHPAVSprite@@@std@@@std@@@std@@@std@@QAE@PAU?$_Tree_node@U?$pair@$$CBHPAVSprite@@@std@@PAX@1@PBV?$_Tree_val@U?$_Tree_simple_types@U?$pair@$$CBHPAVSprite@@@std@@@std@@@1@@Z 00469510 f i CommonPathfindingLib:SpriteManager.obj
 0002:0003f570       ??0?$_Tree_iterator@V?$_Tree_val@U?$_Tree_simple_types@U?$pair@$$CBHPAVSprite@@@std@@@std@@@std@@@std@@QAE@XZ 00469570 f i CommonPathfindingLib:SpriteManager.obj
 0002:0003f5d0       ??0?$_Tree_unchecked_const_iterator@V?$_Tree_val@U?$_Tree_simple_types@U?$pair@$$CBHPAVSprite@@@std@@@std@@@std@@U_Iterator_base12@2@@std@@QAE@$$QAV01@@Z 004695d0 f i CommonPathfindingLib:SpriteManager.obj
 0002:0003f640       ??0?$_Tree_unchecked_const_iterator@V?$_Tree_val@U?$_Tree_simple_types@U?$pair@$$CBHPAVSprite@@@std@@@std@@@std@@U_Iterator_base12@2@@std@@QAE@ABV01@@Z 00469640 f i CommonPathfindingLib:SpriteManager.obj
 0002:0003f6b0       ??0?$_Tree_unchecked_const_iterator@V?$_Tree_val@U?$_Tree_simple_types@U?$pair@$$CBHPAVSprite@@@std@@@std@@@std@@U_Iterator_base12@2@@std@@QAE@PAU?$_Tree_node@U?$pair@$$CBHPAVSprite@@@std@@PAX@1@PBV?$_Tree_val@U?$_Tree_simple_types@U?$pair@$$CBHPAVSprite@@@std@@@std@@@1@@Z 004696b0 f i CommonPathfindingLib:SpriteManager.obj
 0002:0003f770       ??0?$_Tree_unchecked_const_iterator@V?$_Tree_val@U?$_Tree_simple_types@U?$pair@$$CBHPAVSprite@@@std@@@std@@@std@@U_Iterator_base12@2@@std@@QAE@XZ 00469770 f i CommonPathfindingLib:SpriteManager.obj
 0002:0003f7d0       ??0?$_Tree_val@U?$_Tree_simple_types@U?$pair@$$CBHPAVSprite@@@std@@@std@@@std@@QAE@XZ 004697d0 f i CommonPathfindingLib:SpriteManager.obj
 0002:0003f840       ??0?$_Wrap_alloc@V?$allocator@U?$_Tree_node@U?$pair@$$CBHPAVSprite@@@std@@PAX@std@@@std@@@std@@QAE@XZ 00469840 f i CommonPathfindingLib:SpriteManager.obj
 0002:0003f8a0       ??0?$allocator@U?$_Tree_node@U?$pair@$$CBHPAVSprite@@@std@@PAX@std@@@std@@QAE@XZ 004698a0 f i CommonPathfindingLib:SpriteManager.obj
 0002:0003f8e0       ??0?$map@HPAVSprite@@U?$less@H@std@@V?$allocator@U?$pair@$$CBHPAVSprite@@@std@@@3@@std@@QAE@XZ 004698e0 f i CommonPathfindingLib:SpriteManager.obj
 0002:0003f940       ??0SpriteManager@@QAE@XZ   00469940 f   CommonPathfindingLib:SpriteManager.obj
 0002:0003f9a0       ??1?$_Compressed_pair@U?$_Wrap_alloc@V?$allocator@U?$_Tree_node@U?$pair@$$CBHPAVSprite@@@std@@PAX@std@@@std@@@std@@V?$_Tree_val@U?$_Tree_simple_types@U?$pair@$$CBHPAVSprite@@@std@@@std@@@2@$00@std@@QAE@XZ 004699a0 f i CommonPathfindingLib:SpriteManager.obj
 0002:0003f9f0       ??1?$_Compressed_pair@U?$less@H@std@@V?$_Compressed_pair@U?$_Wrap_alloc@V?$allocator@U?$_Tree_node@U?$pair@$$CBHPAVSprite@@@std@@PAX@std@@@std@@@std@@V?$_Tree_val@U?$_Tree_simple_types@U?$pair@$$CBHPAVSprite@@@std@@@std@@@2@$00@2@$00@std@@QAE@XZ 004699f0 f i CommonPathfindingLib:SpriteManager.obj
 0002:0003fa40       ??1?$_Iterator012@Ubidirectional_iterator_tag@std@@U?$pair@$$CBHPAVSprite@@@2@HPBU32@ABU32@U_Iterator_base12@2@@std@@QAE@XZ 00469a40 f i CommonPathfindingLib:SpriteManager.obj
 0002:0003fa90       ??1?$_Tree@V?$_Tmap_traits@HPAVSprite@@U?$less@H@std@@V?$allocator@U?$pair@$$CBHPAVSprite@@@std@@@3@$0A@@std@@@std@@QAE@XZ 00469a90 f i CommonPathfindingLib:SpriteManager.obj
 0002:0003fb20       ??1?$_Tree_comp_alloc@V?$_Tmap_traits@HPAVSprite@@U?$less@H@std@@V?$allocator@U?$pair@$$CBHPAVSprite@@@std@@@3@$0A@@std@@@std@@QAE@XZ 00469b20 f i CommonPathfindingLib:SpriteManager.obj
 0002:0003fbd0       ??1?$_Tree_const_iterator@V?$_Tree_val@U?$_Tree_simple_types@U?$pair@$$CBHPAVSprite@@@std@@@std@@@std@@@std@@QAE@XZ 00469bd0 f i CommonPathfindingLib:SpriteManager.obj
 0002:0003fc20       ??1?$_Tree_iterator@V?$_Tree_val@U?$_Tree_simple_types@U?$pair@$$CBHPAVSprite@@@std@@@std@@@std@@@std@@QAE@XZ 00469c20 f i CommonPathfindingLib:SpriteManager.obj
 0002:0003fc70       ??1?$_Tree_unchecked_const_iterator@V?$_Tree_val@U?$_Tree_simple_types@U?$pair@$$CBHPAVSprite@@@std@@@std@@@std@@U_Iterator_base12@2@@std@@QAE@XZ 00469c70 f i CommonPathfindingLib:SpriteManager.obj
 0002:0003fcc0       ??1?$_Tree_val@U?$_Tree_simple_types@U?$pair@$$CBHPAVSprite@@@std@@@std@@@std@@QAE@XZ 00469cc0 f i CommonPathfindingLib:SpriteManager.obj
 0002:0003fd10       ??1?$map@HPAVSprite@@U?$less@H@std@@V?$allocator@U?$pair@$$CBHPAVSprite@@@std@@@3@@std@@QAE@XZ 00469d10 f i CommonPathfindingLib:SpriteManager.obj
 0002:0003fd60       ??1?$pair@V?$_Tree_iterator@V?$_Tree_val@U?$_Tree_simple_types@U?$pair@$$CBHPAVSprite@@@std@@@std@@@std@@@std@@_N@std@@QAE@XZ 00469d60 f i CommonPathfindingLib:SpriteManager.obj
 0002:0003fdb0       ??1SpriteManager@@QAE@XZ   00469db0 f   CommonPathfindingLib:SpriteManager.obj
 0002:0003ff60       ??4?$_Iterator012@Ubidirectional_iterator_tag@std@@U?$pair@$$CBHPAVSprite@@@2@HPBU32@ABU32@U_Iterator_base12@2@@std@@QAEAAU01@$$QAU01@@Z 00469f60 f i CommonPathfindingLib:SpriteManager.obj
 0002:0003ffc0       ??4?$_Iterator012@Ubidirectional_iterator_tag@std@@U?$pair@$$CBHPAVSprite@@@2@HPBU32@ABU32@U_Iterator_base12@2@@std@@QAEAAU01@ABU01@@Z 00469fc0 f i CommonPathfindingLib:SpriteManager.obj
 0002:00040020       ??4?$_Tree_const_iterator@V?$_Tree_val@U?$_Tree_simple_types@U?$pair@$$CBHPAVSprite@@@std@@@std@@@std@@@std@@QAEAAV01@$$QAV01@@Z 0046a020 f i CommonPathfindingLib:SpriteManager.obj
 0002:00040080       ??4?$_Tree_const_iterator@V?$_Tree_val@U?$_Tree_simple_types@U?$pair@$$CBHPAVSprite@@@std@@@std@@@std@@@std@@QAEAAV01@ABV01@@Z 0046a080 f i CommonPathfindingLib:SpriteManager.obj
 0002:000400e0       ??4?$_Tree_iterator@V?$_Tree_val@U?$_Tree_simple_types@U?$pair@$$CBHPAVSprite@@@std@@@std@@@std@@@std@@QAEAAV01@$$QAV01@@Z 0046a0e0 f i CommonPathfindingLib:SpriteManager.obj
 0002:00040140       ??4?$_Tree_unchecked_const_iterator@V?$_Tree_val@U?$_Tree_simple_types@U?$pair@$$CBHPAVSprite@@@std@@@std@@@std@@U_Iterator_base12@2@@std@@QAEAAV01@$$QAV01@@Z 0046a140 f i CommonPathfindingLib:SpriteManager.obj
 0002:000401b0       ??4?$_Tree_unchecked_const_iterator@V?$_Tree_val@U?$_Tree_simple_types@U?$pair@$$CBHPAVSprite@@@std@@@std@@@std@@U_Iterator_base12@2@@std@@QAEAAV01@ABV01@@Z 0046a1b0 f i CommonPathfindingLib:SpriteManager.obj
 0002:00040220       ??8?$_Tree_const_iterator@V?$_Tree_val@U?$_Tree_simple_types@U?$pair@$$CBHPAVSprite@@@std@@@std@@@std@@@std@@QBE_NABV01@@Z 0046a220 f i CommonPathfindingLib:SpriteManager.obj
 0002:00040370       ??9?$_Tree_const_iterator@V?$_Tree_val@U?$_Tree_simple_types@U?$pair@$$CBHPAVSprite@@@std@@@std@@@std@@@std@@QBE_NABV01@@Z 0046a370 f i CommonPathfindingLib:SpriteManager.obj
 0002:00040400       ??A?$map@HPAVSprite@@U?$less@H@std@@V?$allocator@U?$pair@$$CBHPAVSprite@@@std@@@3@@std@@QAEAAPAVSprite@@ABH@Z 0046a400 f i CommonPathfindingLib:SpriteManager.obj
 0002:000404f0       ??C?$_Tree_iterator@V?$_Tree_val@U?$_Tree_simple_types@U?$pair@$$CBHPAVSprite@@@std@@@std@@@std@@@std@@QBEPAU?$pair@$$CBHPAVSprite@@@1@XZ 0046a4f0 f i CommonPathfindingLib:SpriteManager.obj
 0002:00040550       ??D?$_Tree_const_iterator@V?$_Tree_val@U?$_Tree_simple_types@U?$pair@$$CBHPAVSprite@@@std@@@std@@@std@@@std@@QBEABU?$pair@$$CBHPAVSprite@@@1@XZ 0046a550 f i CommonPathfindingLib:SpriteManager.obj
 0002:00040690       ??D?$_Tree_iterator@V?$_Tree_val@U?$_Tree_simple_types@U?$pair@$$CBHPAVSprite@@@std@@@std@@@std@@@std@@QBEAAU?$pair@$$CBHPAVSprite@@@1@XZ 0046a690 f i CommonPathfindingLib:SpriteManager.obj
 0002:000406e0       ??E?$_Tree_const_iterator@V?$_Tree_val@U?$_Tree_simple_types@U?$pair@$$CBHPAVSprite@@@std@@@std@@@std@@@std@@QAE?AV01@H@Z 0046a6e0 f i CommonPathfindingLib:SpriteManager.obj
 0002:00040800       ??E?$_Tree_const_iterator@V?$_Tree_val@U?$_Tree_simple_types@U?$pair@$$CBHPAVSprite@@@std@@@std@@@std@@@std@@QAEAAV01@XZ 0046a800 f i CommonPathfindingLib:SpriteManager.obj
 0002:00040940       ??E?$_Tree_iterator@V?$_Tree_val@U?$_Tree_simple_types@U?$pair@$$CBHPAVSprite@@@std@@@std@@@std@@@std@@QAEAAV01@XZ 0046a940 f i CommonPathfindingLib:SpriteManager.obj
 0002:000409a0       ??E?$_Tree_unchecked_const_iterator@V?$_Tree_val@U?$_Tree_simple_types@U?$pair@$$CBHPAVSprite@@@std@@@std@@@std@@U_Iterator_base12@2@@std@@QAEAAV01@XZ 0046a9a0 f i CommonPathfindingLib:SpriteManager.obj
 0002:00040ad0       ??F?$_Tree_const_iterator@V?$_Tree_val@U?$_Tree_simple_types@U?$pair@$$CBHPAVSprite@@@std@@@std@@@std@@@std@@QAEAAV01@XZ 0046aad0 f i CommonPathfindingLib:SpriteManager.obj
 0002:00040cb0       ??F?$_Tree_iterator@V?$_Tree_val@U?$_Tree_simple_types@U?$pair@$$CBHPAVSprite@@@std@@@std@@@std@@@std@@QAEAAV01@XZ 0046acb0 f i CommonPathfindingLib:SpriteManager.obj
 0002:00040d10       ??F?$_Tree_unchecked_const_iterator@V?$_Tree_val@U?$_Tree_simple_types@U?$pair@$$CBHPAVSprite@@@std@@@std@@@std@@U_Iterator_base12@2@@std@@QAEAAV01@XZ 0046ad10 f i CommonPathfindingLib:SpriteManager.obj
 0002:00040e70       ??_GSprite@@QAEPAXI@Z      0046ae70 f i CommonPathfindingLib:SpriteManager.obj
 0002:00040f00       ?_Alloc_proxy@?$_Tree_comp_alloc@V?$_Tmap_traits@HPAVSprite@@U?$less@H@std@@V?$allocator@U?$pair@$$CBHPAVSprite@@@std@@@3@$0A@@std@@@std@@QAEXXZ 0046af00 f i CommonPathfindingLib:SpriteManager.obj
 0002:00041000       ?_Buyheadnode@?$_Tree_comp_alloc@V?$_Tmap_traits@HPAVSprite@@U?$less@H@std@@V?$allocator@U?$pair@$$CBHPAVSprite@@@std@@@3@$0A@@std@@@std@@QAEPAU?$_Tree_node@U?$pair@$$CBHPAVSprite@@@std@@PAX@2@XZ 0046b000 f i CommonPathfindingLib:SpriteManager.obj
 0002:00041210       ?_Buynode0@?$_Tree_comp_alloc@V?$_Tmap_traits@HPAVSprite@@U?$less@H@std@@V?$allocator@U?$pair@$$CBHPAVSprite@@@std@@@3@$0A@@std@@@std@@QAEPAU?$_Tree_node@U?$pair@$$CBHPAVSprite@@@std@@PAX@2@XZ 0046b210 f i CommonPathfindingLib:SpriteManager.obj
 0002:000413d0       ?_Color@?$_Tree_comp_alloc@V?$_Tmap_traits@HPAVSprite@@U?$less@H@std@@V?$allocator@U?$pair@$$CBHPAVSprite@@@std@@@3@$0A@@std@@@std@@SAAADPAU?$_Tree_node@U?$pair@$$CBHPAVSprite@@@std@@PAX@2@@Z 0046b3d0 f i CommonPathfindingLib:SpriteManager.obj
 0002:00041420       ?_Color@?$_Tree_val@U?$_Tree_simple_types@U?$pair@$$CBHPAVSprite@@@std@@@std@@@std@@SAAADPAU?$_Tree_node@U?$pair@$$CBHPAVSprite@@@std@@PAX@2@@Z 0046b420 f i CommonPathfindingLib:SpriteManager.obj
 0002:00041460       ?_Compare@?$_Tree@V?$_Tmap_traits@HPAVSprite@@U?$less@H@std@@V?$allocator@U?$pair@$$CBHPAVSprite@@@std@@@3@$0A@@std@@@std@@IBE_NABH0@Z 0046b460 f i CommonPathfindingLib:SpriteManager.obj
 0002:000414e0       ?_Construct@?$_Tree_comp_alloc@V?$_Tmap_traits@HPAVSprite@@U?$less@H@std@@V?$allocator@U?$pair@$$CBHPAVSprite@@@std@@@3@$0A@@std@@@std@@QAEXXZ 0046b4e0 f i CommonPathfindingLib:SpriteManager.obj
 0002:000415d0       ?_Destroy_if_not_nil@?$_Tree@V?$_Tmap_traits@HPAVSprite@@U?$less@H@std@@V?$allocator@U?$pair@$$CBHPAVSprite@@@std@@@3@$0A@@std@@@std@@IAEXPAU?$_Tree_node@U?$pair@$$CBHPAVSprite@@@std@@PAX@2@@Z 0046b5d0 f i CommonPathfindingLib:SpriteManager.obj
 0002:00041660       ?_Erase@?$_Tree@V?$_Tmap_traits@HPAVSprite@@U?$less@H@std@@V?$allocator@U?$pair@$$CBHPAVSprite@@@std@@@3@$0A@@std@@@std@@IAEXPAU?$_Tree_node@U?$pair@$$CBHPAVSprite@@@std@@PAX@2@@Z 0046b660 f i CommonPathfindingLib:SpriteManager.obj
 0002:00041750       ?_Free_proxy@?$_Tree_comp_alloc@V?$_Tmap_traits@HPAVSprite@@U?$less@H@std@@V?$allocator@U?$pair@$$CBHPAVSprite@@@std@@@3@$0A@@std@@@std@@QAEXXZ 0046b750 f i CommonPathfindingLib:SpriteManager.obj
 0002:00041840       ?_Freeheadnode@?$_Tree_comp_alloc@V?$_Tmap_traits@HPAVSprite@@U?$less@H@std@@V?$allocator@U?$pair@$$CBHPAVSprite@@@std@@@3@$0A@@std@@@std@@QAEXPAU?$_Tree_node@U?$pair@$$CBHPAVSprite@@@std@@PAX@2@@Z 0046b840 f i CommonPathfindingLib:SpriteManager.obj
 0002:00041930       ?_Freenode0@?$_Tree_comp_alloc@V?$_Tmap_traits@HPAVSprite@@U?$less@H@std@@V?$allocator@U?$pair@$$CBHPAVSprite@@@std@@@3@$0A@@std@@@std@@QAEXPAU?$_Tree_node@U?$pair@$$CBHPAVSprite@@@std@@PAX@2@@Z 0046b930 f i CommonPathfindingLib:SpriteManager.obj
 0002:00041a20       ?_Get_data@?$_Tree_comp_alloc@V?$_Tmap_traits@HPAVSprite@@U?$less@H@std@@V?$allocator@U?$pair@$$CBHPAVSprite@@@std@@@3@$0A@@std@@@std@@QAEAAV?$_Tree_val@U?$_Tree_simple_types@U?$pair@$$CBHPAVSprite@@@std@@@std@@@2@XZ 0046ba20 f i CommonPathfindingLib:SpriteManager.obj
 0002:00041a80       ?_Get_data@?$_Tree_comp_alloc@V?$_Tmap_traits@HPAVSprite@@U?$less@H@std@@V?$allocator@U?$pair@$$CBHPAVSprite@@@std@@@3@$0A@@std@@@std@@QBEABV?$_Tree_val@U?$_Tree_simple_types@U?$pair@$$CBHPAVSprite@@@std@@@std@@@2@XZ 0046ba80 f i CommonPathfindingLib:SpriteManager.obj
 0002:00041ae0       ?_Get_first@?$_Compressed_pair@U?$_Wrap_alloc@V?$allocator@U?$_Tree_node@U?$pair@$$CBHPAVSprite@@@std@@PAX@std@@@std@@@std@@V?$_Tree_val@U?$_Tree_simple_types@U?$pair@$$CBHPAVSprite@@@std@@@std@@@2@$00@std@@QAEAAU?$_Wrap_alloc@V?$allocator@U?$_Tree_node@U?$pair@$$CBHPAVSprite@@@std@@PAX@std@@@std@@@2@XZ 0046bae0 f i CommonPathfindingLib:SpriteManager.obj
 0002:00041b20       ?_Get_first@?$_Compressed_pair@U?$_Wrap_alloc@V?$allocator@U?$_Tree_node@U?$pair@$$CBHPAVSprite@@@std@@PAX@std@@@std@@@std@@V?$_Tree_val@U?$_Tree_simple_types@U?$pair@$$CBHPAVSprite@@@std@@@std@@@2@$00@std@@QBEABU?$_Wrap_alloc@V?$allocator@U?$_Tree_node@U?$pair@$$CBHPAVSprite@@@std@@PAX@std@@@std@@@2@XZ 0046bb20 f i CommonPathfindingLib:SpriteManager.obj
 0002:00041b60       ?_Get_first@?$_Compressed_pair@U?$less@H@std@@V?$_Compressed_pair@U?$_Wrap_alloc@V?$allocator@U?$_Tree_node@U?$pair@$$CBHPAVSprite@@@std@@PAX@std@@@std@@@std@@V?$_Tree_val@U?$_Tree_simple_types@U?$pair@$$CBHPAVSprite@@@std@@@std@@@2@$00@2@$00@std@@QAEAAU?$less@H@2@XZ 0046bb60 f i CommonPathfindingLib:SpriteManager.obj
 0002:00041ba0       ?_Get_first@?$_Compressed_pair@U?$less@H@std@@V?$_Compressed_pair@U?$_Wrap_alloc@V?$allocator@U?$_Tree_node@U?$pair@$$CBHPAVSprite@@@std@@PAX@std@@@std@@@std@@V?$_Tree_val@U?$_Tree_simple_types@U?$pair@$$CBHPAVSprite@@@std@@@std@@@2@$00@2@$00@std@@QBEABU?$less@H@2@XZ 0046bba0 f i CommonPathfindingLib:SpriteManager.obj
 0002:00041be0       ?_Get_second@?$_Compressed_pair@U?$_Wrap_alloc@V?$allocator@U?$_Tree_node@U?$pair@$$CBHPAVSprite@@@std@@PAX@std@@@std@@@std@@V?$_Tree_val@U?$_Tree_simple_types@U?$pair@$$CBHPAVSprite@@@std@@@std@@@2@$00@std@@QAEAAV?$_Tree_val@U?$_Tree_simple_types@U?$pair@$$CBHPAVSprite@@@std@@@std@@@2@XZ 0046bbe0 f i CommonPathfindingLib:SpriteManager.obj
 0002:00041c20       ?_Get_second@?$_Compressed_pair@U?$_Wrap_alloc@V?$allocator@U?$_Tree_node@U?$pair@$$CBHPAVSprite@@@std@@PAX@std@@@std@@@std@@V?$_Tree_val@U?$_Tree_simple_types@U?$pair@$$CBHPAVSprite@@@std@@@std@@@2@$00@std@@QBEABV?$_Tree_val@U?$_Tree_simple_types@U?$pair@$$CBHPAVSprite@@@std@@@std@@@2@XZ 0046bc20 f i CommonPathfindingLib:SpriteManager.obj
 0002:00041c60       ?_Get_second@?$_Compressed_pair@U?$less@H@std@@V?$_Compressed_pair@U?$_Wrap_alloc@V?$allocator@U?$_Tree_node@U?$pair@$$CBHPAVSprite@@@std@@PAX@std@@@std@@@std@@V?$_Tree_val@U?$_Tree_simple_types@U?$pair@$$CBHPAVSprite@@@std@@@std@@@2@$00@2@$00@std@@QAEAAV?$_Compressed_pair@U?$_Wrap_alloc@V?$allocator@U?$_Tree_node@U?$pair@$$CBHPAVSprite@@@std@@PAX@std@@@std@@@std@@V?$_Tree_val@U?$_Tree_simple_types@U?$pair@$$CBHPAVSprite@@@std@@@std@@@2@$00@2@XZ 0046bc60 f i CommonPathfindingLib:SpriteManager.obj
 0002:00041ca0       ?_Get_second@?$_Compressed_pair@U?$less@H@std@@V?$_Compressed_pair@U?$_Wrap_alloc@V?$allocator@U?$_Tree_node@U?$pair@$$CBHPAVSprite@@@std@@PAX@std@@@std@@@std@@V?$_Tree_val@U?$_Tree_simple_types@U?$pair@$$CBHPAVSprite@@@std@@@std@@@2@$00@2@$00@std@@QBEABV?$_Compressed_pair@U?$_Wrap_alloc@V?$allocator@U?$_Tree_node@U?$pair@$$CBHPAVSprite@@@std@@PAX@std@@@std@@@std@@V?$_Tree_val@U?$_Tree_simple_types@U?$pair@$$CBHPAVSprite@@@std@@@std@@@2@$00@2@XZ 0046bca0 f i CommonPathfindingLib:SpriteManager.obj
 0002:00041ce0       ?_Getal@?$_Tree_comp_alloc@V?$_Tmap_traits@HPAVSprite@@U?$less@H@std@@V?$allocator@U?$pair@$$CBHPAVSprite@@@std@@@3@$0A@@std@@@std@@QAEAAU?$_Wrap_alloc@V?$allocator@U?$_Tree_node@U?$pair@$$CBHPAVSprite@@@std@@PAX@std@@@std@@@2@XZ 0046bce0 f i CommonPathfindingLib:SpriteManager.obj
 0002:00041d40       ?_Getal@?$_Tree_comp_alloc@V?$_Tmap_traits@HPAVSprite@@U?$less@H@std@@V?$allocator@U?$pair@$$CBHPAVSprite@@@std@@@3@$0A@@std@@@std@@QBEABU?$_Wrap_alloc@V?$allocator@U?$_Tree_node@U?$pair@$$CBHPAVSprite@@@std@@PAX@std@@@std@@@2@XZ 0046bd40 f i CommonPathfindingLib:SpriteManager.obj
 0002:00041da0       ?_Getcomp@?$_Tree_comp_alloc@V?$_Tmap_traits@HPAVSprite@@U?$less@H@std@@V?$allocator@U?$pair@$$CBHPAVSprite@@@std@@@3@$0A@@std@@@std@@QAEAAU?$less@H@2@XZ 0046bda0 f i CommonPathfindingLib:SpriteManager.obj
 0002:00041df0       ?_Getcomp@?$_Tree_comp_alloc@V?$_Tmap_traits@HPAVSprite@@U?$less@H@std@@V?$allocator@U?$pair@$$CBHPAVSprite@@@std@@@3@$0A@@std@@@std@@QBEABU?$less@H@2@XZ 0046bdf0 f i CommonPathfindingLib:SpriteManager.obj
 0002:00041e40       ?_Getpfirst@?$_Tree_comp_alloc@V?$_Tmap_traits@HPAVSprite@@U?$less@H@std@@V?$allocator@U?$pair@$$CBHPAVSprite@@@std@@@3@$0A@@std@@@std@@QBEPAPAU_Iterator_base12@2@XZ 0046be40 f i CommonPathfindingLib:SpriteManager.obj
 0002:00041ea0       ?_Isnil@?$_Tree_comp_alloc@V?$_Tmap_traits@HPAVSprite@@U?$less@H@std@@V?$allocator@U?$pair@$$CBHPAVSprite@@@std@@@3@$0A@@std@@@std@@SAAADPAU?$_Tree_node@U?$pair@$$CBHPAVSprite@@@std@@PAX@2@@Z 0046bea0 f i CommonPathfindingLib:SpriteManager.obj
 0002:00041ef0       ?_Isnil@?$_Tree_val@U?$_Tree_simple_types@U?$pair@$$CBHPAVSprite@@@std@@@std@@@std@@SAAADPAU?$_Tree_node@U?$pair@$$CBHPAVSprite@@@std@@PAX@2@@Z 0046bef0 f i CommonPathfindingLib:SpriteManager.obj
 0002:00041f30       ?_Key@?$_Tree@V?$_Tmap_traits@HPAVSprite@@U?$less@H@std@@V?$allocator@U?$pair@$$CBHPAVSprite@@@std@@@3@$0A@@std@@@std@@IBEABHPAU?$_Tree_node@U?$pair@$$CBHPAVSprite@@@std@@PAX@2@@Z 0046bf30 f i CommonPathfindingLib:SpriteManager.obj
 0002:00041fa0       ?_Kfn@?$_Tree@V?$_Tmap_traits@HPAVSprite@@U?$less@H@std@@V?$allocator@U?$pair@$$CBHPAVSprite@@@std@@@3@$0A@@std@@@std@@IBEABHABU?$pair@$$CBHPAVSprite@@@2@@Z 0046bfa0 f i CommonPathfindingLib:SpriteManager.obj
 0002:00042000       ?_Left@?$_Tree_comp_alloc@V?$_Tmap_traits@HPAVSprite@@U?$less@H@std@@V?$allocator@U?$pair@$$CBHPAVSprite@@@std@@@3@$0A@@std@@@std@@SAAAPAU?$_Tree_node@U?$pair@$$CBHPAVSprite@@@std@@PAX@2@PAU32@@Z 0046c000 f i CommonPathfindingLib:SpriteManager.obj
 0002:00042050       ?_Left@?$_Tree_val@U?$_Tree_simple_types@U?$pair@$$CBHPAVSprite@@@std@@@std@@@std@@SAAAPAU?$_Tree_node@U?$pair@$$CBHPAVSprite@@@std@@PAX@2@PAU32@@Z 0046c050 f i CommonPathfindingLib:SpriteManager.obj
 0002:00042090       ?_Lmost@?$_Tree@V?$_Tmap_traits@HPAVSprite@@U?$less@H@std@@V?$allocator@U?$pair@$$CBHPAVSprite@@@std@@@3@$0A@@std@@@std@@IBEAAPAU?$_Tree_node@U?$pair@$$CBHPAVSprite@@@std@@PAX@2@XZ 0046c090 f i CommonPathfindingLib:SpriteManager.obj
 0002:000420f0       ?_Lrotate@?$_Tree@V?$_Tmap_traits@HPAVSprite@@U?$less@H@std@@V?$allocator@U?$pair@$$CBHPAVSprite@@@std@@@3@$0A@@std@@@std@@IAEXPAU?$_Tree_node@U?$pair@$$CBHPAVSprite@@@std@@PAX@2@@Z 0046c0f0 f i CommonPathfindingLib:SpriteManager.obj
 0002:000422a0       ?_Max@?$_Tree_comp_alloc@V?$_Tmap_traits@HPAVSprite@@U?$less@H@std@@V?$allocator@U?$pair@$$CBHPAVSprite@@@std@@@3@$0A@@std@@@std@@SAPAU?$_Tree_node@U?$pair@$$CBHPAVSprite@@@std@@PAX@2@PAU32@@Z 0046c2a0 f i CommonPathfindingLib:SpriteManager.obj
 0002:000422f0       ?_Max@?$_Tree_val@U?$_Tree_simple_types@U?$pair@$$CBHPAVSprite@@@std@@@std@@@std@@SAPAU?$_Tree_node@U?$pair@$$CBHPAVSprite@@@std@@PAX@2@PAU32@@Z 0046c2f0 f i CommonPathfindingLib:SpriteManager.obj
 0002:00042370       ?_Min@?$_Tree_comp_alloc@V?$_Tmap_traits@HPAVSprite@@U?$less@H@std@@V?$allocator@U?$pair@$$CBHPAVSprite@@@std@@@3@$0A@@std@@@std@@SAPAU?$_Tree_node@U?$pair@$$CBHPAVSprite@@@std@@PAX@2@PAU32@@Z 0046c370 f i CommonPathfindingLib:SpriteManager.obj
 0002:000423c0       ?_Min@?$_Tree_val@U?$_Tree_simple_types@U?$pair@$$CBHPAVSprite@@@std@@@std@@@std@@SAPAU?$_Tree_node@U?$pair@$$CBHPAVSprite@@@std@@PAX@2@PAU32@@Z 0046c3c0 f i CommonPathfindingLib:SpriteManager.obj
 0002:00042440       ?_Myhead@?$_Tree_comp_alloc@V?$_Tmap_traits@HPAVSprite@@U?$less@H@std@@V?$allocator@U?$pair@$$CBHPAVSprite@@@std@@@3@$0A@@std@@@std@@QAEAAPAU?$_Tree_node@U?$pair@$$CBHPAVSprite@@@std@@PAX@2@XZ 0046c440 f i CommonPathfindingLib:SpriteManager.obj
 0002:000424a0       ?_Myhead@?$_Tree_comp_alloc@V?$_Tmap_traits@HPAVSprite@@U?$less@H@std@@V?$allocator@U?$pair@$$CBHPAVSprite@@@std@@@3@$0A@@std@@@std@@QBEABQAU?$_Tree_node@U?$pair@$$CBHPAVSprite@@@std@@PAX@2@XZ 0046c4a0 f i CommonPathfindingLib:SpriteManager.obj
 0002:00042500       ?_Mynode@?$_Tree_unchecked_const_iterator@V?$_Tree_val@U?$_Tree_simple_types@U?$pair@$$CBHPAVSprite@@@std@@@std@@@std@@U_Iterator_base12@2@@std@@QBEPAU?$_Tree_node@U?$pair@$$CBHPAVSprite@@@std@@PAX@2@XZ 0046c500 f i CommonPathfindingLib:SpriteManager.obj
 0002:00042540       ?_Myproxy@?$_Tree_comp_alloc@V?$_Tmap_traits@HPAVSprite@@U?$less@H@std@@V?$allocator@U?$pair@$$CBHPAVSprite@@@std@@@3@$0A@@std@@@std@@QAEAAPAU_Container_proxy@2@XZ 0046c540 f i CommonPathfindingLib:SpriteManager.obj
 0002:00042590       ?_Mysize@?$_Tree_comp_alloc@V?$_Tmap_traits@HPAVSprite@@U?$less@H@std@@V?$allocator@U?$pair@$$CBHPAVSprite@@@std@@@3@$0A@@std@@@std@@QAEAAIXZ 0046c590 f i CommonPathfindingLib:SpriteManager.obj
 0002:000425f0       ?_Mysize@?$_Tree_comp_alloc@V?$_Tmap_traits@HPAVSprite@@U?$less@H@std@@V?$allocator@U?$pair@$$CBHPAVSprite@@@std@@@3@$0A@@std@@@std@@QBEABIXZ 0046c5f0 f i CommonPathfindingLib:SpriteManager.obj
 0002:00042650       ?_Myval@?$_Tree_comp_alloc@V?$_Tmap_traits@HPAVSprite@@U?$less@H@std@@V?$allocator@U?$pair@$$CBHPAVSprite@@@std@@@3@$0A@@std@@@std@@SAAAU?$pair@$$CBHPAVSprite@@@2@PAU?$_Tree_node@U?$pair@$$CBHPAVSprite@@@std@@PAX@2@@Z 0046c650 f i CommonPathfindingLib:SpriteManager.obj
 0002:000426a0       ?_Myval@?$_Tree_val@U?$_Tree_simple_types@U?$pair@$$CBHPAVSprite@@@std@@@std@@@std@@SAAAU?$pair@$$CBHPAVSprite@@@2@PAU?$_Tree_node@U?$pair@$$CBHPAVSprite@@@std@@PAX@2@@Z 0046c6a0 f i CommonPathfindingLib:SpriteManager.obj
 0002:000426e0       ?_Orphan_all@?$_Tree_comp_alloc@V?$_Tmap_traits@HPAVSprite@@U?$less@H@std@@V?$allocator@U?$pair@$$CBHPAVSprite@@@std@@@3@$0A@@std@@@std@@QAEXXZ 0046c6e0 f i CommonPathfindingLib:SpriteManager.obj
 0002:00042740       ?_Orphan_ptr@?$_Tree@V?$_Tmap_traits@HPAVSprite@@U?$less@H@std@@V?$allocator@U?$pair@$$CBHPAVSprite@@@std@@@3@$0A@@std@@@std@@IAEXPAU?$_Tree_node@U?$pair@$$CBHPAVSprite@@@std@@PAX@2@@Z 0046c740 f i CommonPathfindingLib:SpriteManager.obj
 0002:000428c0       ?_Parent@?$_Tree_comp_alloc@V?$_Tmap_traits@HPAVSprite@@U?$less@H@std@@V?$allocator@U?$pair@$$CBHPAVSprite@@@std@@@3@$0A@@std@@@std@@SAAAPAU?$_Tree_node@U?$pair@$$CBHPAVSprite@@@std@@PAX@2@PAU32@@Z 0046c8c0 f i CommonPathfindingLib:SpriteManager.obj
 0002:00042910       ?_Parent@?$_Tree_val@U?$_Tree_simple_types@U?$pair@$$CBHPAVSprite@@@std@@@std@@@std@@SAAAPAU?$_Tree_node@U?$pair@$$CBHPAVSprite@@@std@@PAX@2@PAU32@@Z 0046c910 f i CommonPathfindingLib:SpriteManager.obj
 0002:00042950       ?_Right@?$_Tree_comp_alloc@V?$_Tmap_traits@HPAVSprite@@U?$less@H@std@@V?$allocator@U?$pair@$$CBHPAVSprite@@@std@@@3@$0A@@std@@@std@@SAAAPAU?$_Tree_node@U?$pair@$$CBHPAVSprite@@@std@@PAX@2@PAU32@@Z 0046c950 f i CommonPathfindingLib:SpriteManager.obj
 0002:000429a0       ?_Right@?$_Tree_val@U?$_Tree_simple_types@U?$pair@$$CBHPAVSprite@@@std@@@std@@@std@@SAAAPAU?$_Tree_node@U?$pair@$$CBHPAVSprite@@@std@@PAX@2@PAU32@@Z 0046c9a0 f i CommonPathfindingLib:SpriteManager.obj
 0002:000429e0       ?_Rmost@?$_Tree@V?$_Tmap_traits@HPAVSprite@@U?$less@H@std@@V?$allocator@U?$pair@$$CBHPAVSprite@@@std@@@3@$0A@@std@@@std@@IBEAAPAU?$_Tree_node@U?$pair@$$CBHPAVSprite@@@std@@PAX@2@XZ 0046c9e0 f i CommonPathfindingLib:SpriteManager.obj
 0002:00042a40       ?_Root@?$_Tree@V?$_Tmap_traits@HPAVSprite@@U?$less@H@std@@V?$allocator@U?$pair@$$CBHPAVSprite@@@std@@@3@$0A@@std@@@std@@IBEAAPAU?$_Tree_node@U?$pair@$$CBHPAVSprite@@@std@@PAX@2@XZ 0046ca40 f i CommonPathfindingLib:SpriteManager.obj
 0002:00042aa0       ?_Rrotate@?$_Tree@V?$_Tmap_traits@HPAVSprite@@U?$less@H@std@@V?$allocator@U?$pair@$$CBHPAVSprite@@@std@@@3@$0A@@std@@@std@@IAEXPAU?$_Tree_node@U?$pair@$$CBHPAVSprite@@@std@@PAX@2@@Z 0046caa0 f i CommonPathfindingLib:SpriteManager.obj
 0002:00042c50       ?_Tidy@?$_Tree@V?$_Tmap_traits@HPAVSprite@@U?$less@H@std@@V?$allocator@U?$pair@$$CBHPAVSprite@@@std@@@3@$0A@@std@@@std@@IAEXXZ 0046cc50 f i CommonPathfindingLib:SpriteManager.obj
 0002:00042de0       ?allocate@?$_Wrap_alloc@V?$allocator@U?$_Tree_node@U?$pair@$$CBHPAVSprite@@@std@@PAX@std@@@std@@@std@@QAEPAU?$_Tree_node@U?$pair@$$CBHPAVSprite@@@std@@PAX@2@I@Z 0046cde0 f i CommonPathfindingLib:SpriteManager.obj
 0002:00042e40       ?allocate@?$allocator@U?$_Tree_node@U?$pair@$$CBHPAVSprite@@@std@@PAX@std@@@std@@QAEPAU?$_Tree_node@U?$pair@$$CBHPAVSprite@@@std@@PAX@2@I@Z 0046ce40 f i CommonPathfindingLib:SpriteManager.obj
 0002:00042ea0       ?begin@?$_Tree@V?$_Tmap_traits@HPAVSprite@@U?$less@H@std@@V?$allocator@U?$pair@$$CBHPAVSprite@@@std@@@3@$0A@@std@@@std@@QAE?AV?$_Tree_iterator@V?$_Tree_val@U?$_Tree_simple_types@U?$pair@$$CBHPAVSprite@@@std@@@std@@@std@@@2@XZ 0046cea0 f i CommonPathfindingLib:SpriteManager.obj
 0002:00042f50       ?clear@?$_Tree@V?$_Tmap_traits@HPAVSprite@@U?$less@H@std@@V?$allocator@U?$pair@$$CBHPAVSprite@@@std@@@3@$0A@@std@@@std@@QAEXXZ 0046cf50 f i CommonPathfindingLib:SpriteManager.obj
 0002:00043060       ?createAndManageSprite@SpriteManager@@QAEPAVSprite@@ABHPAVGraphicsBuffer@@MMMM@Z 0046d060 f   CommonPathfindingLib:SpriteManager.obj
 0002:00043320       ?deallocate@?$_Wrap_alloc@V?$allocator@U?$_Tree_node@U?$pair@$$CBHPAVSprite@@@std@@PAX@std@@@std@@@std@@QAEXPAU?$_Tree_node@U?$pair@$$CBHPAVSprite@@@std@@PAX@2@I@Z 0046d320 f i CommonPathfindingLib:SpriteManager.obj
 0002:00043380       ?deallocate@?$allocator@U?$_Tree_node@U?$pair@$$CBHPAVSprite@@@std@@PAX@std@@@std@@QAEXPAU?$_Tree_node@U?$pair@$$CBHPAVSprite@@@std@@PAX@2@I@Z 0046d380 f i CommonPathfindingLib:SpriteManager.obj
 0002:000433e0       ?destroySprite@SpriteManager@@QAEXABH@Z 0046d3e0 f   CommonPathfindingLib:SpriteManager.obj
 0002:000435d0       ?end@?$_Tree@V?$_Tmap_traits@HPAVSprite@@U?$less@H@std@@V?$allocator@U?$pair@$$CBHPAVSprite@@@std@@@3@$0A@@std@@@std@@QAE?AV?$_Tree_iterator@V?$_Tree_val@U?$_Tree_simple_types@U?$pair@$$CBHPAVSprite@@@std@@@std@@@std@@@2@XZ 0046d5d0 f i CommonPathfindingLib:SpriteManager.obj
 0002:00043680       ?erase@?$_Tree@V?$_Tmap_traits@HPAVSprite@@U?$less@H@std@@V?$allocator@U?$pair@$$CBHPAVSprite@@@std@@@3@$0A@@std@@@std@@QAE?AV?$_Tree_iterator@V?$_Tree_val@U?$_Tree_simple_types@U?$pair@$$CBHPAVSprite@@@std@@@std@@@std@@@2@V?$_Tree_const_iterator@V?$_Tree_val@U?$_Tree_simple_types@U?$pair@$$CBHPAVSprite@@@std@@@std@@@std@@@2@0@Z 0046d680 f i CommonPathfindingLib:SpriteManager.obj
 0002:000439a0       ?erase@?$_Tree@V?$_Tmap_traits@HPAVSprite@@U?$less@H@std@@V?$allocator@U?$pair@$$CBHPAVSprite@@@std@@@3@$0A@@std@@@std@@QAE?AV?$_Tree_iterator@V?$_Tree_val@U?$_Tree_simple_types@U?$pair@$$CBHPAVSprite@@@std@@@std@@@std@@@2@V?$_Tree_const_iterator@V?$_Tree_val@U?$_Tree_simple_types@U?$pair@$$CBHPAVSprite@@@std@@@std@@@std@@@2@@Z 0046d9a0 f i CommonPathfindingLib:SpriteManager.obj
 0002:00044430       ?find@?$_Tree@V?$_Tmap_traits@HPAVSprite@@U?$less@H@std@@V?$allocator@U?$pair@$$CBHPAVSprite@@@std@@@3@$0A@@std@@@std@@QAE?AV?$_Tree_iterator@V?$_Tree_val@U?$_Tree_simple_types@U?$pair@$$CBHPAVSprite@@@std@@@std@@@std@@@2@ABH@Z 0046e430 f i CommonPathfindingLib:SpriteManager.obj
 0002:00044730       ?getSprite@SpriteManager@@QAEPAVSprite@@ABH@Z 0046e730 f   CommonPathfindingLib:SpriteManager.obj
 0002:000448e0       ?lower_bound@?$_Tree@V?$_Tmap_traits@HPAVSprite@@U?$less@H@std@@V?$allocator@U?$pair@$$CBHPAVSprite@@@std@@@3@$0A@@std@@@std@@QAE?AV?$_Tree_iterator@V?$_Tree_val@U?$_Tree_simple_types@U?$pair@$$CBHPAVSprite@@@std@@@std@@@std@@@2@ABH@Z 0046e8e0 f i CommonPathfindingLib:SpriteManager.obj
 0002:00044970       ?max_size@?$_Tree@V?$_Tmap_traits@HPAVSprite@@U?$less@H@std@@V?$allocator@U?$pair@$$CBHPAVSprite@@@std@@@3@$0A@@std@@@std@@QBEIXZ 0046e970 f i CommonPathfindingLib:SpriteManager.obj
 0002:000449e0       ?max_size@?$_Wrap_alloc@V?$allocator@U?$_Tree_node@U?$pair@$$CBHPAVSprite@@@std@@PAX@std@@@std@@@std@@QBEIU_Nil@2@@Z 0046e9e0 f i CommonPathfindingLib:SpriteManager.obj
 0002:00044a40       ?max_size@?$allocator@U?$_Tree_node@U?$pair@$$CBHPAVSprite@@@std@@PAX@std@@@std@@QBEIXZ 0046ea40 f i CommonPathfindingLib:SpriteManager.obj
 0002:00044a80       ?max_size@?$allocator_traits@V?$allocator@U?$_Tree_node@U?$pair@$$CBHPAVSprite@@@std@@PAX@std@@@std@@@std@@SAIABV?$allocator@U?$_Tree_node@U?$pair@$$CBHPAVSprite@@@std@@PAX@std@@@2@@Z 0046ea80 f i CommonPathfindingLib:SpriteManager.obj
 0002:00044ad0       ?pointer_to@?$pointer_traits@PAU?$pair@$$CBHPAVSprite@@@std@@@std@@SAPAU?$pair@$$CBHPAVSprite@@@2@AAU32@@Z 0046ead0 f i CommonPathfindingLib:SpriteManager.obj
 0002:00044b20       ?size@?$_Tree@V?$_Tmap_traits@HPAVSprite@@U?$less@H@std@@V?$allocator@U?$pair@$$CBHPAVSprite@@@std@@@3@$0A@@std@@@std@@QBEIXZ 0046eb20 f i CommonPathfindingLib:SpriteManager.obj
 0002:00044b80       ??0GraphicsSystem@@QAE@XZ  0046eb80 f   CommonPathfindingLib:GraphicsSystem.obj
 0002:00044bf0       ??1GraphicsSystem@@QAE@XZ  0046ebf0 f   CommonPathfindingLib:GraphicsSystem.obj
 0002:00044c80       ??RAllegroColorCompare@@QBE_NABUALLEGRO_COLOR@@0@Z 0046ec80 f   CommonPathfindingLib:GraphicsSystem.obj
 0002:00044da0       ?cleanup@GraphicsSystem@@QAEXXZ 0046eda0 f   CommonPathfindingLib:GraphicsSystem.obj
 0002:00044e80       ?init@GraphicsSystem@@QAE_NHH@Z 0046ee80 f   CommonPathfindingLib:GraphicsSystem.obj
 0002:00045030       ?invalidate@GraphicsBuffer@@QAEXXZ 0046f030 f i CommonPathfindingLib:GraphicsSystem.obj
 0002:00045070       ?setX@Vector2D@@QAEXM@Z    0046f070 f i CommonPathfindingLib:GraphicsSystem.obj
 0002:000450c0       ?setY@Vector2D@@QAEXM@Z    0046f0c0 f i CommonPathfindingLib:GraphicsSystem.obj
 0002:00045110       ?swap@GraphicsSystem@@QAEXXZ 0046f110 f   CommonPathfindingLib:GraphicsSystem.obj
 0002:00045170       ?switchTargetBitmap@GraphicsSystem@@SAPAUALLEGRO_BITMAP@@PAU2@@Z 0046f170 f   CommonPathfindingLib:GraphicsSystem.obj
 0002:000451f0       ?wrapCoordinates@GraphicsSystem@@QAEXAAVVector2D@@@Z 0046f1f0 f   CommonPathfindingLib:GraphicsSystem.obj
 0002:00045390       ??0Sprite@@QAE@PAVGraphicsBuffer@@MMMM@Z 0046f390 f   CommonPathfindingLib:Sprite.obj
 0002:00045460       ??1Sprite@@QAE@XZ          0046f460 f   CommonPathfindingLib:Sprite.obj
 0002:000454a0       ?draw@Sprite@@QAEXAAVGraphicsBuffer@@MMMH@Z 0046f4a0 f   CommonPathfindingLib:Sprite.obj
 0002:00045670       ??0GraphicsBuffer@@QAE@ABV0@@Z 0046f670 f   CommonPathfindingLib:GraphicsBuffer.obj
 0002:000456e0       ??0GraphicsBuffer@@QAE@ABV?$basic_string@DU?$char_traits@D@std@@V?$allocator@D@2@@std@@@Z 0046f6e0 f   CommonPathfindingLib:GraphicsBuffer.obj
 0002:00045760       ??0GraphicsBuffer@@QAE@HHABUALLEGRO_COLOR@@@Z 0046f760 f   CommonPathfindingLib:GraphicsBuffer.obj
 0002:000457e0       ??0GraphicsBuffer@@QAE@PAUALLEGRO_BITMAP@@@Z 0046f7e0 f   CommonPathfindingLib:GraphicsBuffer.obj
 0002:00045830       ??0GraphicsBuffer@@QAE@XZ  0046f830 f   CommonPathfindingLib:GraphicsBuffer.obj
 0002:00045880       ??1GraphicsBuffer@@QAE@XZ  0046f880 f   CommonPathfindingLib:GraphicsBuffer.obj
 0002:000458f0       ??4GraphicsBuffer@@QAEAAV0@ABV0@@Z 0046f8f0 f   CommonPathfindingLib:GraphicsBuffer.obj
 0002:00045990       ?clear@GraphicsBuffer@@QAEXABUALLEGRO_COLOR@@@Z 0046f990 f   CommonPathfindingLib:GraphicsBuffer.obj
 0002:00045a40       ?fillRegion@GraphicsBuffer@@QAEXABVVector2D@@0ABUALLEGRO_COLOR@@@Z 0046fa40 f   CommonPathfindingLib:GraphicsBuffer.obj
 0002:00045b24       _al_get_bitmap_width       0046fb24 f   allegro-5.0.10-monolith-md-debug:allegro-5.0.10-monolith-md-debug.dll
 0002:00045b2a       _al_get_bitmap_height      0046fb2a f   allegro-5.0.10-monolith-md-debug:allegro-5.0.10-monolith-md-debug.dll
 0002:00045b30       _al_map_rgb                0046fb30 f   allegro-5.0.10-monolith-md-debug:allegro-5.0.10-monolith-md-debug.dll
 0002:00045b36       _al_draw_text              0046fb36 f   allegro-5.0.10-monolith-md-debug:allegro-5.0.10-monolith-md-debug.dll
 0002:00045b3c       _al_get_font_line_height   0046fb3c f   allegro-5.0.10-monolith-md-debug:allegro-5.0.10-monolith-md-debug.dll
 0002:00045b42       _al_create_event_queue     0046fb42 f   allegro-5.0.10-monolith-md-debug:allegro-5.0.10-monolith-md-debug.dll
 0002:00045b48       _al_destroy_event_queue    0046fb48 f   allegro-5.0.10-monolith-md-debug:allegro-5.0.10-monolith-md-debug.dll
 0002:00045b4e       _al_register_event_source  0046fb4e f   allegro-5.0.10-monolith-md-debug:allegro-5.0.10-monolith-md-debug.dll
 0002:00045b54       _al_unregister_event_source 0046fb54 f   allegro-5.0.10-monolith-md-debug:allegro-5.0.10-monolith-md-debug.dll
 0002:00045b5a       _al_is_event_queue_empty   0046fb5a f   allegro-5.0.10-monolith-md-debug:allegro-5.0.10-monolith-md-debug.dll
 0002:00045b60       _al_wait_for_event         0046fb60 f   allegro-5.0.10-monolith-md-debug:allegro-5.0.10-monolith-md-debug.dll
 0002:00045b66       _al_install_keyboard       0046fb66 f   allegro-5.0.10-monolith-md-debug:allegro-5.0.10-monolith-md-debug.dll
 0002:00045b6c       _al_uninstall_keyboard     0046fb6c f   allegro-5.0.10-monolith-md-debug:allegro-5.0.10-monolith-md-debug.dll
 0002:00045b72       _al_get_keyboard_state     0046fb72 f   allegro-5.0.10-monolith-md-debug:allegro-5.0.10-monolith-md-debug.dll
 0002:00045b78       _al_get_keyboard_event_source 0046fb78 f   allegro-5.0.10-monolith-md-debug:allegro-5.0.10-monolith-md-debug.dll
 0002:00045b7e       _al_install_mouse          0046fb7e f   allegro-5.0.10-monolith-md-debug:allegro-5.0.10-monolith-md-debug.dll
 0002:00045b84       _al_uninstall_mouse        0046fb84 f   allegro-5.0.10-monolith-md-debug:allegro-5.0.10-monolith-md-debug.dll
 0002:00045b8a       _al_get_mouse_state        0046fb8a f   allegro-5.0.10-monolith-md-debug:allegro-5.0.10-monolith-md-debug.dll
 0002:00045b90       _al_mouse_button_down      0046fb90 f   allegro-5.0.10-monolith-md-debug:allegro-5.0.10-monolith-md-debug.dll
 0002:00045b96       _al_install_system         0046fb96 f   allegro-5.0.10-monolith-md-debug:allegro-5.0.10-monolith-md-debug.dll
 0002:00045b9c       _al_install_audio          0046fb9c f   allegro-5.0.10-monolith-md-debug:allegro-5.0.10-monolith-md-debug.dll
 0002:00045ba2       _al_uninstall_audio        0046fba2 f   allegro-5.0.10-monolith-md-debug:allegro-5.0.10-monolith-md-debug.dll
 0002:00045ba8       _al_reserve_samples        0046fba8 f   allegro-5.0.10-monolith-md-debug:allegro-5.0.10-monolith-md-debug.dll
 0002:00045bae       _al_init_acodec_addon      0046fbae f   allegro-5.0.10-monolith-md-debug:allegro-5.0.10-monolith-md-debug.dll
 0002:00045bb4       _al_init_image_addon       0046fbb4 f   allegro-5.0.10-monolith-md-debug:allegro-5.0.10-monolith-md-debug.dll
 0002:00045bba       _al_shutdown_image_addon   0046fbba f   allegro-5.0.10-monolith-md-debug:allegro-5.0.10-monolith-md-debug.dll
 0002:00045bc0       _al_destroy_font           0046fbc0 f   allegro-5.0.10-monolith-md-debug:allegro-5.0.10-monolith-md-debug.dll
 0002:00045bc6       _al_init_font_addon        0046fbc6 f   allegro-5.0.10-monolith-md-debug:allegro-5.0.10-monolith-md-debug.dll
 0002:00045bcc       _al_shutdown_font_addon    0046fbcc f   allegro-5.0.10-monolith-md-debug:allegro-5.0.10-monolith-md-debug.dll
 0002:00045bd2       _al_load_ttf_font          0046fbd2 f   allegro-5.0.10-monolith-md-debug:allegro-5.0.10-monolith-md-debug.dll
 0002:00045bd8       _al_init_ttf_addon         0046fbd8 f   allegro-5.0.10-monolith-md-debug:allegro-5.0.10-monolith-md-debug.dll
 0002:00045bde       _al_shutdown_ttf_addon     0046fbde f   allegro-5.0.10-monolith-md-debug:allegro-5.0.10-monolith-md-debug.dll
 0002:00045be4       _al_init_primitives_addon  0046fbe4 f   allegro-5.0.10-monolith-md-debug:allegro-5.0.10-monolith-md-debug.dll
 0002:00045bea       _al_shutdown_primitives_addon 0046fbea f   allegro-5.0.10-monolith-md-debug:allegro-5.0.10-monolith-md-debug.dll
 0002:00045bf0       _al_draw_filled_rectangle  0046fbf0 f   allegro-5.0.10-monolith-md-debug:allegro-5.0.10-monolith-md-debug.dll
 0002:00045bf6       _al_create_display         0046fbf6 f   allegro-5.0.10-monolith-md-debug:allegro-5.0.10-monolith-md-debug.dll
 0002:00045bfc       _al_destroy_display        0046fbfc f   allegro-5.0.10-monolith-md-debug:allegro-5.0.10-monolith-md-debug.dll
 0002:00045c02       _al_set_target_bitmap      0046fc02 f   allegro-5.0.10-monolith-md-debug:allegro-5.0.10-monolith-md-debug.dll
 0002:00045c08       _al_get_backbuffer         0046fc08 f   allegro-5.0.10-monolith-md-debug:allegro-5.0.10-monolith-md-debug.dll
 0002:00045c0e       _al_get_target_bitmap      0046fc0e f   allegro-5.0.10-monolith-md-debug:allegro-5.0.10-monolith-md-debug.dll
 0002:00045c14       _al_flip_display           0046fc14 f   allegro-5.0.10-monolith-md-debug:allegro-5.0.10-monolith-md-debug.dll
 0002:00045c1a       _al_create_sub_bitmap      0046fc1a f   allegro-5.0.10-monolith-md-debug:allegro-5.0.10-monolith-md-debug.dll
 0002:00045c20       _al_draw_bitmap            0046fc20 f   allegro-5.0.10-monolith-md-debug:allegro-5.0.10-monolith-md-debug.dll
 0002:00045c26       _al_draw_rotated_bitmap    0046fc26 f   allegro-5.0.10-monolith-md-debug:allegro-5.0.10-monolith-md-debug.dll
 0002:00045c2c       _al_create_bitmap          0046fc2c f   allegro-5.0.10-monolith-md-debug:allegro-5.0.10-monolith-md-debug.dll
 0002:00045c32       _al_destroy_bitmap         0046fc32 f   allegro-5.0.10-monolith-md-debug:allegro-5.0.10-monolith-md-debug.dll
 0002:00045c38       _al_clone_bitmap           0046fc38 f   allegro-5.0.10-monolith-md-debug:allegro-5.0.10-monolith-md-debug.dll
 0002:00045c3e       _al_load_bitmap            0046fc3e f   allegro-5.0.10-monolith-md-debug:allegro-5.0.10-monolith-md-debug.dll
 0002:00045c44       _al_clear_to_color         0046fc44 f   allegro-5.0.10-monolith-md-debug:allegro-5.0.10-monolith-md-debug.dll
 0002:00045c50       ??2Trackable@@SAPAXI@Z     0046fc50 f   DeanLib:Trackable.obj
 0002:00045cd0       ??3Trackable@@SAXPAX@Z     0046fcd0 f   DeanLib:Trackable.obj
 0002:00045d70       ??_UTrackable@@SAPAXI@Z    0046fd70 f   DeanLib:Trackable.obj
 0002:00045df0       ??_VTrackable@@SAXPAX@Z    0046fdf0 f   DeanLib:Trackable.obj
 0002:00045e90       ??0Timer@@QAE@XZ           0046fe90 f   DeanLib:Timer.obj
 0002:00045f60       ??1Timer@@QAE@XZ           0046ff60 f   DeanLib:Timer.obj
 0002:00045fa0       ?calcDifferenceInMS@Timer@@ABENT_LARGE_INTEGER@@0@Z 0046ffa0 f   DeanLib:Timer.obj
 0002:00046070       ?getElapsedTime@Timer@@QBENXZ 00470070 f   DeanLib:Timer.obj
 0002:00046180       ?pause@Timer@@QAEX_N@Z     00470180 f   DeanLib:Timer.obj
 0002:00046290       ?sleepUntilElapsed@Timer@@QAEXN@Z 00470290 f   DeanLib:Timer.obj
 0002:00046440       ?start@Timer@@QAEXXZ       00470440 f   DeanLib:Timer.obj
 0002:000464d0       ?stop@Timer@@QAEXXZ        004704d0 f   DeanLib:Timer.obj
 0002:00046560       ??$?0$$V@?$_Compressed_pair@U?$_Wrap_alloc@V?$allocator@U?$_Tree_node@U?$pair@QAXUAllocationRecord@@@std@@PAX@std@@@std@@@std@@V?$_Tree_val@U?$_Tree_simple_types@U?$pair@QAXUAllocationRecord@@@std@@@std@@@2@$00@std@@QAE@U_Zero_then_variadic_args_t@1@@Z 00470560 f i DeanLib:MemoryTracker.obj
 0002:000465c0       ??$?0AAPAXAAUAllocationRecord@@X$0A@@?$pair@PAXUAllocationRecord@@@std@@QAE@AAPAXAAUAllocationRecord@@@Z 004705c0 f i DeanLib:MemoryTracker.obj
 0002:00046650       ??$?0AAU?$_Wrap_alloc@V?$allocator@U?$_Tree_node@U?$pair@QAXUAllocationRecord@@@std@@PAX@std@@@std@@@std@@@?$_Wrap_alloc@V?$allocator@U_Container_proxy@std@@@std@@@std@@QAE@AAU?$_Wrap_alloc@V?$allocator@U?$_Tree_node@U?$pair@QAXUAllocationRecord@@@std@@PAX@std@@@std@@@1@@Z 00470650 f i DeanLib:MemoryTracker.obj
 0002:000466c0       ??$?0AAV?$_Tree_iterator@V?$_Tree_val@U?$_Tree_simple_types@U?$pair@QAXUAllocationRecord@@@std@@@std@@@std@@@std@@_NX$0A@@?$pair@V?$_Tree_iterator@V?$_Tree_val@U?$_Tree_simple_types@U?$pair@QAXUAllocationRecord@@@std@@@std@@@std@@@std@@_N@std@@QAE@AAV?$_Tree_iterator@V?$_Tree_val@U?$_Tree_simple_types@U?$pair@QAXUAllocationRecord@@@std@@@std@@@std@@@1@$$QA_N@Z 004706c0 f i DeanLib:MemoryTracker.obj
 0002:00046740       ??$?0ABU?$less@PAX@std@@U_Zero_then_variadic_args_t@1@@?$_Compressed_pair@U?$less@PAX@std@@V?$_Compressed_pair@U?$_Wrap_alloc@V?$allocator@U?$_Tree_node@U?$pair@QAXUAllocationRecord@@@std@@PAX@std@@@std@@@std@@V?$_Tree_val@U?$_Tree_simple_types@U?$pair@QAXUAllocationRecord@@@std@@@std@@@2@$00@2@$00@std@@QAE@U_One_then_variadic_args_t@1@ABU?$less@PAX@1@$$QAU_Zero_then_variadic_args_t@1@@Z 00470740 f i DeanLib:MemoryTracker.obj
 0002:000467c0       ??$?0PAXUAllocationRecord@@X$0A@@?$pair@QAXUAllocationRecord@@@std@@QAE@ABU?$pair@PAXUAllocationRecord@@@1@@Z 004707c0 f i DeanLib:MemoryTracker.obj
 0002:00046820       ??$?0U?$_Tree_node@U?$pair@QAXUAllocationRecord@@@std@@PAX@std@@@?$allocator@U_Container_proxy@std@@@std@@QAE@ABV?$allocator@U?$_Tree_node@U?$pair@QAXUAllocationRecord@@@std@@PAX@std@@@1@@Z 00470820 f i DeanLib:MemoryTracker.obj
 0002:00046860       ??$?0V?$_Tree_iterator@V?$_Tree_val@U?$_Tree_simple_types@U?$pair@QAXUAllocationRecord@@@std@@@std@@@std@@@std@@_NX$0A@@?$pair@V?$_Tree_iterator@V?$_Tree_val@U?$_Tree_simple_types@U?$pair@QAXUAllocationRecord@@@std@@@std@@@std@@@std@@_N@std@@QAE@$$QAV?$_Tree_iterator@V?$_Tree_val@U?$_Tree_simple_types@U?$pair@QAXUAllocationRecord@@@std@@@std@@@std@@@1@$$QA_N@Z 00470860 f i DeanLib:MemoryTracker.obj
 0002:000468e0       ??$_Buynode@AAU?$pair@PAXUAllocationRecord@@@std@@@?$_Tree_comp_alloc@V?$_Tmap_traits@PAXUAllocationRecord@@U?$less@PAX@std@@V?$allocator@U?$pair@QAXUAllocationRecord@@@std@@@3@$0A@@std@@@std@@QAEPAU?$_Tree_node@U?$pair@QAXUAllocationRecord@@@std@@PAX@1@AAU?$pair@PAXUAllocationRecord@@@1@@Z 004708e0 f i DeanLib:MemoryTracker.obj
 0002:00046a30       ??$_Buynode_if_nil@AAU?$pair@QAXUAllocationRecord@@@std@@@?$_Tree@V?$_Tmap_traits@PAXUAllocationRecord@@U?$less@PAX@std@@V?$allocator@U?$pair@QAXUAllocationRecord@@@std@@@3@$0A@@std@@@std@@IAEPAU?$_Tree_node@U?$pair@QAXUAllocationRecord@@@std@@PAX@1@PAU21@AAU?$pair@QAXUAllocationRecord@@@1@@Z 00470a30 f i DeanLib:MemoryTracker.obj
 0002:00046a70       ??$_Debug_lt_pred@AAU?$less@PAX@std@@ABQAXABQAX@std@@YA_NAAU?$less@PAX@0@ABQAX1PB_WI@Z 00470a70 f i DeanLib:MemoryTracker.obj
 0002:00046b50       ??$_Debug_lt_pred@ABU?$less@PAX@std@@ABQAXABQAX@std@@YA_NABU?$less@PAX@0@ABQAX1PB_WI@Z 00470b50 f i DeanLib:MemoryTracker.obj
 0002:00046c30       ??$_Insert_at@AAU?$pair@QAXUAllocationRecord@@@std@@PAU?$_Tree_node@U?$pair@QAXUAllocationRecord@@@std@@PAX@2@@?$_Tree@V?$_Tmap_traits@PAXUAllocationRecord@@U?$less@PAX@std@@V?$allocator@U?$pair@QAXUAllocationRecord@@@std@@@3@$0A@@std@@@std@@IAE?AV?$_Tree_iterator@V?$_Tree_val@U?$_Tree_simple_types@U?$pair@QAXUAllocationRecord@@@std@@@std@@@std@@@1@_NPAU?$_Tree_node@U?$pair@QAXUAllocationRecord@@@std@@PAX@1@AAU?$pair@QAXUAllocationRecord@@@1@1@Z 00470c30 f i DeanLib:MemoryTracker.obj
 0002:000471f0       ??$_Insert_nohint@AAU?$pair@QAXUAllocationRecord@@@std@@PAU?$_Tree_node@U?$pair@QAXUAllocationRecord@@@std@@PAX@2@@?$_Tree@V?$_Tmap_traits@PAXUAllocationRecord@@U?$less@PAX@std@@V?$allocator@U?$pair@QAXUAllocationRecord@@@std@@@3@$0A@@std@@@std@@IAE?AU?$pair@V?$_Tree_iterator@V?$_Tree_val@U?$_Tree_simple_types@U?$pair@QAXUAllocationRecord@@@std@@@std@@@std@@@std@@_N@1@_NAAU?$pair@QAXUAllocationRecord@@@1@PAU?$_Tree_node@U?$pair@QAXUAllocationRecord@@@std@@PAX@1@@Z 004711f0 f i DeanLib:MemoryTracker.obj
 0002:000478d0       ??$_Kfn@QAXUAllocationRecord@@@?$_Tmap_traits@PAXUAllocationRecord@@U?$less@PAX@std@@V?$allocator@U?$pair@QAXUAllocationRecord@@@std@@@3@$0A@@std@@SAABQAXABU?$pair@QAXUAllocationRecord@@@1@@Z 004718d0 f i DeanLib:MemoryTracker.obj
 0002:00047910       ??$_Lbound@PAX@?$_Tree@V?$_Tmap_traits@PAXUAllocationRecord@@U?$less@PAX@std@@V?$allocator@U?$pair@QAXUAllocationRecord@@@std@@@3@$0A@@std@@@std@@IBEPAU?$_Tree_node@U?$pair@QAXUAllocationRecord@@@std@@PAX@1@ABQAX@Z 00471910 f i DeanLib:MemoryTracker.obj
 0002:00047a00       ??$addressof@PAU?$_Tree_node@U?$pair@QAXUAllocationRecord@@@std@@PAX@std@@@std@@YAPAPAU?$_Tree_node@U?$pair@QAXUAllocationRecord@@@std@@PAX@0@AAPAU10@@Z 00471a00 f i DeanLib:MemoryTracker.obj
 0002:00047a40       ??$addressof@U?$pair@QAXUAllocationRecord@@@std@@@std@@YAPAU?$pair@QAXUAllocationRecord@@@0@AAU10@@Z 00471a40 f i DeanLib:MemoryTracker.obj
 0002:00047a80       ??$construct@PAU?$_Tree_node@U?$pair@QAXUAllocationRecord@@@std@@PAX@std@@AAPAU12@@?$_Wrap_alloc@V?$allocator@U?$_Tree_node@U?$pair@QAXUAllocationRecord@@@std@@PAX@std@@@std@@@std@@QAEXPAPAU?$_Tree_node@U?$pair@QAXUAllocationRecord@@@std@@PAX@1@AAPAU21@@Z 00471a80 f i DeanLib:MemoryTracker.obj
 0002:00047af0       ??$construct@PAU?$_Tree_node@U?$pair@QAXUAllocationRecord@@@std@@PAX@std@@AAPAU12@@?$allocator@U?$_Tree_node@U?$pair@QAXUAllocationRecord@@@std@@PAX@std@@@std@@QAEXPAPAU?$_Tree_node@U?$pair@QAXUAllocationRecord@@@std@@PAX@1@AAPAU21@@Z 00471af0 f i DeanLib:MemoryTracker.obj
 0002:00047ba0       ??$construct@PAU?$_Tree_node@U?$pair@QAXUAllocationRecord@@@std@@PAX@std@@AAPAU12@@?$allocator_traits@V?$allocator@U?$_Tree_node@U?$pair@QAXUAllocationRecord@@@std@@PAX@std@@@std@@@std@@SAXAAV?$allocator@U?$_Tree_node@U?$pair@QAXUAllocationRecord@@@std@@PAX@std@@@1@PAPAU?$_Tree_node@U?$pair@QAXUAllocationRecord@@@std@@PAX@1@AAPAU31@@Z 00471ba0 f i DeanLib:MemoryTracker.obj
 0002:00047c00       ??$construct@U?$pair@QAXUAllocationRecord@@@std@@AAU?$pair@PAXUAllocationRecord@@@2@@?$_Wrap_alloc@V?$allocator@U?$_Tree_node@U?$pair@QAXUAllocationRecord@@@std@@PAX@std@@@std@@@std@@QAEXPAU?$pair@QAXUAllocationRecord@@@1@AAU?$pair@PAXUAllocationRecord@@@1@@Z 00471c00 f i DeanLib:MemoryTracker.obj
 0002:00047c70       ??$construct@U?$pair@QAXUAllocationRecord@@@std@@AAU?$pair@PAXUAllocationRecord@@@2@@?$allocator@U?$_Tree_node@U?$pair@QAXUAllocationRecord@@@std@@PAX@std@@@std@@QAEXPAU?$pair@QAXUAllocationRecord@@@1@AAU?$pair@PAXUAllocationRecord@@@1@@Z 00471c70 f i DeanLib:MemoryTracker.obj
 0002:00047d70       ??$construct@U?$pair@QAXUAllocationRecord@@@std@@AAU?$pair@PAXUAllocationRecord@@@2@@?$allocator_traits@V?$allocator@U?$_Tree_node@U?$pair@QAXUAllocationRecord@@@std@@PAX@std@@@std@@@std@@SAXAAV?$allocator@U?$_Tree_node@U?$pair@QAXUAllocationRecord@@@std@@PAX@std@@@1@PAU?$pair@QAXUAllocationRecord@@@1@AAU?$pair@PAXUAllocationRecord@@@1@@Z 00471d70 f i DeanLib:MemoryTracker.obj
 0002:00047dd0       ??$destroy@PAU?$_Tree_node@U?$pair@QAXUAllocationRecord@@@std@@PAX@std@@@?$_Wrap_alloc@V?$allocator@U?$_Tree_node@U?$pair@QAXUAllocationRecord@@@std@@PAX@std@@@std@@@std@@QAEXPAPAU?$_Tree_node@U?$pair@QAXUAllocationRecord@@@std@@PAX@1@@Z 00471dd0 f i DeanLib:MemoryTracker.obj
 0002:00047e30       ??$destroy@PAU?$_Tree_node@U?$pair@QAXUAllocationRecord@@@std@@PAX@std@@@?$allocator@U?$_Tree_node@U?$pair@QAXUAllocationRecord@@@std@@PAX@std@@@std@@QAEXPAPAU?$_Tree_node@U?$pair@QAXUAllocationRecord@@@std@@PAX@1@@Z 00471e30 f i DeanLib:MemoryTracker.obj
 0002:00047e70       ??$destroy@PAU?$_Tree_node@U?$pair@QAXUAllocationRecord@@@std@@PAX@std@@@?$allocator_traits@V?$allocator@U?$_Tree_node@U?$pair@QAXUAllocationRecord@@@std@@PAX@std@@@std@@@std@@SAXAAV?$allocator@U?$_Tree_node@U?$pair@QAXUAllocationRecord@@@std@@PAX@std@@@1@PAPAU?$_Tree_node@U?$pair@QAXUAllocationRecord@@@std@@PAX@1@@Z 00471e70 f i DeanLib:MemoryTracker.obj
 0002:00047ec0       ??$destroy@U?$pair@QAXUAllocationRecord@@@std@@@?$_Wrap_alloc@V?$allocator@U?$_Tree_node@U?$pair@QAXUAllocationRecord@@@std@@PAX@std@@@std@@@std@@QAEXPAU?$pair@QAXUAllocationRecord@@@1@@Z 00471ec0 f i DeanLib:MemoryTracker.obj
 0002:00047f20       ??$destroy@U?$pair@QAXUAllocationRecord@@@std@@@?$allocator@U?$_Tree_node@U?$pair@QAXUAllocationRecord@@@std@@PAX@std@@@std@@QAEXPAU?$pair@QAXUAllocationRecord@@@1@@Z 00471f20 f i DeanLib:MemoryTracker.obj
 0002:00047f60       ??$destroy@U?$pair@QAXUAllocationRecord@@@std@@@?$allocator_traits@V?$allocator@U?$_Tree_node@U?$pair@QAXUAllocationRecord@@@std@@PAX@std@@@std@@@std@@SAXAAV?$allocator@U?$_Tree_node@U?$pair@QAXUAllocationRecord@@@std@@PAX@std@@@1@PAU?$pair@QAXUAllocationRecord@@@1@@Z 00471f60 f i DeanLib:MemoryTracker.obj
 0002:00047fb0       ??$emplace@AAU?$pair@PAXUAllocationRecord@@@std@@@?$_Tree@V?$_Tmap_traits@PAXUAllocationRecord@@U?$less@PAX@std@@V?$allocator@U?$pair@QAXUAllocationRecord@@@std@@@3@$0A@@std@@@std@@QAE?AU?$pair@V?$_Tree_iterator@V?$_Tree_val@U?$_Tree_simple_types@U?$pair@QAXUAllocationRecord@@@std@@@std@@@std@@@std@@_N@1@AAU?$pair@PAXUAllocationRecord@@@1@@Z 00471fb0 f i DeanLib:MemoryTracker.obj
 0002:00048060       ??$forward@AAPAU?$_Tree_node@U?$pair@QAXUAllocationRecord@@@std@@PAX@std@@@std@@YAAAPAU?$_Tree_node@U?$pair@QAXUAllocationRecord@@@std@@PAX@0@AAPAU10@@Z 00472060 f i DeanLib:MemoryTracker.obj
 0002:000480a0       ??$forward@AAPAX@std@@YAAAPAXAAPAX@Z 004720a0 f i DeanLib:MemoryTracker.obj
 0002:000480e0       ??$forward@AAU?$_Wrap_alloc@V?$allocator@U?$_Tree_node@U?$pair@QAXUAllocationRecord@@@std@@PAX@std@@@std@@@std@@@std@@YAAAU?$_Wrap_alloc@V?$allocator@U?$_Tree_node@U?$pair@QAXUAllocationRecord@@@std@@PAX@std@@@std@@@0@AAU10@@Z 004720e0 f i DeanLib:MemoryTracker.obj
 0002:00048120       ??$forward@AAU?$pair@PAXUAllocationRecord@@@std@@@std@@YAAAU?$pair@PAXUAllocationRecord@@@0@AAU10@@Z 00472120 f i DeanLib:MemoryTracker.obj
 0002:00048160       ??$forward@AAU?$pair@QAXUAllocationRecord@@@std@@@std@@YAAAU?$pair@QAXUAllocationRecord@@@0@AAU10@@Z 00472160 f i DeanLib:MemoryTracker.obj
 0002:000481a0       ??$forward@AAUAllocationRecord@@@std@@YAAAUAllocationRecord@@AAU1@@Z 004721a0 f i DeanLib:MemoryTracker.obj
 0002:000481e0       ??$forward@AAV?$_Tree_iterator@V?$_Tree_val@U?$_Tree_simple_types@U?$pair@QAXUAllocationRecord@@@std@@@std@@@std@@@std@@@std@@YAAAV?$_Tree_iterator@V?$_Tree_val@U?$_Tree_simple_types@U?$pair@QAXUAllocationRecord@@@std@@@std@@@std@@@0@AAV10@@Z 004721e0 f i DeanLib:MemoryTracker.obj
 0002:00048220       ??$forward@ABU?$less@PAX@std@@@std@@YAABU?$less@PAX@0@ABU10@@Z 00472220 f i DeanLib:MemoryTracker.obj
 0002:00048260       ??$forward@V?$_Tree_iterator@V?$_Tree_val@U?$_Tree_simple_types@U?$pair@QAXUAllocationRecord@@@std@@@std@@@std@@@std@@@std@@YA$$QAV?$_Tree_iterator@V?$_Tree_val@U?$_Tree_simple_types@U?$pair@QAXUAllocationRecord@@@std@@@std@@@std@@@0@AAV10@@Z 00472260 f i DeanLib:MemoryTracker.obj
 0002:000482a0       ??$insert@AAU?$pair@PAXUAllocationRecord@@@std@@X@?$map@PAXUAllocationRecord@@U?$less@PAX@std@@V?$allocator@U?$pair@QAXUAllocationRecord@@@std@@@3@@std@@QAE?AU?$pair@V?$_Tree_iterator@V?$_Tree_val@U?$_Tree_simple_types@U?$pair@QAXUAllocationRecord@@@std@@@std@@@std@@@std@@_N@1@AAU?$pair@PAXUAllocationRecord@@@1@@Z 004722a0 f i DeanLib:MemoryTracker.obj
 0002:00048330       ??0?$_Iterator012@Ubidirectional_iterator_tag@std@@U?$pair@QAXUAllocationRecord@@@2@HPBU32@ABU32@U_Iterator_base12@2@@std@@QAE@$$QAU01@@Z 00472330 f i DeanLib:MemoryTracker.obj
 0002:00048390       ??0?$_Iterator012@Ubidirectional_iterator_tag@std@@U?$pair@QAXUAllocationRecord@@@2@HPBU32@ABU32@U_Iterator_base12@2@@std@@QAE@ABU01@@Z 00472390 f i DeanLib:MemoryTracker.obj
 0002:000483f0       ??0?$_Iterator012@Ubidirectional_iterator_tag@std@@U?$pair@QAXUAllocationRecord@@@2@HPBU32@ABU32@U_Iterator_base12@2@@std@@QAE@XZ 004723f0 f i DeanLib:MemoryTracker.obj
 0002:00048450       ??0?$_Tree@V?$_Tmap_traits@PAXUAllocationRecord@@U?$less@PAX@std@@V?$allocator@U?$pair@QAXUAllocationRecord@@@std@@@3@$0A@@std@@@std@@QAE@ABU?$less@PAX@1@@Z 00472450 f i DeanLib:MemoryTracker.obj
 0002:000484b0       ??0?$_Tree_comp_alloc@V?$_Tmap_traits@PAXUAllocationRecord@@U?$less@PAX@std@@V?$allocator@U?$pair@QAXUAllocationRecord@@@std@@@3@$0A@@std@@@std@@QAE@ABU?$less@PAX@1@@Z 004724b0 f i DeanLib:MemoryTracker.obj
 0002:00048570       ??0?$_Tree_const_iterator@V?$_Tree_val@U?$_Tree_simple_types@U?$pair@QAXUAllocationRecord@@@std@@@std@@@std@@@std@@QAE@$$QAV01@@Z 00472570 f i DeanLib:MemoryTracker.obj
 0002:000485d0       ??0?$_Tree_const_iterator@V?$_Tree_val@U?$_Tree_simple_types@U?$pair@QAXUAllocationRecord@@@std@@@std@@@std@@@std@@QAE@ABV01@@Z 004725d0 f i DeanLib:MemoryTracker.obj
 0002:00048630       ??0?$_Tree_const_iterator@V?$_Tree_val@U?$_Tree_simple_types@U?$pair@QAXUAllocationRecord@@@std@@@std@@@std@@@std@@QAE@PAU?$_Tree_node@U?$pair@QAXUAllocationRecord@@@std@@PAX@1@PBV?$_Tree_val@U?$_Tree_simple_types@U?$pair@QAXUAllocationRecord@@@std@@@std@@@1@@Z 00472630 f i DeanLib:MemoryTracker.obj
 0002:00048690       ??0?$_Tree_const_iterator@V?$_Tree_val@U?$_Tree_simple_types@U?$pair@QAXUAllocationRecord@@@std@@@std@@@std@@@std@@QAE@XZ 00472690 f i DeanLib:MemoryTracker.obj
 0002:000486f0       ??0?$_Tree_iterator@V?$_Tree_val@U?$_Tree_simple_types@U?$pair@QAXUAllocationRecord@@@std@@@std@@@std@@@std@@QAE@$$QAV01@@Z 004726f0 f i DeanLib:MemoryTracker.obj
 0002:00048750       ??0?$_Tree_iterator@V?$_Tree_val@U?$_Tree_simple_types@U?$pair@QAXUAllocationRecord@@@std@@@std@@@std@@@std@@QAE@ABV01@@Z 00472750 f i DeanLib:MemoryTracker.obj
 0002:000487b0       ??0?$_Tree_iterator@V?$_Tree_val@U?$_Tree_simple_types@U?$pair@QAXUAllocationRecord@@@std@@@std@@@std@@@std@@QAE@PAU?$_Tree_node@U?$pair@QAXUAllocationRecord@@@std@@PAX@1@PBV?$_Tree_val@U?$_Tree_simple_types@U?$pair@QAXUAllocationRecord@@@std@@@std@@@1@@Z 004727b0 f i DeanLib:MemoryTracker.obj
 0002:00048810       ??0?$_Tree_iterator@V?$_Tree_val@U?$_Tree_simple_types@U?$pair@QAXUAllocationRecord@@@std@@@std@@@std@@@std@@QAE@XZ 00472810 f i DeanLib:MemoryTracker.obj
 0002:00048870       ??0?$_Tree_unchecked_const_iterator@V?$_Tree_val@U?$_Tree_simple_types@U?$pair@QAXUAllocationRecord@@@std@@@std@@@std@@U_Iterator_base12@2@@std@@QAE@$$QAV01@@Z 00472870 f i DeanLib:MemoryTracker.obj
 0002:000488e0       ??0?$_Tree_unchecked_const_iterator@V?$_Tree_val@U?$_Tree_simple_types@U?$pair@QAXUAllocationRecord@@@std@@@std@@@std@@U_Iterator_base12@2@@std@@QAE@ABV01@@Z 004728e0 f i DeanLib:MemoryTracker.obj
 0002:00048950       ??0?$_Tree_unchecked_const_iterator@V?$_Tree_val@U?$_Tree_simple_types@U?$pair@QAXUAllocationRecord@@@std@@@std@@@std@@U_Iterator_base12@2@@std@@QAE@PAU?$_Tree_node@U?$pair@QAXUAllocationRecord@@@std@@PAX@1@PBV?$_Tree_val@U?$_Tree_simple_types@U?$pair@QAXUAllocationRecord@@@std@@@std@@@1@@Z 00472950 f i DeanLib:MemoryTracker.obj
 0002:00048a10       ??0?$_Tree_unchecked_const_iterator@V?$_Tree_val@U?$_Tree_simple_types@U?$pair@QAXUAllocationRecord@@@std@@@std@@@std@@U_Iterator_base12@2@@std@@QAE@XZ 00472a10 f i DeanLib:MemoryTracker.obj
 0002:00048a70       ??0?$_Tree_val@U?$_Tree_simple_types@U?$pair@QAXUAllocationRecord@@@std@@@std@@@std@@QAE@XZ 00472a70 f i DeanLib:MemoryTracker.obj
 0002:00048ae0       ??0?$_Wrap_alloc@V?$allocator@U?$_Tree_node@U?$pair@QAXUAllocationRecord@@@std@@PAX@std@@@std@@@std@@QAE@XZ 00472ae0 f i DeanLib:MemoryTracker.obj
 0002:00048b40       ??0?$allocator@U?$_Tree_node@U?$pair@QAXUAllocationRecord@@@std@@PAX@std@@@std@@QAE@XZ 00472b40 f i DeanLib:MemoryTracker.obj
 0002:00048b80       ??0?$map@PAXUAllocationRecord@@U?$less@PAX@std@@V?$allocator@U?$pair@QAXUAllocationRecord@@@std@@@3@@std@@QAE@XZ 00472b80 f i DeanLib:MemoryTracker.obj
 0002:00048be0       ??0AllocationRecord@@QAE@HI@Z 00472be0 f i DeanLib:MemoryTracker.obj
 0002:00048c30       ??0MemoryTracker@@QAE@XZ   00472c30 f   DeanLib:MemoryTracker.obj
 0002:00048c90       ??1?$_Compressed_pair@U?$_Wrap_alloc@V?$allocator@U?$_Tree_node@U?$pair@QAXUAllocationRecord@@@std@@PAX@std@@@std@@@std@@V?$_Tree_val@U?$_Tree_simple_types@U?$pair@QAXUAllocationRecord@@@std@@@std@@@2@$00@std@@QAE@XZ 00472c90 f i DeanLib:MemoryTracker.obj
 0002:00048ce0       ??1?$_Compressed_pair@U?$less@PAX@std@@V?$_Compressed_pair@U?$_Wrap_alloc@V?$allocator@U?$_Tree_node@U?$pair@QAXUAllocationRecord@@@std@@PAX@std@@@std@@@std@@V?$_Tree_val@U?$_Tree_simple_types@U?$pair@QAXUAllocationRecord@@@std@@@std@@@2@$00@2@$00@std@@QAE@XZ 00472ce0 f i DeanLib:MemoryTracker.obj
 0002:00048d30       ??1?$_Iterator012@Ubidirectional_iterator_tag@std@@U?$pair@QAXUAllocationRecord@@@2@HPBU32@ABU32@U_Iterator_base12@2@@std@@QAE@XZ 00472d30 f i DeanLib:MemoryTracker.obj
 0002:00048d80       ??1?$_Tree@V?$_Tmap_traits@PAXUAllocationRecord@@U?$less@PAX@std@@V?$allocator@U?$pair@QAXUAllocationRecord@@@std@@@3@$0A@@std@@@std@@QAE@XZ 00472d80 f i DeanLib:MemoryTracker.obj
 0002:00048e10       ??1?$_Tree_comp_alloc@V?$_Tmap_traits@PAXUAllocationRecord@@U?$less@PAX@std@@V?$allocator@U?$pair@QAXUAllocationRecord@@@std@@@3@$0A@@std@@@std@@QAE@XZ 00472e10 f i DeanLib:MemoryTracker.obj
 0002:00048ec0       ??1?$_Tree_const_iterator@V?$_Tree_val@U?$_Tree_simple_types@U?$pair@QAXUAllocationRecord@@@std@@@std@@@std@@@std@@QAE@XZ 00472ec0 f i DeanLib:MemoryTracker.obj
 0002:00048f10       ??1?$_Tree_iterator@V?$_Tree_val@U?$_Tree_simple_types@U?$pair@QAXUAllocationRecord@@@std@@@std@@@std@@@std@@QAE@XZ 00472f10 f i DeanLib:MemoryTracker.obj
 0002:00048f60       ??1?$_Tree_unchecked_const_iterator@V?$_Tree_val@U?$_Tree_simple_types@U?$pair@QAXUAllocationRecord@@@std@@@std@@@std@@U_Iterator_base12@2@@std@@QAE@XZ 00472f60 f i DeanLib:MemoryTracker.obj
 0002:00048fb0       ??1?$_Tree_val@U?$_Tree_simple_types@U?$pair@QAXUAllocationRecord@@@std@@@std@@@std@@QAE@XZ 00472fb0 f i DeanLib:MemoryTracker.obj
 0002:00049000       ??1?$map@PAXUAllocationRecord@@U?$less@PAX@std@@V?$allocator@U?$pair@QAXUAllocationRecord@@@std@@@3@@std@@QAE@XZ 00473000 f i DeanLib:MemoryTracker.obj
 0002:00049050       ??1?$pair@V?$_Tree_iterator@V?$_Tree_val@U?$_Tree_simple_types@U?$pair@QAXUAllocationRecord@@@std@@@std@@@std@@@std@@_N@std@@QAE@XZ 00473050 f i DeanLib:MemoryTracker.obj
 0002:000490a0       ??1MemoryTracker@@QAE@XZ   004730a0 f   DeanLib:MemoryTracker.obj
 0002:00049150       ??4?$_Iterator012@Ubidirectional_iterator_tag@std@@U?$pair@QAXUAllocationRecord@@@2@HPBU32@ABU32@U_Iterator_base12@2@@std@@QAEAAU01@$$QAU01@@Z 00473150 f i DeanLib:MemoryTracker.obj
 0002:000491b0       ??4?$_Tree_const_iterator@V?$_Tree_val@U?$_Tree_simple_types@U?$pair@QAXUAllocationRecord@@@std@@@std@@@std@@@std@@QAEAAV01@$$QAV01@@Z 004731b0 f i DeanLib:MemoryTracker.obj
 0002:00049210       ??4?$_Tree_iterator@V?$_Tree_val@U?$_Tree_simple_types@U?$pair@QAXUAllocationRecord@@@std@@@std@@@std@@@std@@QAEAAV01@$$QAV01@@Z 00473210 f i DeanLib:MemoryTracker.obj
 0002:00049270       ??4?$_Tree_unchecked_const_iterator@V?$_Tree_val@U?$_Tree_simple_types@U?$pair@QAXUAllocationRecord@@@std@@@std@@@std@@U_Iterator_base12@2@@std@@QAEAAV01@$$QAV01@@Z 00473270 f i DeanLib:MemoryTracker.obj
 0002:000492e0       ??8?$_Tree_const_iterator@V?$_Tree_val@U?$_Tree_simple_types@U?$pair@QAXUAllocationRecord@@@std@@@std@@@std@@@std@@QBE_NABV01@@Z 004732e0 f i DeanLib:MemoryTracker.obj
 0002:00049430       ??9?$_Tree_const_iterator@V?$_Tree_val@U?$_Tree_simple_types@U?$pair@QAXUAllocationRecord@@@std@@@std@@@std@@@std@@QBE_NABV01@@Z 00473430 f i DeanLib:MemoryTracker.obj
 0002:000494c0       ??C?$_Tree_iterator@V?$_Tree_val@U?$_Tree_simple_types@U?$pair@QAXUAllocationRecord@@@std@@@std@@@std@@@std@@QBEPAU?$pair@QAXUAllocationRecord@@@1@XZ 004734c0 f i DeanLib:MemoryTracker.obj
 0002:00049520       ??D?$_Tree_const_iterator@V?$_Tree_val@U?$_Tree_simple_types@U?$pair@QAXUAllocationRecord@@@std@@@std@@@std@@@std@@QBEABU?$pair@QAXUAllocationRecord@@@1@XZ 00473520 f i DeanLib:MemoryTracker.obj
 0002:00049660       ??D?$_Tree_iterator@V?$_Tree_val@U?$_Tree_simple_types@U?$pair@QAXUAllocationRecord@@@std@@@std@@@std@@@std@@QBEAAU?$pair@QAXUAllocationRecord@@@1@XZ 00473660 f i DeanLib:MemoryTracker.obj
 0002:000496b0       ??E?$_Tree_const_iterator@V?$_Tree_val@U?$_Tree_simple_types@U?$pair@QAXUAllocationRecord@@@std@@@std@@@std@@@std@@QAE?AV01@H@Z 004736b0 f i DeanLib:MemoryTracker.obj
 0002:000497f0       ??E?$_Tree_const_iterator@V?$_Tree_val@U?$_Tree_simple_types@U?$pair@QAXUAllocationRecord@@@std@@@std@@@std@@@std@@QAEAAV01@XZ 004737f0 f i DeanLib:MemoryTracker.obj
 0002:00049930       ??E?$_Tree_iterator@V?$_Tree_val@U?$_Tree_simple_types@U?$pair@QAXUAllocationRecord@@@std@@@std@@@std@@@std@@QAEAAV01@XZ 00473930 f i DeanLib:MemoryTracker.obj
 0002:00049990       ??E?$_Tree_unchecked_const_iterator@V?$_Tree_val@U?$_Tree_simple_types@U?$pair@QAXUAllocationRecord@@@std@@@std@@@std@@U_Iterator_base12@2@@std@@QAEAAV01@XZ 00473990 f i DeanLib:MemoryTracker.obj
 0002:00049ac0       ??F?$_Tree_const_iterator@V?$_Tree_val@U?$_Tree_simple_types@U?$pair@QAXUAllocationRecord@@@std@@@std@@@std@@@std@@QAEAAV01@XZ 00473ac0 f i DeanLib:MemoryTracker.obj
 0002:00049ca0       ??F?$_Tree_iterator@V?$_Tree_val@U?$_Tree_simple_types@U?$pair@QAXUAllocationRecord@@@std@@@std@@@std@@@std@@QAEAAV01@XZ 00473ca0 f i DeanLib:MemoryTracker.obj
 0002:00049d00       ??F?$_Tree_unchecked_const_iterator@V?$_Tree_val@U?$_Tree_simple_types@U?$pair@QAXUAllocationRecord@@@std@@@std@@@std@@U_Iterator_base12@2@@std@@QAEAAV01@XZ 00473d00 f i DeanLib:MemoryTracker.obj
 0002:00049e60       ??R?$less@PAX@std@@QBE_NABQAX0@Z 00473e60 f i DeanLib:MemoryTracker.obj
 0002:00049ed0       ?_Alloc_proxy@?$_Tree_comp_alloc@V?$_Tmap_traits@PAXUAllocationRecord@@U?$less@PAX@std@@V?$allocator@U?$pair@QAXUAllocationRecord@@@std@@@3@$0A@@std@@@std@@QAEXXZ 00473ed0 f i DeanLib:MemoryTracker.obj
 0002:00049ff0       ?_Buyheadnode@?$_Tree_comp_alloc@V?$_Tmap_traits@PAXUAllocationRecord@@U?$less@PAX@std@@V?$allocator@U?$pair@QAXUAllocationRecord@@@std@@@3@$0A@@std@@@std@@QAEPAU?$_Tree_node@U?$pair@QAXUAllocationRecord@@@std@@PAX@2@XZ 00473ff0 f i DeanLib:MemoryTracker.obj
 0002:0004a210       ?_Buynode0@?$_Tree_comp_alloc@V?$_Tmap_traits@PAXUAllocationRecord@@U?$less@PAX@std@@V?$allocator@U?$pair@QAXUAllocationRecord@@@std@@@3@$0A@@std@@@std@@QAEPAU?$_Tree_node@U?$pair@QAXUAllocationRecord@@@std@@PAX@2@XZ 00474210 f i DeanLib:MemoryTracker.obj
 0002:0004a3d0       ?_Color@?$_Tree_comp_alloc@V?$_Tmap_traits@PAXUAllocationRecord@@U?$less@PAX@std@@V?$allocator@U?$pair@QAXUAllocationRecord@@@std@@@3@$0A@@std@@@std@@SAAADPAU?$_Tree_node@U?$pair@QAXUAllocationRecord@@@std@@PAX@2@@Z 004743d0 f i DeanLib:MemoryTracker.obj
 0002:0004a420       ?_Color@?$_Tree_val@U?$_Tree_simple_types@U?$pair@QAXUAllocationRecord@@@std@@@std@@@std@@SAAADPAU?$_Tree_node@U?$pair@QAXUAllocationRecord@@@std@@PAX@2@@Z 00474420 f i DeanLib:MemoryTracker.obj
 0002:0004a460       ?_Compare@?$_Tree@V?$_Tmap_traits@PAXUAllocationRecord@@U?$less@PAX@std@@V?$allocator@U?$pair@QAXUAllocationRecord@@@std@@@3@$0A@@std@@@std@@IBE_NABQAX0@Z 00474460 f i DeanLib:MemoryTracker.obj
 0002:0004a4e0       ?_Construct@?$_Tree_comp_alloc@V?$_Tmap_traits@PAXUAllocationRecord@@U?$less@PAX@std@@V?$allocator@U?$pair@QAXUAllocationRecord@@@std@@@3@$0A@@std@@@std@@QAEXXZ 004744e0 f i DeanLib:MemoryTracker.obj
 0002:0004a5d0       ?_Destroy_if_not_nil@?$_Tree@V?$_Tmap_traits@PAXUAllocationRecord@@U?$less@PAX@std@@V?$allocator@U?$pair@QAXUAllocationRecord@@@std@@@3@$0A@@std@@@std@@IAEXPAU?$_Tree_node@U?$pair@QAXUAllocationRecord@@@std@@PAX@2@@Z 004745d0 f i DeanLib:MemoryTracker.obj
 0002:0004a660       ?_Erase@?$_Tree@V?$_Tmap_traits@PAXUAllocationRecord@@U?$less@PAX@std@@V?$allocator@U?$pair@QAXUAllocationRecord@@@std@@@3@$0A@@std@@@std@@IAEXPAU?$_Tree_node@U?$pair@QAXUAllocationRecord@@@std@@PAX@2@@Z 00474660 f i DeanLib:MemoryTracker.obj
 0002:0004a750       ?_Free_proxy@?$_Tree_comp_alloc@V?$_Tmap_traits@PAXUAllocationRecord@@U?$less@PAX@std@@V?$allocator@U?$pair@QAXUAllocationRecord@@@std@@@3@$0A@@std@@@std@@QAEXXZ 00474750 f i DeanLib:MemoryTracker.obj
 0002:0004a860       ?_Freeheadnode@?$_Tree_comp_alloc@V?$_Tmap_traits@PAXUAllocationRecord@@U?$less@PAX@std@@V?$allocator@U?$pair@QAXUAllocationRecord@@@std@@@3@$0A@@std@@@std@@QAEXPAU?$_Tree_node@U?$pair@QAXUAllocationRecord@@@std@@PAX@2@@Z 00474860 f i DeanLib:MemoryTracker.obj
 0002:0004a950       ?_Freenode0@?$_Tree_comp_alloc@V?$_Tmap_traits@PAXUAllocationRecord@@U?$less@PAX@std@@V?$allocator@U?$pair@QAXUAllocationRecord@@@std@@@3@$0A@@std@@@std@@QAEXPAU?$_Tree_node@U?$pair@QAXUAllocationRecord@@@std@@PAX@2@@Z 00474950 f i DeanLib:MemoryTracker.obj
 0002:0004aa40       ?_Get_data@?$_Tree_comp_alloc@V?$_Tmap_traits@PAXUAllocationRecord@@U?$less@PAX@std@@V?$allocator@U?$pair@QAXUAllocationRecord@@@std@@@3@$0A@@std@@@std@@QAEAAV?$_Tree_val@U?$_Tree_simple_types@U?$pair@QAXUAllocationRecord@@@std@@@std@@@2@XZ 00474a40 f i DeanLib:MemoryTracker.obj
 0002:0004aaa0       ?_Get_data@?$_Tree_comp_alloc@V?$_Tmap_traits@PAXUAllocationRecord@@U?$less@PAX@std@@V?$allocator@U?$pair@QAXUAllocationRecord@@@std@@@3@$0A@@std@@@std@@QBEABV?$_Tree_val@U?$_Tree_simple_types@U?$pair@QAXUAllocationRecord@@@std@@@std@@@2@XZ 00474aa0 f i DeanLib:MemoryTracker.obj
 0002:0004ab00       ?_Get_first@?$_Compressed_pair@U?$_Wrap_alloc@V?$allocator@U?$_Tree_node@U?$pair@QAXUAllocationRecord@@@std@@PAX@std@@@std@@@std@@V?$_Tree_val@U?$_Tree_simple_types@U?$pair@QAXUAllocationRecord@@@std@@@std@@@2@$00@std@@QAEAAU?$_Wrap_alloc@V?$allocator@U?$_Tree_node@U?$pair@QAXUAllocationRecord@@@std@@PAX@std@@@std@@@2@XZ 00474b00 f i DeanLib:MemoryTracker.obj
 0002:0004ab40       ?_Get_first@?$_Compressed_pair@U?$_Wrap_alloc@V?$allocator@U?$_Tree_node@U?$pair@QAXUAllocationRecord@@@std@@PAX@std@@@std@@@std@@V?$_Tree_val@U?$_Tree_simple_types@U?$pair@QAXUAllocationRecord@@@std@@@std@@@2@$00@std@@QBEABU?$_Wrap_alloc@V?$allocator@U?$_Tree_node@U?$pair@QAXUAllocationRecord@@@std@@PAX@std@@@std@@@2@XZ 00474b40 f i DeanLib:MemoryTracker.obj
 0002:0004ab80       ?_Get_first@?$_Compressed_pair@U?$less@PAX@std@@V?$_Compressed_pair@U?$_Wrap_alloc@V?$allocator@U?$_Tree_node@U?$pair@QAXUAllocationRecord@@@std@@PAX@std@@@std@@@std@@V?$_Tree_val@U?$_Tree_simple_types@U?$pair@QAXUAllocationRecord@@@std@@@std@@@2@$00@2@$00@std@@QAEAAU?$less@PAX@2@XZ 00474b80 f i DeanLib:MemoryTracker.obj
 0002:0004abc0       ?_Get_first@?$_Compressed_pair@U?$less@PAX@std@@V?$_Compressed_pair@U?$_Wrap_alloc@V?$allocator@U?$_Tree_node@U?$pair@QAXUAllocationRecord@@@std@@PAX@std@@@std@@@std@@V?$_Tree_val@U?$_Tree_simple_types@U?$pair@QAXUAllocationRecord@@@std@@@std@@@2@$00@2@$00@std@@QBEABU?$less@PAX@2@XZ 00474bc0 f i DeanLib:MemoryTracker.obj
 0002:0004ac00       ?_Get_second@?$_Compressed_pair@U?$_Wrap_alloc@V?$allocator@U?$_Tree_node@U?$pair@QAXUAllocationRecord@@@std@@PAX@std@@@std@@@std@@V?$_Tree_val@U?$_Tree_simple_types@U?$pair@QAXUAllocationRecord@@@std@@@std@@@2@$00@std@@QAEAAV?$_Tree_val@U?$_Tree_simple_types@U?$pair@QAXUAllocationRecord@@@std@@@std@@@2@XZ 00474c00 f i DeanLib:MemoryTracker.obj
 0002:0004ac40       ?_Get_second@?$_Compressed_pair@U?$_Wrap_alloc@V?$allocator@U?$_Tree_node@U?$pair@QAXUAllocationRecord@@@std@@PAX@std@@@std@@@std@@V?$_Tree_val@U?$_Tree_simple_types@U?$pair@QAXUAllocationRecord@@@std@@@std@@@2@$00@std@@QBEABV?$_Tree_val@U?$_Tree_simple_types@U?$pair@QAXUAllocationRecord@@@std@@@std@@@2@XZ 00474c40 f i DeanLib:MemoryTracker.obj
 0002:0004ac80       ?_Get_second@?$_Compressed_pair@U?$less@PAX@std@@V?$_Compressed_pair@U?$_Wrap_alloc@V?$allocator@U?$_Tree_node@U?$pair@QAXUAllocationRecord@@@std@@PAX@std@@@std@@@std@@V?$_Tree_val@U?$_Tree_simple_types@U?$pair@QAXUAllocationRecord@@@std@@@std@@@2@$00@2@$00@std@@QAEAAV?$_Compressed_pair@U?$_Wrap_alloc@V?$allocator@U?$_Tree_node@U?$pair@QAXUAllocationRecord@@@std@@PAX@std@@@std@@@std@@V?$_Tree_val@U?$_Tree_simple_types@U?$pair@QAXUAllocationRecord@@@std@@@std@@@2@$00@2@XZ 00474c80 f i DeanLib:MemoryTracker.obj
 0002:0004acc0       ?_Get_second@?$_Compressed_pair@U?$less@PAX@std@@V?$_Compressed_pair@U?$_Wrap_alloc@V?$allocator@U?$_Tree_node@U?$pair@QAXUAllocationRecord@@@std@@PAX@std@@@std@@@std@@V?$_Tree_val@U?$_Tree_simple_types@U?$pair@QAXUAllocationRecord@@@std@@@std@@@2@$00@2@$00@std@@QBEABV?$_Compressed_pair@U?$_Wrap_alloc@V?$allocator@U?$_Tree_node@U?$pair@QAXUAllocationRecord@@@std@@PAX@std@@@std@@@std@@V?$_Tree_val@U?$_Tree_simple_types@U?$pair@QAXUAllocationRecord@@@std@@@std@@@2@$00@2@XZ 00474cc0 f i DeanLib:MemoryTracker.obj
 0002:0004ad00       ?_Getal@?$_Tree_comp_alloc@V?$_Tmap_traits@PAXUAllocationRecord@@U?$less@PAX@std@@V?$allocator@U?$pair@QAXUAllocationRecord@@@std@@@3@$0A@@std@@@std@@QAEAAU?$_Wrap_alloc@V?$allocator@U?$_Tree_node@U?$pair@QAXUAllocationRecord@@@std@@PAX@std@@@std@@@2@XZ 00474d00 f i DeanLib:MemoryTracker.obj
 0002:0004ad60       ?_Getal@?$_Tree_comp_alloc@V?$_Tmap_traits@PAXUAllocationRecord@@U?$less@PAX@std@@V?$allocator@U?$pair@QAXUAllocationRecord@@@std@@@3@$0A@@std@@@std@@QBEABU?$_Wrap_alloc@V?$allocator@U?$_Tree_node@U?$pair@QAXUAllocationRecord@@@std@@PAX@std@@@std@@@2@XZ 00474d60 f i DeanLib:MemoryTracker.obj
 0002:0004adc0       ?_Getcomp@?$_Tree_comp_alloc@V?$_Tmap_traits@PAXUAllocationRecord@@U?$less@PAX@std@@V?$allocator@U?$pair@QAXUAllocationRecord@@@std@@@3@$0A@@std@@@std@@QAEAAU?$less@PAX@2@XZ 00474dc0 f i DeanLib:MemoryTracker.obj
 0002:0004ae10       ?_Getcomp@?$_Tree_comp_alloc@V?$_Tmap_traits@PAXUAllocationRecord@@U?$less@PAX@std@@V?$allocator@U?$pair@QAXUAllocationRecord@@@std@@@3@$0A@@std@@@std@@QBEABU?$less@PAX@2@XZ 00474e10 f i DeanLib:MemoryTracker.obj
 0002:0004ae60       ?_Getpfirst@?$_Tree_comp_alloc@V?$_Tmap_traits@PAXUAllocationRecord@@U?$less@PAX@std@@V?$allocator@U?$pair@QAXUAllocationRecord@@@std@@@3@$0A@@std@@@std@@QBEPAPAU_Iterator_base12@2@XZ 00474e60 f i DeanLib:MemoryTracker.obj
 0002:0004aec0       ?_Isnil@?$_Tree_comp_alloc@V?$_Tmap_traits@PAXUAllocationRecord@@U?$less@PAX@std@@V?$allocator@U?$pair@QAXUAllocationRecord@@@std@@@3@$0A@@std@@@std@@SAAADPAU?$_Tree_node@U?$pair@QAXUAllocationRecord@@@std@@PAX@2@@Z 00474ec0 f i DeanLib:MemoryTracker.obj
 0002:0004af10       ?_Isnil@?$_Tree_val@U?$_Tree_simple_types@U?$pair@QAXUAllocationRecord@@@std@@@std@@@std@@SAAADPAU?$_Tree_node@U?$pair@QAXUAllocationRecord@@@std@@PAX@2@@Z 00474f10 f i DeanLib:MemoryTracker.obj
 0002:0004af50       ?_Key@?$_Tree@V?$_Tmap_traits@PAXUAllocationRecord@@U?$less@PAX@std@@V?$allocator@U?$pair@QAXUAllocationRecord@@@std@@@3@$0A@@std@@@std@@IBEABQAXPAU?$_Tree_node@U?$pair@QAXUAllocationRecord@@@std@@PAX@2@@Z 00474f50 f i DeanLib:MemoryTracker.obj
 0002:0004afc0       ?_Kfn@?$_Tree@V?$_Tmap_traits@PAXUAllocationRecord@@U?$less@PAX@std@@V?$allocator@U?$pair@QAXUAllocationRecord@@@std@@@3@$0A@@std@@@std@@IBEABQAXABU?$pair@QAXUAllocationRecord@@@2@@Z 00474fc0 f i DeanLib:MemoryTracker.obj
 0002:0004b020       ?_Left@?$_Tree_comp_alloc@V?$_Tmap_traits@PAXUAllocationRecord@@U?$less@PAX@std@@V?$allocator@U?$pair@QAXUAllocationRecord@@@std@@@3@$0A@@std@@@std@@SAAAPAU?$_Tree_node@U?$pair@QAXUAllocationRecord@@@std@@PAX@2@PAU32@@Z 00475020 f i DeanLib:MemoryTracker.obj
 0002:0004b070       ?_Left@?$_Tree_val@U?$_Tree_simple_types@U?$pair@QAXUAllocationRecord@@@std@@@std@@@std@@SAAAPAU?$_Tree_node@U?$pair@QAXUAllocationRecord@@@std@@PAX@2@PAU32@@Z 00475070 f i DeanLib:MemoryTracker.obj
 0002:0004b0b0       ?_Lmost@?$_Tree@V?$_Tmap_traits@PAXUAllocationRecord@@U?$less@PAX@std@@V?$allocator@U?$pair@QAXUAllocationRecord@@@std@@@3@$0A@@std@@@std@@IBEAAPAU?$_Tree_node@U?$pair@QAXUAllocationRecord@@@std@@PAX@2@XZ 004750b0 f i DeanLib:MemoryTracker.obj
 0002:0004b110       ?_Lrotate@?$_Tree@V?$_Tmap_traits@PAXUAllocationRecord@@U?$less@PAX@std@@V?$allocator@U?$pair@QAXUAllocationRecord@@@std@@@3@$0A@@std@@@std@@IAEXPAU?$_Tree_node@U?$pair@QAXUAllocationRecord@@@std@@PAX@2@@Z 00475110 f i DeanLib:MemoryTracker.obj
 0002:0004b2c0       ?_Max@?$_Tree_comp_alloc@V?$_Tmap_traits@PAXUAllocationRecord@@U?$less@PAX@std@@V?$allocator@U?$pair@QAXUAllocationRecord@@@std@@@3@$0A@@std@@@std@@SAPAU?$_Tree_node@U?$pair@QAXUAllocationRecord@@@std@@PAX@2@PAU32@@Z 004752c0 f i DeanLib:MemoryTracker.obj
 0002:0004b310       ?_Max@?$_Tree_val@U?$_Tree_simple_types@U?$pair@QAXUAllocationRecord@@@std@@@std@@@std@@SAPAU?$_Tree_node@U?$pair@QAXUAllocationRecord@@@std@@PAX@2@PAU32@@Z 00475310 f i DeanLib:MemoryTracker.obj
 0002:0004b390       ?_Min@?$_Tree_comp_alloc@V?$_Tmap_traits@PAXUAllocationRecord@@U?$less@PAX@std@@V?$allocator@U?$pair@QAXUAllocationRecord@@@std@@@3@$0A@@std@@@std@@SAPAU?$_Tree_node@U?$pair@QAXUAllocationRecord@@@std@@PAX@2@PAU32@@Z 00475390 f i DeanLib:MemoryTracker.obj
 0002:0004b3e0       ?_Min@?$_Tree_val@U?$_Tree_simple_types@U?$pair@QAXUAllocationRecord@@@std@@@std@@@std@@SAPAU?$_Tree_node@U?$pair@QAXUAllocationRecord@@@std@@PAX@2@PAU32@@Z 004753e0 f i DeanLib:MemoryTracker.obj
 0002:0004b460       ?_Myhead@?$_Tree_comp_alloc@V?$_Tmap_traits@PAXUAllocationRecord@@U?$less@PAX@std@@V?$allocator@U?$pair@QAXUAllocationRecord@@@std@@@3@$0A@@std@@@std@@QAEAAPAU?$_Tree_node@U?$pair@QAXUAllocationRecord@@@std@@PAX@2@XZ 00475460 f i DeanLib:MemoryTracker.obj
 0002:0004b4c0       ?_Myhead@?$_Tree_comp_alloc@V?$_Tmap_traits@PAXUAllocationRecord@@U?$less@PAX@std@@V?$allocator@U?$pair@QAXUAllocationRecord@@@std@@@3@$0A@@std@@@std@@QBEABQAU?$_Tree_node@U?$pair@QAXUAllocationRecord@@@std@@PAX@2@XZ 004754c0 f i DeanLib:MemoryTracker.obj
 0002:0004b520       ?_Mynode@?$_Tree_unchecked_const_iterator@V?$_Tree_val@U?$_Tree_simple_types@U?$pair@QAXUAllocationRecord@@@std@@@std@@@std@@U_Iterator_base12@2@@std@@QBEPAU?$_Tree_node@U?$pair@QAXUAllocationRecord@@@std@@PAX@2@XZ 00475520 f i DeanLib:MemoryTracker.obj
 0002:0004b560       ?_Myproxy@?$_Tree_comp_alloc@V?$_Tmap_traits@PAXUAllocationRecord@@U?$less@PAX@std@@V?$allocator@U?$pair@QAXUAllocationRecord@@@std@@@3@$0A@@std@@@std@@QAEAAPAU_Container_proxy@2@XZ 00475560 f i DeanLib:MemoryTracker.obj
 0002:0004b5b0       ?_Mysize@?$_Tree_comp_alloc@V?$_Tmap_traits@PAXUAllocationRecord@@U?$less@PAX@std@@V?$allocator@U?$pair@QAXUAllocationRecord@@@std@@@3@$0A@@std@@@std@@QAEAAIXZ 004755b0 f i DeanLib:MemoryTracker.obj
 0002:0004b610       ?_Myval@?$_Tree_comp_alloc@V?$_Tmap_traits@PAXUAllocationRecord@@U?$less@PAX@std@@V?$allocator@U?$pair@QAXUAllocationRecord@@@std@@@3@$0A@@std@@@std@@SAAAU?$pair@QAXUAllocationRecord@@@2@PAU?$_Tree_node@U?$pair@QAXUAllocationRecord@@@std@@PAX@2@@Z 00475610 f i DeanLib:MemoryTracker.obj
 0002:0004b660       ?_Myval@?$_Tree_val@U?$_Tree_simple_types@U?$pair@QAXUAllocationRecord@@@std@@@std@@@std@@SAAAU?$pair@QAXUAllocationRecord@@@2@PAU?$_Tree_node@U?$pair@QAXUAllocationRecord@@@std@@PAX@2@@Z 00475660 f i DeanLib:MemoryTracker.obj
 0002:0004b6a0       ?_Orphan_all@?$_Tree_comp_alloc@V?$_Tmap_traits@PAXUAllocationRecord@@U?$less@PAX@std@@V?$allocator@U?$pair@QAXUAllocationRecord@@@std@@@3@$0A@@std@@@std@@QAEXXZ 004756a0 f i DeanLib:MemoryTracker.obj
 0002:0004b700       ?_Orphan_ptr@?$_Tree@V?$_Tmap_traits@PAXUAllocationRecord@@U?$less@PAX@std@@V?$allocator@U?$pair@QAXUAllocationRecord@@@std@@@3@$0A@@std@@@std@@IAEXPAU?$_Tree_node@U?$pair@QAXUAllocationRecord@@@std@@PAX@2@@Z 00475700 f i DeanLib:MemoryTracker.obj
 0002:0004b890       ?_Parent@?$_Tree_comp_alloc@V?$_Tmap_traits@PAXUAllocationRecord@@U?$less@PAX@std@@V?$allocator@U?$pair@QAXUAllocationRecord@@@std@@@3@$0A@@std@@@std@@SAAAPAU?$_Tree_node@U?$pair@QAXUAllocationRecord@@@std@@PAX@2@PAU32@@Z 00475890 f i DeanLib:MemoryTracker.obj
 0002:0004b8e0       ?_Parent@?$_Tree_val@U?$_Tree_simple_types@U?$pair@QAXUAllocationRecord@@@std@@@std@@@std@@SAAAPAU?$_Tree_node@U?$pair@QAXUAllocationRecord@@@std@@PAX@2@PAU32@@Z 004758e0 f i DeanLib:MemoryTracker.obj
 0002:0004b920       ?_Right@?$_Tree_comp_alloc@V?$_Tmap_traits@PAXUAllocationRecord@@U?$less@PAX@std@@V?$allocator@U?$pair@QAXUAllocationRecord@@@std@@@3@$0A@@std@@@std@@SAAAPAU?$_Tree_node@U?$pair@QAXUAllocationRecord@@@std@@PAX@2@PAU32@@Z 00475920 f i DeanLib:MemoryTracker.obj
 0002:0004b970       ?_Right@?$_Tree_val@U?$_Tree_simple_types@U?$pair@QAXUAllocationRecord@@@std@@@std@@@std@@SAAAPAU?$_Tree_node@U?$pair@QAXUAllocationRecord@@@std@@PAX@2@PAU32@@Z 00475970 f i DeanLib:MemoryTracker.obj
 0002:0004b9b0       ?_Rmost@?$_Tree@V?$_Tmap_traits@PAXUAllocationRecord@@U?$less@PAX@std@@V?$allocator@U?$pair@QAXUAllocationRecord@@@std@@@3@$0A@@std@@@std@@IBEAAPAU?$_Tree_node@U?$pair@QAXUAllocationRecord@@@std@@PAX@2@XZ 004759b0 f i DeanLib:MemoryTracker.obj
 0002:0004ba10       ?_Root@?$_Tree@V?$_Tmap_traits@PAXUAllocationRecord@@U?$less@PAX@std@@V?$allocator@U?$pair@QAXUAllocationRecord@@@std@@@3@$0A@@std@@@std@@IBEAAPAU?$_Tree_node@U?$pair@QAXUAllocationRecord@@@std@@PAX@2@XZ 00475a10 f i DeanLib:MemoryTracker.obj
 0002:0004ba70       ?_Rrotate@?$_Tree@V?$_Tmap_traits@PAXUAllocationRecord@@U?$less@PAX@std@@V?$allocator@U?$pair@QAXUAllocationRecord@@@std@@@3@$0A@@std@@@std@@IAEXPAU?$_Tree_node@U?$pair@QAXUAllocationRecord@@@std@@PAX@2@@Z 00475a70 f i DeanLib:MemoryTracker.obj
 0002:0004bc20       ?_Tidy@?$_Tree@V?$_Tmap_traits@PAXUAllocationRecord@@U?$less@PAX@std@@V?$allocator@U?$pair@QAXUAllocationRecord@@@std@@@3@$0A@@std@@@std@@IAEXXZ 00475c20 f i DeanLib:MemoryTracker.obj
 0002:0004bdb0       ?__autoclassinit2@?$_Tree_const_iterator@V?$_Tree_val@U?$_Tree_simple_types@U?$pair@QAXUAllocationRecord@@@std@@@std@@@std@@@std@@QAEXI@Z 00475db0 f i DeanLib:MemoryTracker.obj
 0002:0004be10       ?__autoclassinit2@?$_Tree_iterator@V?$_Tree_val@U?$_Tree_simple_types@U?$pair@QAXUAllocationRecord@@@std@@@std@@@std@@@std@@QAEXI@Z 00475e10 f i DeanLib:MemoryTracker.obj
 0002:0004be70       ?__autoclassinit2@MemoryTracker@@QAEXI@Z 00475e70 f i DeanLib:MemoryTracker.obj
 0002:0004bed0       ?addAllocation@MemoryTracker@@QAEXPAXI@Z 00475ed0 f   DeanLib:MemoryTracker.obj
 0002:0004c0d0       ?allocate@?$_Wrap_alloc@V?$allocator@U?$_Tree_node@U?$pair@QAXUAllocationRecord@@@std@@PAX@std@@@std@@@std@@QAEPAU?$_Tree_node@U?$pair@QAXUAllocationRecord@@@std@@PAX@2@I@Z 004760d0 f i DeanLib:MemoryTracker.obj
 0002:0004c130       ?allocate@?$allocator@U?$_Tree_node@U?$pair@QAXUAllocationRecord@@@std@@PAX@std@@@std@@QAEPAU?$_Tree_node@U?$pair@QAXUAllocationRecord@@@std@@PAX@2@I@Z 00476130 f i DeanLib:MemoryTracker.obj
 0002:0004c190       ?begin@?$_Tree@V?$_Tmap_traits@PAXUAllocationRecord@@U?$less@PAX@std@@V?$allocator@U?$pair@QAXUAllocationRecord@@@std@@@3@$0A@@std@@@std@@QAE?AV?$_Tree_iterator@V?$_Tree_val@U?$_Tree_simple_types@U?$pair@QAXUAllocationRecord@@@std@@@std@@@std@@@2@XZ 00476190 f i DeanLib:MemoryTracker.obj
 0002:0004c240       ?clear@?$_Tree@V?$_Tmap_traits@PAXUAllocationRecord@@U?$less@PAX@std@@V?$allocator@U?$pair@QAXUAllocationRecord@@@std@@@3@$0A@@std@@@std@@QAEXXZ 00476240 f i DeanLib:MemoryTracker.obj
 0002:0004c350       ?deallocate@?$_Wrap_alloc@V?$allocator@U?$_Tree_node@U?$pair@QAXUAllocationRecord@@@std@@PAX@std@@@std@@@std@@QAEXPAU?$_Tree_node@U?$pair@QAXUAllocationRecord@@@std@@PAX@2@I@Z 00476350 f i DeanLib:MemoryTracker.obj
 0002:0004c3b0       ?deallocate@?$allocator@U?$_Tree_node@U?$pair@QAXUAllocationRecord@@@std@@PAX@std@@@std@@QAEXPAU?$_Tree_node@U?$pair@QAXUAllocationRecord@@@std@@PAX@2@I@Z 004763b0 f i DeanLib:MemoryTracker.obj
 0002:0004c410       ?end@?$_Tree@V?$_Tmap_traits@PAXUAllocationRecord@@U?$less@PAX@std@@V?$allocator@U?$pair@QAXUAllocationRecord@@@std@@@3@$0A@@std@@@std@@QAE?AV?$_Tree_iterator@V?$_Tree_val@U?$_Tree_simple_types@U?$pair@QAXUAllocationRecord@@@std@@@std@@@std@@@2@XZ 00476410 f i DeanLib:MemoryTracker.obj
 0002:0004c4c0       ?erase@?$_Tree@V?$_Tmap_traits@PAXUAllocationRecord@@U?$less@PAX@std@@V?$allocator@U?$pair@QAXUAllocationRecord@@@std@@@3@$0A@@std@@@std@@QAE?AV?$_Tree_iterator@V?$_Tree_val@U?$_Tree_simple_types@U?$pair@QAXUAllocationRecord@@@std@@@std@@@std@@@2@V?$_Tree_const_iterator@V?$_Tree_val@U?$_Tree_simple_types@U?$pair@QAXUAllocationRecord@@@std@@@std@@@std@@@2@0@Z 004764c0 f i DeanLib:MemoryTracker.obj
 0002:0004c7e0       ?erase@?$_Tree@V?$_Tmap_traits@PAXUAllocationRecord@@U?$less@PAX@std@@V?$allocator@U?$pair@QAXUAllocationRecord@@@std@@@3@$0A@@std@@@std@@QAE?AV?$_Tree_iterator@V?$_Tree_val@U?$_Tree_simple_types@U?$pair@QAXUAllocationRecord@@@std@@@std@@@std@@@2@V?$_Tree_const_iterator@V?$_Tree_val@U?$_Tree_simple_types@U?$pair@QAXUAllocationRecord@@@std@@@std@@@std@@@2@@Z 004767e0 f i DeanLib:MemoryTracker.obj
 0002:0004d270       ?find@?$_Tree@V?$_Tmap_traits@PAXUAllocationRecord@@U?$less@PAX@std@@V?$allocator@U?$pair@QAXUAllocationRecord@@@std@@@3@$0A@@std@@@std@@QAE?AV?$_Tree_iterator@V?$_Tree_val@U?$_Tree_simple_types@U?$pair@QAXUAllocationRecord@@@std@@@std@@@std@@@2@ABQAX@Z 00477270 f i DeanLib:MemoryTracker.obj
 0002:0004d590       ?lower_bound@?$_Tree@V?$_Tmap_traits@PAXUAllocationRecord@@U?$less@PAX@std@@V?$allocator@U?$pair@QAXUAllocationRecord@@@std@@@3@$0A@@std@@@std@@QAE?AV?$_Tree_iterator@V?$_Tree_val@U?$_Tree_simple_types@U?$pair@QAXUAllocationRecord@@@std@@@std@@@std@@@2@ABQAX@Z 00477590 f i DeanLib:MemoryTracker.obj
 0002:0004d620       ?max_size@?$_Tree@V?$_Tmap_traits@PAXUAllocationRecord@@U?$less@PAX@std@@V?$allocator@U?$pair@QAXUAllocationRecord@@@std@@@3@$0A@@std@@@std@@QBEIXZ 00477620 f i DeanLib:MemoryTracker.obj
 0002:0004d690       ?max_size@?$_Wrap_alloc@V?$allocator@U?$_Tree_node@U?$pair@QAXUAllocationRecord@@@std@@PAX@std@@@std@@@std@@QBEIU_Nil@2@@Z 00477690 f i DeanLib:MemoryTracker.obj
 0002:0004d6f0       ?max_size@?$allocator@U?$_Tree_node@U?$pair@QAXUAllocationRecord@@@std@@PAX@std@@@std@@QBEIXZ 004776f0 f i DeanLib:MemoryTracker.obj
 0002:0004d730       ?max_size@?$allocator_traits@V?$allocator@U?$_Tree_node@U?$pair@QAXUAllocationRecord@@@std@@PAX@std@@@std@@@std@@SAIABV?$allocator@U?$_Tree_node@U?$pair@QAXUAllocationRecord@@@std@@PAX@std@@@2@@Z 00477730 f i DeanLib:MemoryTracker.obj
 0002:0004d780       ?pointer_to@?$pointer_traits@PAU?$pair@QAXUAllocationRecord@@@std@@@std@@SAPAU?$pair@QAXUAllocationRecord@@@2@AAU32@@Z 00477780 f i DeanLib:MemoryTracker.obj
 0002:0004d7d0       ?removeAllocation@MemoryTracker@@QAEXPAX@Z 004777d0 f   DeanLib:MemoryTracker.obj
 0002:0004d990       ?reportAllocations@MemoryTracker@@QAEXAAV?$basic_ostream@DU?$char_traits@D@std@@@std@@@Z 00477990 f   DeanLib:MemoryTracker.obj
 0002:0004dc40       ??0Vector2D@@QAE@ABV0@@Z   00477c40 f   DeanLib:Vector2D.obj
 0002:0004dca0       ??0Vector2D@@QAE@MM@Z      00477ca0 f   DeanLib:Vector2D.obj
 0002:0004dd00       ??1Vector2D@@QAE@XZ        00477d00 f   DeanLib:Vector2D.obj
 0002:0004dd40       ??4Vector2D@@QAEAAV0@ABV0@@Z 00477d40 f   DeanLib:Vector2D.obj
 0002:0004dda0       ??8Vector2D@@QAE_NABV0@@Z  00477da0 f   DeanLib:Vector2D.obj
 0002:0004dea0       ??9Vector2D@@QAE_NABV0@@Z  00477ea0 f   DeanLib:Vector2D.obj
 0002:0004dfa0       ??DVector2D@@QBE?BV0@M@Z   00477fa0 f   DeanLib:Vector2D.obj
 0002:0004e0f0       ??GVector2D@@QBE?BV0@ABV0@@Z 004780f0 f   DeanLib:Vector2D.obj
 0002:0004e220       ??HVector2D@@QBE?BV0@ABV0@@Z 00478220 f   DeanLib:Vector2D.obj
 0002:0004e350       ??XVector2D@@QAEAAV0@M@Z   00478350 f   DeanLib:Vector2D.obj
 0002:0004e3c0       ??YVector2D@@QAEAAV0@ABV0@@Z 004783c0 f   DeanLib:Vector2D.obj
 0002:0004e440       ??ZVector2D@@QAEAAV0@ABV0@@Z 00478440 f   DeanLib:Vector2D.obj
 0002:0004e4c0       ??_0Vector2D@@QAEAAV0@M@Z  004784c0 f   DeanLib:Vector2D.obj
 0002:0004e530       ?getLength@Vector2D@@QBEMXZ 00478530 f   DeanLib:Vector2D.obj
 0002:0004e5a0       ?getLengthSquared@Vector2D@@QBEMXZ 004785a0 f   DeanLib:Vector2D.obj
 0002:0004e610       ?hasNonZeroLength@Vector2D@@QBE_NXZ 00478610 f   DeanLib:Vector2D.obj
 0002:0004e690       ?normalize@Vector2D@@QAEXXZ 00478690 f   DeanLib:Vector2D.obj
 0002:0004e750       ?sqrt@@YAMM@Z              00478750 f i DeanLib:Vector2D.obj
 0002:0004e7b0       _sqrtf                     004787b0 f i DeanLib:Vector2D.obj
 0002:0004e818       _QueryPerformanceCounter@4 00478818 f   kernel32:KERNEL32.dll
 0002:0004e81e       _QueryPerformanceFrequency@4 0047881e f   kernel32:KERNEL32.dll
 0002:0004e824       _Sleep@4                   00478824 f   kernel32:KERNEL32.dll
 0002:0004e82a       ?uncaught_exception@std@@YA_NXZ 0047882a f   msvcprtd:MSVCP140D.dll
 0002:0004e830       ?good@ios_base@std@@QBE_NXZ 00478830 f   msvcprtd:MSVCP140D.dll
 0002:0004e836       ?flags@ios_base@std@@QBEHXZ 00478836 f   msvcprtd:MSVCP140D.dll
 0002:0004e83c       ?width@ios_base@std@@QBE_JXZ 0047883c f   msvcprtd:MSVCP140D.dll
 0002:0004e842       ?width@ios_base@std@@QAE_J_J@Z 00478842 f   msvcprtd:MSVCP140D.dll
 0002:0004e848       ?sputc@?$basic_streambuf@DU?$char_traits@D@std@@@std@@QAEHD@Z 00478848 f   msvcprtd:MSVCP140D.dll
 0002:0004e84e       ?sputn@?$basic_streambuf@DU?$char_traits@D@std@@@std@@QAE_JPBD_J@Z 0047884e f   msvcprtd:MSVCP140D.dll
 0002:0004e854       ?setstate@?$basic_ios@DU?$char_traits@D@std@@@std@@QAEXH_N@Z 00478854 f   msvcprtd:MSVCP140D.dll
 0002:0004e85a       ?tie@?$basic_ios@DU?$char_traits@D@std@@@std@@QBEPAV?$basic_ostream@DU?$char_traits@D@std@@@2@XZ 0047885a f   msvcprtd:MSVCP140D.dll
 0002:0004e860       ?rdbuf@?$basic_ios@DU?$char_traits@D@std@@@std@@QBEPAV?$basic_streambuf@DU?$char_traits@D@std@@@2@XZ 00478860 f   msvcprtd:MSVCP140D.dll
 0002:0004e866       ?fill@?$basic_ios@DU?$char_traits@D@std@@@std@@QBEDXZ 00478866 f   msvcprtd:MSVCP140D.dll
 0002:0004e86c       ?widen@?$basic_ios@DU?$char_traits@D@std@@@std@@QBEDD@Z 0047886c f   msvcprtd:MSVCP140D.dll
 0002:0004e872       ?_Osfx@?$basic_ostream@DU?$char_traits@D@std@@@std@@QAEXXZ 00478872 f   msvcprtd:MSVCP140D.dll
 0002:0004e878       ??6?$basic_ostream@DU?$char_traits@D@std@@@std@@QAEAAV01@P6AAAV01@AAV01@@Z@Z 00478878 f   msvcprtd:MSVCP140D.dll
 0002:0004e87e       ??6?$basic_ostream@DU?$char_traits@D@std@@@std@@QAEAAV01@H@Z 0047887e f   msvcprtd:MSVCP140D.dll
 0002:0004e884       ?put@?$basic_ostream@DU?$char_traits@D@std@@@std@@QAEAAV12@D@Z 00478884 f   msvcprtd:MSVCP140D.dll
 0002:0004e88a       ?flush@?$basic_ostream@DU?$char_traits@D@std@@@std@@QAEAAV12@XZ 0047888a f   msvcprtd:MSVCP140D.dll
 0002:0004e890       ??0_Lockit@std@@QAE@H@Z    00478890 f   msvcprtd:MSVCP140D.dll
 0002:0004e896       ??1_Lockit@std@@QAE@XZ     00478896 f   msvcprtd:MSVCP140D.dll
 0002:0004e89c       ?_Debug_message@std@@YAXPB_W0I@Z 0047889c f   msvcprtd:MSVCP140D.dll
 0002:0004e8a2       ?_Xbad_alloc@std@@YAXXZ    004788a2 f   msvcprtd:MSVCP140D.dll
 0002:0004e8a8       ?_Xlength_error@std@@YAXPBD@Z 004788a8 f   msvcprtd:MSVCP140D.dll
 0002:0004e8ae       ?_Xout_of_range@std@@YAXPBD@Z 004788ae f   msvcprtd:MSVCP140D.dll
 0002:0004e8c0       ??0_Fac_node@std@@QAE@PAU01@PAV_Facet_base@1@@Z 004788c0 f i msvcprtd:locale0_implib.obj
 0002:0004e8f0       ??1_Fac_node@std@@QAE@XZ   004788f0 f i msvcprtd:locale0_implib.obj
 0002:0004e9b0       ??1_Fac_tidy_reg_t@std@@QAE@XZ 004789b0 f i msvcprtd:locale0_implib.obj
 0002:0004ea20       ??2_Fac_node@std@@SAPAXI@Z 00478a20 f i msvcprtd:locale0_implib.obj
 0002:0004ea80       ??3_Fac_node@std@@SAXPAX@Z 00478a80 f i msvcprtd:locale0_implib.obj
 0002:0004eaa0       ??_G_Fac_node@std@@QAEPAXI@Z 00478aa0 f i msvcprtd:locale0_implib.obj
 0002:0004eb00       ?_Facet_Register@std@@YAXPAV_Facet_base@1@@Z 00478b00 f   msvcprtd:locale0_implib.obj
 0002:0004eba2       ??Bid@locale@std@@QAEIXZ   00478ba2 f   msvcprtd:MSVCP140D.dll
 0002:0004eba8       ?_Getgloballocale@locale@std@@CAPAV_Locimp@12@XZ 00478ba8 f   msvcprtd:MSVCP140D.dll
 0002:0004ebae       ?always_noconv@codecvt_base@std@@QBE_NXZ 00478bae f   msvcprtd:MSVCP140D.dll
 0002:0004ebb4       ?in@?$codecvt@DDU_Mbstatet@@@std@@QBEHAAU_Mbstatet@@PBD1AAPBDPAD3AAPAD@Z 00478bb4 f   msvcprtd:MSVCP140D.dll
 0002:0004ebba       ?out@?$codecvt@DDU_Mbstatet@@@std@@QBEHAAU_Mbstatet@@PBD1AAPBDPAD3AAPAD@Z 00478bba f   msvcprtd:MSVCP140D.dll
 0002:0004ebc0       ?unshift@?$codecvt@DDU_Mbstatet@@@std@@QBEHAAU_Mbstatet@@PAD1AAPAD@Z 00478bc0 f   msvcprtd:MSVCP140D.dll
 0002:0004ebc6       ?_Getcat@?$codecvt@DDU_Mbstatet@@@std@@SAIPAPBVfacet@locale@2@PBV42@@Z 00478bc6 f   msvcprtd:MSVCP140D.dll
 0002:0004ebcc       ??0?$basic_streambuf@DU?$char_traits@D@std@@@std@@IAE@XZ 00478bcc f   msvcprtd:MSVCP140D.dll
 0002:0004ebd2       ??1?$basic_streambuf@DU?$char_traits@D@std@@@std@@UAE@XZ 00478bd2 f   msvcprtd:MSVCP140D.dll
 0002:0004ebd8       ?getloc@?$basic_streambuf@DU?$char_traits@D@std@@@std@@QBE?AVlocale@2@XZ 00478bd8 f   msvcprtd:MSVCP140D.dll
 0002:0004ebde       ?eback@?$basic_streambuf@DU?$char_traits@D@std@@@std@@IBEPADXZ 00478bde f   msvcprtd:MSVCP140D.dll
 0002:0004ebe4       ?gptr@?$basic_streambuf@DU?$char_traits@D@std@@@std@@IBEPADXZ 00478be4 f   msvcprtd:MSVCP140D.dll
 0002:0004ebea       ?pptr@?$basic_streambuf@DU?$char_traits@D@std@@@std@@IBEPADXZ 00478bea f   msvcprtd:MSVCP140D.dll
 0002:0004ebf0       ?egptr@?$basic_streambuf@DU?$char_traits@D@std@@@std@@IBEPADXZ 00478bf0 f   msvcprtd:MSVCP140D.dll
 0002:0004ebf6       ?setg@?$basic_streambuf@DU?$char_traits@D@std@@@std@@IAEXPAD00@Z 00478bf6 f   msvcprtd:MSVCP140D.dll
 0002:0004ebfc       ?epptr@?$basic_streambuf@DU?$char_traits@D@std@@@std@@IBEPADXZ 00478bfc f   msvcprtd:MSVCP140D.dll
 0002:0004ec02       ?_Gndec@?$basic_streambuf@DU?$char_traits@D@std@@@std@@IAEPADXZ 00478c02 f   msvcprtd:MSVCP140D.dll
 0002:0004ec08       ?_Gninc@?$basic_streambuf@DU?$char_traits@D@std@@@std@@IAEPADXZ 00478c08 f   msvcprtd:MSVCP140D.dll
 0002:0004ec0e       ?_Pninc@?$basic_streambuf@DU?$char_traits@D@std@@@std@@IAEPADXZ 00478c0e f   msvcprtd:MSVCP140D.dll
 0002:0004ec14       ?_Init@?$basic_streambuf@DU?$char_traits@D@std@@@std@@IAEXXZ 00478c14 f   msvcprtd:MSVCP140D.dll
 0002:0004ec1a       ?_Init@?$basic_streambuf@DU?$char_traits@D@std@@@std@@IAEXPAPAD0PAH001@Z 00478c1a f   msvcprtd:MSVCP140D.dll
 0002:0004ec20       ??1?$basic_ios@DU?$char_traits@D@std@@@std@@UAE@XZ 00478c20 f   msvcprtd:MSVCP140D.dll
 0002:0004ec26       ??0?$basic_ios@DU?$char_traits@D@std@@@std@@IAE@XZ 00478c26 f   msvcprtd:MSVCP140D.dll
 0002:0004ec2c       ??0?$basic_istream@DU?$char_traits@D@std@@@std@@QAE@PAV?$basic_streambuf@DU?$char_traits@D@std@@@1@_N@Z 00478c2c f   msvcprtd:MSVCP140D.dll
 0002:0004ec32       ??1?$basic_istream@DU?$char_traits@D@std@@@std@@UAE@XZ 00478c32 f   msvcprtd:MSVCP140D.dll
 0002:0004ec38       ?_Fiopen@std@@YAPAU_iobuf@@PBDHH@Z 00478c38 f   msvcprtd:MSVCP140D.dll
 0002:0004ec3e       ?showmanyc@?$basic_streambuf@DU?$char_traits@D@std@@@std@@MAE_JXZ 00478c3e f   msvcprtd:MSVCP140D.dll
 0002:0004ec44       ?xsgetn@?$basic_streambuf@DU?$char_traits@D@std@@@std@@MAE_JPAD_J@Z 00478c44 f   msvcprtd:MSVCP140D.dll
 0002:0004ec4a       ?xsputn@?$basic_streambuf@DU?$char_traits@D@std@@@std@@MAE_JPBD_J@Z 00478c4a f   msvcprtd:MSVCP140D.dll
 0002:0004ec50       ??0?$basic_ostream@DU?$char_traits@D@std@@@std@@QAE@PAV?$basic_streambuf@DU?$char_traits@D@std@@@1@_N@Z 00478c50 f   msvcprtd:MSVCP140D.dll
 0002:0004ec56       ??1?$basic_ostream@DU?$char_traits@D@std@@@std@@UAE@XZ 00478c56 f   msvcprtd:MSVCP140D.dll
 0002:0004ec5c       ??5?$basic_istream@DU?$char_traits@D@std@@@std@@QAEAAV01@AAH@Z 00478c5c f   msvcprtd:MSVCP140D.dll
 0002:0004ec62       ??6?$basic_ostream@DU?$char_traits@D@std@@@std@@QAEAAV01@I@Z 00478c62 f   msvcprtd:MSVCP140D.dll
 0002:0004ec68       ??6?$basic_ostream@DU?$char_traits@D@std@@@std@@QAEAAV01@PBX@Z 00478c68 f   msvcprtd:MSVCP140D.dll
 0002:0004ec70       @_RTC_AllocaHelper@12      00478c70 f   MSVCRTD:_stack_.obj
 0002:0004ecb0       @_RTC_CheckStackVars2@12   00478cb0 f   MSVCRTD:_stack_.obj
 0002:0004edc0       @_RTC_CheckStackVars@8     00478dc0 f   MSVCRTD:_stack_.obj
 0002:0004ee30       __RTC_CheckEsp             00478e30 f   MSVCRTD:_stack_.obj
 0002:0004ee70       __CRT_RTC_INIT             00478e70 f   MSVCRTD:_init_.obj
 0002:0004ee80       __CRT_RTC_INITW            00478e80 f   MSVCRTD:_init_.obj
 0002:0004ee90       __RTC_InitBase             00478e90 f   MSVCRTD:_init_.obj
 0002:0004eed0       __RTC_Shutdown             00478ed0 f   MSVCRTD:_init_.obj
 0002:0004eef0       ??1type_info@@UAE@XZ       00478ef0 f   MSVCRTD:std_type_info_static.obj
 0002:0004ef10       ??_Etype_info@@UAEPAXI@Z   00478f10 f i MSVCRTD:std_type_info_static.obj
 0002:0004ef10       ??_Gtype_info@@UAEPAXI@Z   00478f10 f i MSVCRTD:std_type_info_static.obj
 0002:0004ef50       @__security_check_cookie@4 00478f50 f   MSVCRTD:_secchk_.obj
 0002:0004ef70       ??2@YAPAXI@Z               00478f70 f   MSVCRTD:new_scalar.obj
 0002:0004efd0       ??3@YAXPAX@Z               00478fd0 f   MSVCRTD:delete_scalar.obj
 0002:0004eff0       ??3@YAXPAXI@Z              00478ff0 f   MSVCRTD:delete_scalar_size.obj
 0002:0004f010       ??$__crt_fast_decode_pointer@PAP6AXXZ@@YAPAP6AXXZQAP6AXXZ@Z 00479010 f i MSVCRTD:utility.obj
 0002:0004f040       ??$__crt_fast_encode_pointer@PAP6AXXZ@@YAPAP6AXXZQAP6AXXZ@Z 00479040 f i MSVCRTD:utility.obj
 0002:0004f080       ?__crt_rotate_pointer_value@@YAIIH@Z 00479080 f i MSVCRTD:utility.obj
 0002:0004f090       ?configure_argv@__scrt_narrow_argv_policy@@SAHXZ 00479090 f i MSVCRTD:utility.obj
 0002:0004f1f0       _NtCurrentTeb              004791f0 f i MSVCRTD:utility.obj
 0002:0004f200       ___scrt_acquire_startup_lock 00479200 f   MSVCRTD:utility.obj
 0002:0004f260       ___scrt_dllmain_after_initialize_c 00479260 f   MSVCRTD:utility.obj
 0002:0004f2a0       ___scrt_dllmain_before_initialize_c 004792a0 f   MSVCRTD:utility.obj
 0002:0004f2d0       ___scrt_dllmain_crt_thread_attach 004792d0 f   MSVCRTD:utility.obj
 0002:0004f310       ___scrt_dllmain_crt_thread_detach 00479310 f   MSVCRTD:utility.obj
 0002:0004f330       ___scrt_dllmain_exception_filter 00479330 f   MSVCRTD:utility.obj
 0002:0004f390       ___scrt_dllmain_uninitialize_c 00479390 f   MSVCRTD:utility.obj
 0002:0004f3d0       ___scrt_dllmain_uninitialize_critical 004793d0 f   MSVCRTD:utility.obj
 0002:0004f3f0       ___scrt_initialize_crt     004793f0 f   MSVCRTD:utility.obj
 0002:0004f450       ___scrt_initialize_onexit_tables 00479450 f   MSVCRTD:utility.obj
 0002:0004f550       ___scrt_is_nonwritable_in_current_image 00479550 f   MSVCRTD:utility.obj
 0002:0004f6d0       ___scrt_release_startup_lock 004796d0 f   MSVCRTD:utility.obj
 0002:0004f700       ___scrt_uninitialize_crt   00479700 f   MSVCRTD:utility.obj
 0002:0004f750       __onexit                   00479750 f   MSVCRTD:utility.obj
 0002:0004f7e0       _at_quick_exit             004797e0 f   MSVCRTD:utility.obj
 0002:0004f840       _atexit                    00479840 f   MSVCRTD:utility.obj
 0002:0004fc50       ?get_app_type@__scrt_main_policy@@SA?AW4_crt_app_type@@XZ 00479c50 f i MSVCRTD:exe_main.obj
 0002:0004fca0       _mainCRTStartup            00479ca0 f   MSVCRTD:exe_main.obj
 0002:0004fcb0       ??_U@YAPAXI@Z              00479cb0 f   MSVCRTD:new_array.obj
 0002:0004fcd0       ??_V@YAXPAX@Z              00479cd0 f   MSVCRTD:delete_array.obj
 0002:0004fcf0       __ftoui3                   00479cf0 f   MSVCRTD:_ftol3_.obj
 0002:0004fcff       __ftoul3                   00479cff f   MSVCRTD:_ftol3_.obj
 0002:0004fd0e       __ftol3                    00479d0e f   MSVCRTD:_ftol3_.obj
 0002:0004fd1b       __ftol3_NaN                00479d1b f   MSVCRTD:_ftol3_.obj
 0002:0004fd33       __ftol3_work               00479d33 f   MSVCRTD:_ftol3_.obj
 0002:0004fdb9       __ftol3_common             00479db9 f   MSVCRTD:_ftol3_.obj
 0002:0004fe7b       __ftol3_arg_error          00479e7b f   MSVCRTD:_ftol3_.obj
 0002:0004fe8d       __ftol3_except             00479e8d f   MSVCRTD:_ftol3_.obj
 0002:0004fed1       __dtoui3                   00479ed1 f   MSVCRTD:_ftol3_.obj
 0002:0004fee0       __dtoul3                   00479ee0 f   MSVCRTD:_ftol3_.obj
 0002:0004feef       __dtol3                    00479eef f   MSVCRTD:_ftol3_.obj
 0002:0004fefc       __dtol3_NaN                00479efc f   MSVCRTD:_ftol3_.obj
 0002:0004ff19       __dtol3_work               00479f19 f   MSVCRTD:_ftol3_.obj
 0002:00050000       __ultod3                   0047a000 f   MSVCRTD:_ftol3_.obj
 0002:00050040       __ltod3                    0047a040 f   MSVCRTD:_ftol3_.obj
 0002:00050150       @_guard_check_icall@4      0047a150 f i MSVCRTD:checkcfg.obj
 0002:00050310       ?_RTC_AllocaFailure@@YAXPAXPAU_RTC_ALLOCA_NODE@@H@Z 0047a310 f   MSVCRTD:_error_.obj
 0002:00050480       ?_RTC_Failure@@YAXPAXH@Z   0047a480 f   MSVCRTD:_error_.obj
 0002:000504f0       ?_RTC_StackFailure@@YAXPAXPBD@Z 0047a4f0 f   MSVCRTD:_error_.obj
 0002:00050970       __RTC_UninitUse            0047a970 f   MSVCRTD:_error_.obj
 0002:00050aa0       __vsprintf_s_l             0047aaa0 f i MSVCRTD:_error_.obj
 0002:00050ae0       _sprintf_s                 0047aae0 f i MSVCRTD:_error_.obj
 0002:00050b10       ?_RTC_GetErrorFunc@@YAP6AHHPBDH00ZZPBX@Z 0047ab10 f   MSVCRTD:_userapi_.obj
 0002:00050b20       ?_RTC_GetErrorFuncW@@YAP6AHHPB_WH00ZZPBX@Z 0047ab20 f   MSVCRTD:_userapi_.obj
 0002:00050b30       __RTC_GetErrDesc           0047ab30 f   MSVCRTD:_userapi_.obj
 0002:00050b50       __RTC_NumErrors            0047ab50 f   MSVCRTD:_userapi_.obj
 0002:00050b60       __RTC_SetErrorFunc         0047ab60 f   MSVCRTD:_userapi_.obj
 0002:00050b90       __RTC_SetErrorFuncW        0047ab90 f   MSVCRTD:_userapi_.obj
 0002:00050bc0       __RTC_SetErrorType         0047abc0 f   MSVCRTD:_userapi_.obj
 0002:00050bf0       ___raise_securityfailure   0047abf0 f   MSVCRTD:gs_report.obj
 0002:00050c30       ___report_gsfailure        0047ac30 f   MSVCRTD:gs_report.obj
 0002:00050d80       ___report_rangecheckfailure 0047ad80 f   MSVCRTD:gs_report.obj
 0002:00050d90       ___report_securityfailure  0047ad90 f   MSVCRTD:gs_report.obj
 0002:00050ea0       ___report_securityfailureEx 0047aea0 f   MSVCRTD:gs_report.obj
 0002:00051010       ??0bad_alloc@std@@AAE@QBD@Z 0047b010 f i MSVCRTD:throw_bad_alloc.obj
 0002:00051040       ??0bad_alloc@std@@QAE@ABV01@@Z 0047b040 f i MSVCRTD:throw_bad_alloc.obj
 0002:00051070       ??0bad_alloc@std@@QAE@XZ   0047b070 f i MSVCRTD:throw_bad_alloc.obj
 0002:000510a0       ??0bad_array_new_length@std@@QAE@ABV01@@Z 0047b0a0 f i MSVCRTD:throw_bad_alloc.obj
 0002:000510d0       ??0bad_array_new_length@std@@QAE@XZ 0047b0d0 f i MSVCRTD:throw_bad_alloc.obj
 0002:00051100       ??1bad_alloc@std@@UAE@XZ   0047b100 f i MSVCRTD:throw_bad_alloc.obj
 0002:00051120       ??1bad_array_new_length@std@@UAE@XZ 0047b120 f i MSVCRTD:throw_bad_alloc.obj
 0002:00051140       ??_Ebad_alloc@std@@UAEPAXI@Z 0047b140 f i MSVCRTD:throw_bad_alloc.obj
 0002:00051140       ??_Gbad_alloc@std@@UAEPAXI@Z 0047b140 f i MSVCRTD:throw_bad_alloc.obj
 0002:00051180       ??_Ebad_array_new_length@std@@UAEPAXI@Z 0047b180 f i MSVCRTD:throw_bad_alloc.obj
 0002:00051180       ??_Gbad_array_new_length@std@@UAEPAXI@Z 0047b180 f i MSVCRTD:throw_bad_alloc.obj
 0002:000511c0       ?__scrt_throw_std_bad_alloc@@YAXXZ 0047b1c0 f   MSVCRTD:throw_bad_alloc.obj
 0002:000511f0       ?__scrt_throw_std_bad_array_new_length@@YAXXZ 0047b1f0 f   MSVCRTD:throw_bad_alloc.obj
 0002:00051220       ___isa_available_init      0047b220 f   MSVCRTD:_cpu_disp_.obj
 0002:000515b0       __get_startup_argv_mode    0047b5b0 f   MSVCRTD:argv_mode.obj
 0002:000515c0       ___scrt_is_ucrt_dll_in_use 0047b5c0 f   MSVCRTD:ucrt_detection.obj
 0002:000515f0       ___scrt_fastfail           0047b5f0 f   MSVCRTD:utility_desktop.obj
 0002:00051780       ___scrt_get_show_window_mode 0047b780 f   MSVCRTD:utility_desktop.obj
 0002:000517d0       ___scrt_initialize_winrt   0047b7d0 f   MSVCRTD:utility_desktop.obj
 0002:000517e0       ___scrt_is_managed_app     0047b7e0 f   MSVCRTD:utility_desktop.obj
 0002:00051890       ___scrt_set_unhandled_exception_filter 0047b890 f   MSVCRTD:utility_desktop.obj
 0002:000518b0       ___scrt_unhandled_exception_filter@4 0047b8b0 f   MSVCRTD:utility_desktop.obj
 0002:00051930       __crt_debugger_hook        0047b930 f   MSVCRTD:utility_desktop.obj
 0002:00051950       __except_handler4          0047b950 f   MSVCRTD:_chandler4gs_.obj
 0002:00051980       ___security_init_cookie    0047b980 f   MSVCRTD:gs_support.obj
 0002:00051aa0       __matherr                  0047baa0 f   MSVCRTD:matherr.obj
 0002:00051ab0       __get_startup_commit_mode  0047bab0 f   MSVCRTD:commit_mode.obj
 0002:00051ac0       __get_startup_file_mode    0047bac0 f   MSVCRTD:file_mode.obj
 0002:00051ad0       __get_startup_new_mode     0047bad0 f   MSVCRTD:new_mode.obj
 0002:00051ae0       __get_startup_thread_locale_mode 0047bae0 f   MSVCRTD:thread_locale.obj
 0002:00051af0       ?__scrt_initialize_type_info@@YAXXZ 0047baf0 f   MSVCRTD:tncleanup.obj
 0002:00051b10       ?__scrt_uninitialize_type_info@@YAXXZ 0047bb10 f   MSVCRTD:tncleanup.obj
 0002:00051b30       __should_initialize_environment 0047bb30 f   MSVCRTD:env_mode.obj
 0002:00051b40       __initialize_default_precision 0047bb40 f   MSVCRTD:default_precision.obj
 0002:00051b70       __initialize_invalid_parameter_handler 0047bb70 f   MSVCRTD:invalid_parameter_handler.obj
 0002:00051b80       __initialize_denormal_control 0047bb80 f   MSVCRTD:denormal_control.obj
 0002:00051b90       ___local_stdio_scanf_options 0047bb90 f i MSVCRTD:default_local_stdio_options.obj
 0002:00051ba0       ___scrt_initialize_default_local_stdio_options 0047bba0 f   MSVCRTD:default_local_stdio_options.obj
 0002:00051bf0       ___scrt_is_user_matherr_present 0047bbf0 f   MSVCRTD:matherr_detection.obj
 0002:00051c20       ___scrt_get_dyn_tls_init_callback 0047bc20 f   MSVCRTD:dyn_tls_init.obj
 0002:00051c30       ___scrt_get_dyn_tls_dtor_callback 0047bc30 f   MSVCRTD:dyn_tls_dtor.obj
 0002:00051c40       __RTC_Initialize           0047bc40 f   MSVCRTD:_initsect_.obj
 0002:00051c80       __RTC_Terminate            0047bc80 f   MSVCRTD:_initsect_.obj
 0002:00051cc0       @_guard_check_icall_nop@4  0047bcc0 f i MSVCRTD:guard_support.obj
 0002:00051cd0       __guard_icall_checks_enforced 0047bcd0 f i MSVCRTD:guard_support.obj
 0002:000522c0       ?_RTC_GetSrcLine@@YAHPAEPA_WKPAH1K@Z 0047c2c0 f   MSVCRTD:_pdblkup_.obj
 0002:000526e6       ___RTDynamicCast           0047c6e6 f   vcruntimed:VCRUNTIME140D.dll
 0002:000526ec       ___CxxFrameHandler3        0047c6ec f   vcruntimed:VCRUNTIME140D.dll
 0002:000526f2       _memcpy                    0047c6f2 f   vcruntimed:VCRUNTIME140D.dll
 0002:000526f8       _memmove                   0047c6f8 f   vcruntimed:VCRUNTIME140D.dll
 0002:000526fe       _memset                    0047c6fe f   vcruntimed:VCRUNTIME140D.dll
 0002:00052704       ___std_exception_copy      0047c704 f   vcruntimed:VCRUNTIME140D.dll
 0002:0005270a       ___std_exception_destroy   0047c70a f   vcruntimed:VCRUNTIME140D.dll
 0002:00052710       __CxxThrowException@8      0047c710 f   vcruntimed:VCRUNTIME140D.dll
 0002:00052716       __purecall                 0047c716 f   vcruntimed:VCRUNTIME140D.dll
 0002:0005271c       _memcmp                    0047c71c f   vcruntimed:VCRUNTIME140D.dll
 0002:00052722       __except_handler4_common   0047c722 f   vcruntimed:VCRUNTIME140D.dll
 0002:00052728       ___std_type_info_destroy_list 0047c728 f   vcruntimed:VCRUNTIME140D.dll
 0002:0005272e       ___vcrt_GetModuleFileNameW 0047c72e f   vcruntimed:VCRUNTIME140D.dll
 0002:00052734       ___vcrt_GetModuleHandleW   0047c734 f   vcruntimed:VCRUNTIME140D.dll
 0002:0005273a       ___vcrt_LoadLibraryExW     0047c73a f   vcruntimed:VCRUNTIME140D.dll
 0002:00052740       _atan                      0047c740 f   ucrtd:ucrtbased.dll
 0002:00052746       _strlen                    0047c746 f   ucrtd:ucrtbased.dll
 0002:0005274c       __invalid_parameter        0047c74c f   ucrtd:ucrtbased.dll
 0002:00052752       __invalid_parameter_noinfo 0047c752 f   ucrtd:ucrtbased.dll
 0002:00052758       __errno                    0047c758 f   ucrtd:ucrtbased.dll
 0002:0005275e       __get_stream_buffer_pointers 0047c75e f   ucrtd:ucrtbased.dll
 0002:00052764       _fclose                    0047c764 f   ucrtd:ucrtbased.dll
 0002:0005276a       _fflush                    0047c76a f   ucrtd:ucrtbased.dll
 0002:00052770       _fgetc                     0047c770 f   ucrtd:ucrtbased.dll
 0002:00052776       _fgetpos                   0047c776 f   ucrtd:ucrtbased.dll
 0002:0005277c       _fputc                     0047c77c f   ucrtd:ucrtbased.dll
 0002:00052782       _fsetpos                   0047c782 f   ucrtd:ucrtbased.dll
 0002:00052788       __fseeki64                 0047c788 f   ucrtd:ucrtbased.dll
 0002:0005278e       _fwrite                    0047c78e f   ucrtd:ucrtbased.dll
 0002:00052794       _setvbuf                   0047c794 f   ucrtd:ucrtbased.dll
 0002:0005279a       _ungetc                    0047c79a f   ucrtd:ucrtbased.dll
 0002:000527a0       __lock_file                0047c7a0 f   ucrtd:ucrtbased.dll
 0002:000527a6       __unlock_file              0047c7a6 f   ucrtd:ucrtbased.dll
 0002:000527ac       __CrtDbgReportW            0047c7ac f   ucrtd:ucrtbased.dll
 0002:000527b2       ___acrt_iob_func           0047c7b2 f   ucrtd:ucrtbased.dll
 0002:000527b8       ___stdio_common_vfprintf   0047c7b8 f   ucrtd:ucrtbased.dll
 0002:000527be       _system                    0047c7be f   ucrtd:ucrtbased.dll
 0002:000527c4       _srand                     0047c7c4 f   ucrtd:ucrtbased.dll
 0002:000527ca       _rand                      0047c7ca f   ucrtd:ucrtbased.dll
 0002:000527d0       __time64                   0047c7d0 f   ucrtd:ucrtbased.dll
 0002:000527d6       __wassert                  0047c7d6 f   ucrtd:ucrtbased.dll
 0002:000527dc       _free                      0047c7dc f   ucrtd:ucrtbased.dll
 0002:000527e2       _malloc                    0047c7e2 f   ucrtd:ucrtbased.dll
 0002:000527e8       _sqrt                      0047c7e8 f   ucrtd:ucrtbased.dll
 0002:000527ee       __free_dbg                 0047c7ee f   ucrtd:ucrtbased.dll
 0002:000527f4       __malloc_dbg               0047c7f4 f   ucrtd:ucrtbased.dll
 0002:000527fa       __CrtDbgReport             0047c7fa f   ucrtd:ucrtbased.dll
 0002:00052800       __callnewh                 0047c800 f   ucrtd:ucrtbased.dll
 0002:00052806       __seh_filter_dll           0047c806 f   ucrtd:ucrtbased.dll
 0002:0005280c       __configure_narrow_argv    0047c80c f   ucrtd:ucrtbased.dll
 0002:00052812       __initialize_narrow_environment 0047c812 f   ucrtd:ucrtbased.dll
 0002:00052818       __initialize_onexit_table  0047c818 f   ucrtd:ucrtbased.dll
 0002:0005281e       __register_onexit_function 0047c81e f   ucrtd:ucrtbased.dll
 0002:00052824       __execute_onexit_table     0047c824 f   ucrtd:ucrtbased.dll
 0002:0005282a       __crt_atexit               0047c82a f   ucrtd:ucrtbased.dll
 0002:00052830       __crt_at_quick_exit        0047c830 f   ucrtd:ucrtbased.dll
 0002:00052836       __cexit                    0047c836 f   ucrtd:ucrtbased.dll
 0002:0005283c       __seh_filter_exe           0047c83c f   ucrtd:ucrtbased.dll
 0002:00052842       __set_app_type             0047c842 f   ucrtd:ucrtbased.dll
 0002:00052848       ___setusermatherr          0047c848 f   ucrtd:ucrtbased.dll
 0002:0005284e       __get_initial_narrow_environment 0047c84e f   ucrtd:ucrtbased.dll
 0002:00052854       __initterm                 0047c854 f   ucrtd:ucrtbased.dll
 0002:0005285a       __initterm_e               0047c85a f   ucrtd:ucrtbased.dll
 0002:00052860       _exit                      0047c860 f   ucrtd:ucrtbased.dll
 0002:00052866       __exit                     0047c866 f   ucrtd:ucrtbased.dll
 0002:0005286c       __set_fmode                0047c86c f   ucrtd:ucrtbased.dll
 0002:00052872       ___p___argc                0047c872 f   ucrtd:ucrtbased.dll
 0002:00052878       ___p___argv                0047c878 f   ucrtd:ucrtbased.dll
 0002:0005287e       __c_exit                   0047c87e f   ucrtd:ucrtbased.dll
 0002:00052884       __register_thread_local_exe_atexit_callback 0047c884 f   ucrtd:ucrtbased.dll
 0002:0005288a       __configthreadlocale       0047c88a f   ucrtd:ucrtbased.dll
 0002:00052890       __set_new_mode             0047c890 f   ucrtd:ucrtbased.dll
 0002:00052896       ___p__commode              0047c896 f   ucrtd:ucrtbased.dll
 0002:0005289c       __except1                  0047c89c f   ucrtd:ucrtbased.dll
 0002:000528a2       ___stdio_common_vsprintf_s 0047c8a2 f   ucrtd:ucrtbased.dll
 0002:000528a8       _terminate                 0047c8a8 f   ucrtd:ucrtbased.dll
 0002:000528ae       __controlfp_s              0047c8ae f   ucrtd:ucrtbased.dll
 0002:000528b4       __wmakepath_s              0047c8b4 f   ucrtd:ucrtbased.dll
 0002:000528ba       __wsplitpath_s             0047c8ba f   ucrtd:ucrtbased.dll
 0002:000528c0       _wcscpy_s                  0047c8c0 f   ucrtd:ucrtbased.dll
 0002:000528c6       _IsDebuggerPresent@0       0047c8c6 f   kernel32:KERNEL32.dll
 0002:000528cc       _RaiseException@16         0047c8cc f   kernel32:KERNEL32.dll
 0002:000528d2       _MultiByteToWideChar@24    0047c8d2 f   kernel32:KERNEL32.dll
 0002:000528d8       _WideCharToMultiByte@32    0047c8d8 f   kernel32:KERNEL32.dll
 0002:000528de       _UnhandledExceptionFilter@4 0047c8de f   kernel32:KERNEL32.dll
 0002:000528e4       _SetUnhandledExceptionFilter@4 0047c8e4 f   kernel32:KERNEL32.dll
 0002:000528ea       _GetCurrentProcess@0       0047c8ea f   kernel32:KERNEL32.dll
 0002:000528f0       _TerminateProcess@8        0047c8f0 f   kernel32:KERNEL32.dll
 0002:000528f6       _IsProcessorFeaturePresent@4 0047c8f6 f   kernel32:KERNEL32.dll
 0002:000528fc       _GetStartupInfoW@4         0047c8fc f   kernel32:KERNEL32.dll
 0002:00052902       _GetModuleHandleW@4        0047c902 f   kernel32:KERNEL32.dll
 0002:00052908       _GetCurrentProcessId@0     0047c908 f   kernel32:KERNEL32.dll
 0002:0005290e       _GetCurrentThreadId@0      0047c90e f   kernel32:KERNEL32.dll
 0002:00052914       _GetSystemTimeAsFileTime@4 0047c914 f   kernel32:KERNEL32.dll
 0002:0005291a       _InitializeSListHead@4     0047c91a f   kernel32:KERNEL32.dll
 0002:00052920       _GetLastError@0            0047c920 f   kernel32:KERNEL32.dll
 0002:00052926       _HeapAlloc@12              0047c926 f   kernel32:KERNEL32.dll
 0002:0005292c       _HeapFree@12               0047c92c f   kernel32:KERNEL32.dll
 0002:00052932       _GetProcessHeap@0          0047c932 f   kernel32:KERNEL32.dll
 0002:00052938       _VirtualQuery@12           0047c938 f   kernel32:KERNEL32.dll
 0002:0005293e       _FreeLibrary@4             0047c93e f   kernel32:KERNEL32.dll
 0002:00052944       _GetProcAddress@8          0047c944 f   kernel32:KERNEL32.dll
 0002:00052950       ___scrt_stub_for_acrt_initialize 0047c950 f   MSVCRTD:ucrt_stubs.obj
 0002:00052950       ___vcrt_initialize         0047c950 f   MSVCRTD:ucrt_stubs.obj
 0002:00052950       ___acrt_initialize         0047c950 f   MSVCRTD:ucrt_stubs.obj
 0002:00052960       ___scrt_stub_for_acrt_thread_attach 0047c960 f   MSVCRTD:ucrt_stubs.obj
 0002:00052960       ___acrt_thread_attach      0047c960 f   MSVCRTD:ucrt_stubs.obj
 0002:00052960       ___vcrt_thread_attach      0047c960 f   MSVCRTD:ucrt_stubs.obj
 0002:00052970       ___acrt_thread_detach      0047c970 f   MSVCRTD:ucrt_stubs.obj
 0002:00052970       ___vcrt_thread_detach      0047c970 f   MSVCRTD:ucrt_stubs.obj
 0002:00052970       ___scrt_stub_for_acrt_thread_detach 0047c970 f   MSVCRTD:ucrt_stubs.obj
 0002:00052980       ___acrt_uninitialize       0047c980 f   MSVCRTD:ucrt_stubs.obj
 0002:00052980       ___scrt_stub_for_acrt_uninitialize 0047c980 f   MSVCRTD:ucrt_stubs.obj
 0002:00052980       ___vcrt_uninitialize       0047c980 f   MSVCRTD:ucrt_stubs.obj
 0002:00052990       ___vcrt_uninitialize_critical 0047c990 f   MSVCRTD:ucrt_stubs.obj
 0002:00052990       ___acrt_uninitialize_critical 0047c990 f   MSVCRTD:ucrt_stubs.obj
 0002:00052990       ___scrt_stub_for_acrt_uninitialize_critical 0047c990 f   MSVCRTD:ucrt_stubs.obj
 0002:000529a0       __is_c_termination_complete 0047c9a0 f   MSVCRTD:ucrt_stubs.obj
 0002:000529a0       ___scrt_stub_for_is_c_termination_complete 0047c9a0 f   MSVCRTD:ucrt_stubs.obj
 0003:00000000       ___xc_a                    00485000     MSVCRTD:initializers.obj
 0003:0000046c       ___xc_z                    0048546c     MSVCRTD:initializers.obj
 0003:00000570       ___xi_a                    00485570     MSVCRTD:initializers.obj
 0003:0000087c       ___xi_z                    0048587c     MSVCRTD:initializers.obj
 0003:00000980       ___xp_a                    00485980     MSVCRTD:initializers.obj
 0003:00000a84       ___xp_z                    00485a84     MSVCRTD:initializers.obj
 0003:00000b88       ___xt_a                    00485b88     MSVCRTD:initializers.obj
 0003:00000c8c       ___xt_z                    00485c8c     MSVCRTD:initializers.obj
 0003:00000d94       ??_7ChangeMapMessage@@6B@  00485d94     ChangeMapMessage.obj
 0003:00000da0       __real@3ff0000000000000    00485da0     ChangeMapMessage.obj
 0003:00000db0       __real@4010000000000000    00485db0     ChangeMapMessage.obj
 0003:00000dc0       ??_7ChangeModeMessage@@6B@ 00485dc0     ChangeModeMessage.obj
 0003:00000dc8       ??_C@_0BD@GFHMDJJG@Edit?5value?5set?5to?5?$AA@ 00485dc8     ChangeModeMessage.obj
 0003:00000de4       ??_7EditGridMessage@@6B@   00485de4     EditGridMessage.obj
 0003:00000e14       ??_7exception@std@@6B@     00485e14     Editor.obj
 0003:00000e20       ??_C@_0BC@EOODALEL@Unknown?5exception?$AA@ 00485e20     Editor.obj
 0003:00000e38       ??_C@_1JA@MHADJNIL@?$AAc?$AA?3?$AA?2?$AAp?$AAr?$AAo?$AAg?$AAr?$AAa?$AAm?$AA?5?$AAf?$AAi?$AAl?$AAe?$AAs?$AA?5?$AA?$CI?$AAx?$AA8?$AA6?$AA?$CJ?$AA?2?$AAm?$AAi?$AAc?$AAr?$AAo?$AAs?$AAo?$AAf?$AAt@ 00485e38     Editor.obj
 0003:00000ee4       ??_C@_1DC@POOIKBAO@?$AAI?$AAT?$AAE?$AAR?$AAA?$AAT?$AAO?$AAR?$AA?5?$AAL?$AAI?$AAS?$AAT?$AA?5?$AAC?$AAO?$AAR?$AAR?$AAU?$AAP?$AAT?$AAE?$AAD?$AA?$CB?$AA?$AA@ 00485ee4     Editor.obj
 0003:00000f20       ??_C@_0BE@LMNLACIC@_Ptr_container?5?$CB?$DN?50?$AA@ 00485f20     Editor.obj
 0003:00000f38       ??_C@_1DG@HGDKEBPG@?$AA?$CC?$AA_?$AAP?$AAt?$AAr?$AA_?$AAc?$AAo?$AAn?$AAt?$AAa?$AAi?$AAn?$AAe?$AAr?$AA?5?$AA?$CB?$AA?$DN?$AA?5?$AA0?$AA?$CC?$AA?5?$AA?$CG?$AA?$CG?$AA?5?$AA0?$AA?$AA@ 00485f38     Editor.obj
 0003:00000f78       ??_C@_17CNPHIMPH@?$AA?$CF?$AAl?$AAs?$AA?$AA@ 00485f78     Editor.obj
 0003:00000f88       ??_C@_1JA@DKOIEICI@?$AAc?$AA?3?$AA?2?$AAp?$AAr?$AAo?$AAg?$AAr?$AAa?$AAm?$AA?5?$AAf?$AAi?$AAl?$AAe?$AAs?$AA?5?$AA?$CI?$AAx?$AA8?$AA6?$AA?$CJ?$AA?2?$AAm?$AAi?$AAc?$AAr?$AAo?$AAs?$AAo?$AAf?$AAt@ 00485f88     Editor.obj
 0003:00001034       ??_C@_1BO@NKFMJPA@?$AAs?$AAt?$AAd?$AA?3?$AA?3?$AA_?$AAA?$AAl?$AAl?$AAo?$AAc?$AAa?$AAt?$AAe?$AA?$AA@ 00486034     Editor.obj
 0003:00001058       ??_C@_1CG@JNLFBNGN@?$AA?$CC?$AAi?$AAn?$AAv?$AAa?$AAl?$AAi?$AAd?$AA?5?$AAa?$AAr?$AAg?$AAu?$AAm?$AAe?$AAn?$AAt?$AA?$CC?$AA?$AA@ 00486058     Editor.obj
 0003:00001088       ??_C@_09GLJCAGLP@_Ptr?5?$CB?$DN?50?$AA@ 00486088     Editor.obj
 0003:00001094       ??_C@_1CC@GKJLLHIM@?$AA?$CC?$AA_?$AAP?$AAt?$AAr?$AA?5?$AA?$CB?$AA?$DN?$AA?5?$AA0?$AA?$CC?$AA?5?$AA?$CG?$AA?$CG?$AA?5?$AA0?$AA?$AA@ 00486094     Editor.obj
 0003:000010bc       ??_C@_0BN@HMCJOMKN@_Count?5?$DM?$DN?5?$CIsize_t?$CJ?$CI?91?$CJ?5?1?5_Sz?$AA@ 004860bc     Editor.obj
 0003:000010e0       ??_C@_1EI@MLOBABC@?$AA?$CC?$AA_?$AAC?$AAo?$AAu?$AAn?$AAt?$AA?5?$AA?$DM?$AA?$DN?$AA?5?$AA?$CI?$AAs?$AAi?$AAz?$AAe?$AA_?$AAt?$AA?$CJ?$AA?$CI?$AA?9?$AA1?$AA?$CJ?$AA?5?$AA?1?$AA?5?$AA_?$AAS?$AAz?$AA?$CC?$AA?5?$AA?$CG@ 004860e0     Editor.obj
 0003:00001138       ??_C@_1CC@LOFJFFDB@?$AAs?$AAt?$AAd?$AA?3?$AA?3?$AA_?$AAD?$AAe?$AAa?$AAl?$AAl?$AAo?$AAc?$AAa?$AAt?$AAe?$AA?$AA@ 00486138     Editor.obj
 0003:00001160       ??_C@_0DD@GBGGGKGG@?$CI_Ptr_user?5?$CG?5?$CI_BIG_ALLOCATION_AL@ 00486160     Editor.obj
 0003:000011a0       ??_C@_1HE@CDMBFOKC@?$AA?$CC?$AA?$CI?$AA_?$AAP?$AAt?$AAr?$AA_?$AAu?$AAs?$AAe?$AAr?$AA?5?$AA?$CG?$AA?5?$AA?$CI?$AA_?$AAB?$AAI?$AAG?$AA_?$AAA?$AAL?$AAL?$AAO?$AAC?$AAA?$AAT?$AAI?$AAO?$AAN?$AA_?$AAA@ 004861a0     Editor.obj
 0003:00001230       ??_C@_0EI@NOJHEJCJ@reinterpret_cast?$DMuintptr_t?5?$CK?$DO?$CI_P@ 00486230     Editor.obj
 0003:00001288       ??_C@_1JO@EKLKIEHP@?$AA?$CC?$AAr?$AAe?$AAi?$AAn?$AAt?$AAe?$AAr?$AAp?$AAr?$AAe?$AAt?$AA_?$AAc?$AAa?$AAs?$AAt?$AA?$DM?$AAu?$AAi?$AAn?$AAt?$AAp?$AAt?$AAr?$AA_?$AAt?$AA?5?$AA?$CK?$AA?$DO?$AA?$CI?$AA_@ 00486288     Editor.obj
 0003:00001348       ??_C@_0BL@OCKMEJON@_Ptr_container?5?$DM?5_Ptr_user?$AA@ 00486348     Editor.obj
 0003:00001368       ??_C@_1EE@PDHAHDDC@?$AA?$CC?$AA_?$AAP?$AAt?$AAr?$AA_?$AAc?$AAo?$AAn?$AAt?$AAa?$AAi?$AAn?$AAe?$AAr?$AA?5?$AA?$DM?$AA?5?$AA_?$AAP?$AAt?$AAr?$AA_?$AAu?$AAs?$AAe?$AAr?$AA?$CC?$AA?5?$AA?$CG?$AA?$CG?$AA?5@ 00486368     Editor.obj
 0003:000013bc       ??_C@_0DB@GLFJLNCE@2?5?$CK?5sizeof?$CIvoid?5?$CK?$CJ?5?$DM?$DN?5_Ptr_user?5@ 004863bc     Editor.obj
 0003:000013f8       ??_C@_1HA@NAPGMHAO@?$AA?$CC?$AA2?$AA?5?$AA?$CK?$AA?5?$AAs?$AAi?$AAz?$AAe?$AAo?$AAf?$AA?$CI?$AAv?$AAo?$AAi?$AAd?$AA?5?$AA?$CK?$AA?$CJ?$AA?5?$AA?$DM?$AA?$DN?$AA?5?$AA_?$AAP?$AAt?$AAr?$AA_?$AAu?$AAs?$AAe?$AAr@ 004863f8     Editor.obj
 0003:00001480       ??_C@_0CN@BLHJCAL@_Ptr_user?5?9?5_Ptr_container?5?$DM?$DN?5_N@ 00486480     Editor.obj
 0003:000014b8       ??_C@_1GI@DHJGPFNI@?$AA?$CC?$AA_?$AAP?$AAt?$AAr?$AA_?$AAu?$AAs?$AAe?$AAr?$AA?5?$AA?9?$AA?5?$AA_?$AAP?$AAt?$AAr?$AA_?$AAc?$AAo?$AAn?$AAt?$AAa?$AAi?$AAn?$AAe?$AAr?$AA?5?$AA?$DM?$AA?$DN?$AA?5?$AA_@ 004864b8     Editor.obj
 0003:00001534       ?npos@?$basic_string@DU?$char_traits@D@std@@V?$allocator@D@2@@std@@2IB 00486534     Editor.obj
 0003:0000153c       ??_7bad_cast@std@@6B@      0048653c     Editor.obj
 0003:00001548       ??_C@_08EPJLHIJG@bad?5cast?$AA@ 00486548     Editor.obj
 0003:00001558       ??_7Editor@@6B@            00486558     Editor.obj
 0003:00001578       ??_C@_0BA@DHBLHHDN@?4?4?1Assets?1Maps?1?$AA@ 00486578     Editor.obj
 0003:0000158c       ??_C@_03HBNNNHNM@map?$AA@  0048658c     Editor.obj
 0003:00001590       ??_C@_04LCMACLFG@?4txt?$AA@ 00486590     Editor.obj
 0003:0000159c       ??_7?$basic_filebuf@DU?$char_traits@D@std@@@std@@6B@ 0048659c     Editor.obj
 0003:000015e8       ??_7?$basic_ifstream@DU?$char_traits@D@std@@@std@@6B@ 004865e8     Editor.obj
 0003:000015f0       ??_8?$basic_ifstream@DU?$char_traits@D@std@@@std@@7B@ 004865f0     Editor.obj
 0003:000015fc       ??_C@_0O@LJOHIBP@wallpaper?4bmp?$AA@ 004865fc     Editor.obj
 0003:0000160c       ??_C@_0BO@OCDKNDBH@?4?4?1Assets?1Images?1blocking?4png?$AA@ 0048660c     Editor.obj
 0003:00001630       ??_C@_0BO@IJKMEEHI@?4?4?1Assets?1Images?1og_ghost?4png?$AA@ 00486630     Editor.obj
 0003:00001654       ??_C@_0BM@BEDEGJF@?4?4?1Assets?1Images?1og_pac?4png?$AA@ 00486654     Editor.obj
 0003:00001678       ??_C@_0BL@FLHPEECM@?4?4?1Assets?1Images?1candy?4png?$AA@ 00486678     Editor.obj
 0003:00001698       ??_C@_0BK@BGLEAOPE@?4?4?1Assets?1Images?1door?4png?$AA@ 00486698     Editor.obj
 0003:000016b8       ??_C@_0BJ@LPFOINDP@Background?5sprite?5loaded?$AA@ 004866b8     Editor.obj
 0003:000016d8       ??_C@_0BH@PILDKGKD@Blocking?5sprite?5loaded?$AA@ 004866d8     Editor.obj
 0003:000016f4       ??_C@_0BK@JLIHKAAD@Enemy?5spawn?5sprite?5loaded?$AA@ 004866f4     Editor.obj
 0003:00001714       ??_C@_0BL@EJJOANPN@Player?5spawn?5sprite?5loaded?$AA@ 00486714     Editor.obj
 0003:00001734       ??_C@_0BE@JHNLGGMH@Candy?5sprite?5loaded?$AA@ 00486734     Editor.obj
 0003:0000174c       ??_C@_0BD@MAFKKLBB@Door?5sprite?5loaded?$AA@ 0048674c     Editor.obj
 0003:00001764       ??_C@_0BB@HONILAMJ@Loaded?5map?5from?5?$AA@ 00486764     Editor.obj
 0003:00001778       ??_C@_1IO@EADHKMNI@?$AAc?$AA?3?$AA?2?$AAp?$AAr?$AAo?$AAg?$AAr?$AAa?$AAm?$AA?5?$AAf?$AAi?$AAl?$AAe?$AAs?$AA?5?$AA?$CI?$AAx?$AA8?$AA6?$AA?$CJ?$AA?2?$AAm?$AAi?$AAc?$AAr?$AAo?$AAs?$AAo?$AAf?$AAt@ 00486778     Editor.obj
 0003:00001828       ??_C@_1EG@CNCHLAOB@?$AAs?$AAt?$AAr?$AAi?$AAn?$AAg?$AA?5?$AAi?$AAt?$AAe?$AAr?$AAa?$AAt?$AAo?$AAr?$AA?5?$AAn?$AAo?$AAt?$AA?5?$AAd?$AAe?$AAr?$AAe?$AAf?$AAe?$AAr?$AAe?$AAn?$AAc?$AAa?$AAb@ 00486828     Editor.obj
 0003:0000187c       ??_C@_0CE@OFMIGAMM@Standard?5C?$CL?$CL?5Libraries?5Out?5of?5Ra@ 0048687c     Editor.obj
 0003:000018a8       ??_C@_1FG@IBPIFFN@?$AA?$CC?$AAS?$AAt?$AAa?$AAn?$AAd?$AAa?$AAr?$AAd?$AA?5?$AAC?$AA?$CL?$AA?$CL?$AA?5?$AAL?$AAi?$AAb?$AAr?$AAa?$AAr?$AAi?$AAe?$AAs?$AA?5?$AAO?$AAu?$AAt?$AA?5?$AAo?$AAf?$AA?5?$AAR@ 004868a8     Editor.obj
 0003:00001910       ??_C@_1MG@GDGHDIKC@?$AAs?$AAt?$AAd?$AA?3?$AA?3?$AA_?$AAS?$AAt?$AAr?$AAi?$AAn?$AAg?$AA_?$AAc?$AAo?$AAn?$AAs?$AAt?$AA_?$AAi?$AAt?$AAe?$AAr?$AAa?$AAt?$AAo?$AAr?$AA?$DM?$AAc?$AAl?$AAa?$AAs@ 00486910     Editor.obj
 0003:00001a00       ??_C@_1BO@MEPPHOO@?$AA?$CC?$AAo?$AAu?$AAt?$AA?5?$AAo?$AAf?$AA?5?$AAr?$AAa?$AAn?$AAg?$AAe?$AA?$CC?$AA?$AA@ 00486a00     Editor.obj
 0003:00001a24       ??_C@_0BA@JFNIOLAK@string?5too?5long?$AA@ 00486a24     Editor.obj
 0003:00001a38       ??_C@_0BI@CFPLBAOH@invalid?5string?5position?$AA@ 00486a38     Editor.obj
 0003:00001a54       ??_C@_1CK@EOPGIILJ@?$AAi?$AAn?$AAv?$AAa?$AAl?$AAi?$AAd?$AA?5?$AAn?$AAu?$AAl?$AAl?$AA?5?$AAp?$AAo?$AAi?$AAn?$AAt?$AAe?$AAr?$AA?$AA@ 00486a54     Editor.obj
 0003:00001a88       ??_C@_1CO@DGLIKNHI@?$AAi?$AAn?$AAv?$AAa?$AAl?$AAi?$AAd?$AA?5?$AAi?$AAt?$AAe?$AAr?$AAa?$AAt?$AAo?$AAr?$AA?5?$AAr?$AAa?$AAn?$AAg?$AAe?$AA?$AA@ 00486a88     Editor.obj
 0003:00001ac4       ??_7ExitGameMessage@@6B@   00486ac4     ExitGameMessage.obj
 0003:00001ad0       ??_7GameMessage@@6B@       00486ad0     GameMessage.obj
 0003:00001ad8       ??_C@_1II@MMKOEKPG@?$AAc?$AA?3?$AA?2?$AAp?$AAr?$AAo?$AAg?$AAr?$AAa?$AAm?$AA?5?$AAf?$AAi?$AAl?$AAe?$AAs?$AA?5?$AA?$CI?$AAx?$AA8?$AA6?$AA?$CJ?$AA?2?$AAm?$AAi?$AAc?$AAr?$AAo?$AAs?$AAo?$AAf?$AAt@ 00486ad8     GameMessageManager.obj
 0003:00001b7c       ??_C@_1DI@MDELDGPI@?$AAl?$AAi?$AAs?$AAt?$AA?5?$AAi?$AAt?$AAe?$AAr?$AAa?$AAt?$AAo?$AAr?$AAs?$AA?5?$AAi?$AAn?$AAc?$AAo?$AAm?$AAp?$AAa?$AAt?$AAi?$AAb?$AAl?$AAe?$AA?$AA@ 00486b7c     GameMessageManager.obj
 0003:00001bc0       ??_C@_0CI@FNPHFCCM@Standard?5C?$CL?$CL?5Libraries?5Invalid?5A@ 00486bc0     GameMessageManager.obj
 0003:00001bf0       ??_C@_1FO@GJIHNDLM@?$AA?$CC?$AAS?$AAt?$AAa?$AAn?$AAd?$AAa?$AAr?$AAd?$AA?5?$AAC?$AA?$CL?$AA?$CL?$AA?5?$AAL?$AAi?$AAb?$AAr?$AAa?$AAr?$AAi?$AAe?$AAs?$AA?5?$AAI?$AAn?$AAv?$AAa?$AAl?$AAi?$AAd?$AA?5@ 00486bf0     GameMessageManager.obj
 0003:00001c60       ??_C@_1OI@CIEOCHEE@?$AAs?$AAt?$AAd?$AA?3?$AA?3?$AA_?$AAL?$AAi?$AAs?$AAt?$AA_?$AAc?$AAo?$AAn?$AAs?$AAt?$AA_?$AAi?$AAt?$AAe?$AAr?$AAa?$AAt?$AAo?$AAr?$AA?$DM?$AAc?$AAl?$AAa?$AAs?$AAs?$AA?5@ 00486c60     GameMessageManager.obj
 0003:00001d78       ??_C@_1EA@DOGAGKDH@?$AAl?$AAi?$AAs?$AAt?$AA?5?$AAi?$AAt?$AAe?$AAr?$AAa?$AAt?$AAo?$AAr?$AA?5?$AAn?$AAo?$AAt?$AA?5?$AAi?$AAn?$AAc?$AAr?$AAe?$AAm?$AAe?$AAn?$AAt?$AAa?$AAb?$AAl?$AAe?$AA?$AA@ 00486d78     GameMessageManager.obj
 0003:00001dc8       ??_C@_1OI@IILDMOIB@?$AAs?$AAt?$AAd?$AA?3?$AA?3?$AA_?$AAL?$AAi?$AAs?$AAt?$AA_?$AAc?$AAo?$AAn?$AAs?$AAt?$AA_?$AAi?$AAt?$AAe?$AAr?$AAa?$AAt?$AAo?$AAr?$AA?$DM?$AAc?$AAl?$AAa?$AAs?$AAs?$AA?5@ 00486dc8     GameMessageManager.obj
 0003:00001ee0       ??_C@_1EC@HILJLMMC@?$AAl?$AAi?$AAs?$AAt?$AA?5?$AAi?$AAt?$AAe?$AAr?$AAa?$AAt?$AAo?$AAr?$AA?5?$AAn?$AAo?$AAt?$AA?5?$AAd?$AAe?$AAr?$AAe?$AAf?$AAe?$AAr?$AAe?$AAn?$AAc?$AAa?$AAb?$AAl?$AAe@ 00486ee0     GameMessageManager.obj
 0003:00001f30       ??_C@_1OG@FBOMEBLJ@?$AAs?$AAt?$AAd?$AA?3?$AA?3?$AA_?$AAL?$AAi?$AAs?$AAt?$AA_?$AAc?$AAo?$AAn?$AAs?$AAt?$AA_?$AAi?$AAt?$AAe?$AAr?$AAa?$AAt?$AAo?$AAr?$AA?$DM?$AAc?$AAl?$AAa?$AAs?$AAs?$AA?5@ 00486f30     GameMessageManager.obj
 0003:00002048       ??_C@_1EE@BBMFLDOC@?$AAl?$AAi?$AAs?$AAt?$AA?5?$AAe?$AAr?$AAa?$AAs?$AAe?$AA?5?$AAi?$AAt?$AAe?$AAr?$AAa?$AAt?$AAo?$AAr?$AA?5?$AAo?$AAu?$AAt?$AAs?$AAi?$AAd?$AAe?$AA?5?$AAr?$AAa?$AAn?$AAg@ 00487048     GameMessageManager.obj
 0003:0000209c       ??_C@_0BB@MOGOBHAF@list?$DMT?$DO?5too?5long?$AA@ 0048709c     GameMessageManager.obj
 0003:000020b0       ??_C@_0BN@GJIJFFBL@You?5are?5currently?5placing?5a?5?$AA@ 004870b0     HelpMenu.obj
 0003:000020d4       ??_C@_0O@FJMPPKCJ@Current?5map?3?5?$AA@ 004870d4     HelpMenu.obj
 0003:000020e4       ??_C@_04LIPBJNLA@Wall?$AA@ 004870e4     HelpMenu.obj
 0003:000020ec       ??_C@_0M@JCJKGMKC@Enemy?5Spawn?$AA@ 004870ec     HelpMenu.obj
 0003:000020fc       ??_C@_0N@CCPBBBLJ@Player?5Spawn?$AA@ 004870fc     HelpMenu.obj
 0003:0000210c       ??_C@_05JHJFJBA@Candy?$AA@ 0048710c     HelpMenu.obj
 0003:00002114       ??_C@_04KJGJIGFH@Door?$AA@ 00487114     HelpMenu.obj
 0003:0000211c       ??_C@_0BN@JHHFECBA@Press?5F1?5to?5toggle?5help?5menu?$AA@ 0048711c     HelpMenu.obj
 0003:00002140       ??_C@_0BH@GHOJEOGA@Press?51?5to?5select?5Wall?$AA@ 00487140     HelpMenu.obj
 0003:0000215c       ??_C@_0BO@NLEKNNMC@Press?52?5to?5select?5Enemy?5Spawn?$AA@ 0048715c     HelpMenu.obj
 0003:00002180       ??_C@_0BP@MKIBDAFO@Press?53?5to?5select?5Player?5Spawn?$AA@ 00487180     HelpMenu.obj
 0003:000021a8       ??_C@_0BI@GLIPPCPA@Press?54?5to?5select?5Candy?$AA@ 004871a8     HelpMenu.obj
 0003:000021c4       ??_C@_0BH@FHJHCEI@Press?55?5to?5select?5Door?$AA@ 004871c4     HelpMenu.obj
 0003:000021e0       ??_C@_0BM@MOHIDLOI@Press?5S?5to?5save?5current?5map?$AA@ 004871e0     HelpMenu.obj
 0003:00002204       ??_C@_0BM@ICIEEMJ@Press?5L?5to?5load?5current?5map?$AA@ 00487204     HelpMenu.obj
 0003:00002228       ??_C@_0CC@FBCDDHBJ@Press?5Up?5to?5increment?5current?5ma@ 00487228     HelpMenu.obj
 0003:00002250       ??_C@_0CE@CHCCJKIH@Press?5Down?5to?5decrement?5current?5@ 00487250     HelpMenu.obj
 0003:0000227c       ??_C@_0BJ@JPBGIMMC@Keyboard?5not?5installed?$CB?6?$AA@ 0048727c     InputManager.obj
 0003:0000229c       ??_C@_0BG@BDBLLEFH@Mouse?5not?5installed?$CB?6?$AA@ 0048729c     InputManager.obj
 0003:000022bc       ??_7LoadMessage@@6B@       004872bc     LoadMessage.obj
 0003:000022c4       ??_C@_0N@KFGCJNCF@pathgrid?4txt?$AA@ 004872c4     main.obj
 0003:000022d4       ??_C@_05PDJBBECF@pause?$AA@ 004872d4     main.obj
 0003:000022e0       ??_7SaveMessage@@6B@       004872e0     SaveMessage.obj
 0003:000022ec       ??_7?$basic_ofstream@DU?$char_traits@D@std@@@std@@6B@ 004872ec     SaveMessage.obj
 0003:000022f4       ??_8?$basic_ofstream@DU?$char_traits@D@std@@@std@@7B@ 004872f4     SaveMessage.obj
 0003:00002300       ??_C@_0O@IINMBMOI@Saved?5map?5to?5?$AA@ 00487300     SaveMessage.obj
 0003:00002314       ??_7ToggleHelpMessage@@6B@ 00487314     ToggleHelpMessage.obj
 0003:0000231c       ??_C@_0O@KMPAEPEL@Toggling?5HELP?$AA@ 0048731c     ToggleHelpMessage.obj
 0003:00002334       ??_7Game@@6B@              00487334     CommonPathfindingLib:Game.obj
 0003:00002354       ??_C@_0BP@NFOMDBJD@failed?5to?5initialize?5allegro?$CB?6?$AA@ 00487354     CommonPathfindingLib:Game.obj
 0003:0000237c       ??_C@_0CN@NDCAIAOH@failed?5to?5initialize?5GraphicsSys@ 0048737c     CommonPathfindingLib:Game.obj
 0003:000023b4       ??_C@_0BN@OFBNGFA@image?5addon?5failed?5to?5load?$CB?6?$AA@ 004873b4     CommonPathfindingLib:Game.obj
 0003:000023d8       ??_C@_0BN@NHNICPGG@failed?5to?5initialize?5sound?$CB?6?$AA@ 004873d8     CommonPathfindingLib:Game.obj
 0003:000023fc       ??_C@_0CE@CPKCHMEC@failed?5to?5initialize?5audio?5codec@ 004873fc     CommonPathfindingLib:Game.obj
 0003:00002428       ??_C@_0BM@KCGEPDF@failed?5to?5reserve?5samples?$CB?6?$AA@ 00487428     CommonPathfindingLib:Game.obj
 0003:0000244c       ??_C@_0CG@BLOOKPHC@ttf?5font?5addon?5not?5initted?5prope@ 0048744c     CommonPathfindingLib:Game.obj
 0003:0000247c       ??_C@_08HHJKBNGC@cour?4ttf?$AA@ 0048747c     CommonPathfindingLib:Game.obj
 0003:00002488       ??_C@_0CE@KEIEBNEM@ttf?5font?5file?5not?5loaded?5properl@ 00487488     CommonPathfindingLib:Game.obj
 0003:000024b4       ??_C@_0BN@GJEDGGAG@Primitives?5addon?5not?5added?$CB?6?$AA@ 004874b4     CommonPathfindingLib:Game.obj
 0003:000024d8       ??_C@_1NE@MCPFKCGD@?$AAc?$AA?3?$AA?2?$AAu?$AAs?$AAe?$AAr?$AAs?$AA?2?$AAs?$AAt?$AAu?$AAd?$AAe?$AAn?$AAt?$AA?2?$AAd?$AAo?$AAc?$AAu?$AAm?$AAe?$AAn?$AAt?$AAs?$AA?2?$AA_?$AAb?$AAr?$AAi?$AAa@ 004874d8     CommonPathfindingLib:Game.obj
 0003:000025d8       ??_C@_1BK@FCDNEEDD@?$AAs?$AAt?$AAa?$AAr?$AAt?$AA?5?$AA?$DM?$AA?$DN?$AA?5?$AAe?$AAn?$AAd?$AA?$AA@ 004875d8     CommonPathfindingLib:Game.obj
 0003:000025f8       __real@4000000000000000    004875f8     CommonPathfindingLib:Game.obj
 0003:00002604       __real@46fffe00            00487604     CommonPathfindingLib:Game.obj
 0003:0000260c       ??_C@_01CLKCMJKC@?5?$AA@   0048760c     CommonPathfindingLib:Grid.obj
 0003:00002610       ??_C@_0BD@OLBABOEK@vector?$DMT?$DO?5too?5long?$AA@ 00487610     CommonPathfindingLib:Grid.obj
 0003:00002628       ??_C@_1IK@BHJCIFB@?$AAc?$AA?3?$AA?2?$AAp?$AAr?$AAo?$AAg?$AAr?$AAa?$AAm?$AA?5?$AAf?$AAi?$AAl?$AAe?$AAs?$AA?5?$AA?$CI?$AAx?$AA8?$AA6?$AA?$CJ?$AA?2?$AAm?$AAi?$AAc?$AAr?$AAo?$AAs?$AAo?$AAf?$AAt@ 00487628     CommonPathfindingLib:GraphicsBufferManager.obj
 0003:000026d0       ??_C@_1DO@CFEEPGGJ@?$AAm?$AAa?$AAp?$AA?1?$AAs?$AAe?$AAt?$AA?5?$AAi?$AAt?$AAe?$AAr?$AAa?$AAt?$AAo?$AAr?$AAs?$AA?5?$AAi?$AAn?$AAc?$AAo?$AAm?$AAp?$AAa?$AAt?$AAi?$AAb?$AAl?$AAe?$AA?$AA@ 004876d0     CommonPathfindingLib:GraphicsBufferManager.obj
 0003:00002720       ??_C@_1BKM@LBOFJKLH@?$AAs?$AAt?$AAd?$AA?3?$AA?3?$AA_?$AAT?$AAr?$AAe?$AAe?$AA_?$AAc?$AAo?$AAn?$AAs?$AAt?$AA_?$AAi?$AAt?$AAe?$AAr?$AAa?$AAt?$AAo?$AAr?$AA?$DM?$AAc?$AAl?$AAa?$AAs?$AAs?$AA?5@ 00487720     CommonPathfindingLib:GraphicsBufferManager.obj
 0003:00002928       ??_C@_1EK@PPDBPCAN@?$AAm?$AAa?$AAp?$AA?1?$AAs?$AAe?$AAt?$AA?5?$AAe?$AAr?$AAa?$AAs?$AAe?$AA?5?$AAi?$AAt?$AAe?$AAr?$AAa?$AAt?$AAo?$AAr?$AA?5?$AAo?$AAu?$AAt?$AAs?$AAi?$AAd?$AAe?$AA?5?$AAr@ 00487928     CommonPathfindingLib:GraphicsBufferManager.obj
 0003:00002980       ??_C@_1BCK@OJKBJFLO@?$AAs?$AAt?$AAd?$AA?3?$AA?3?$AA_?$AAT?$AAr?$AAe?$AAe?$AA_?$AAc?$AAo?$AAn?$AAs?$AAt?$AA_?$AAi?$AAt?$AAe?$AAr?$AAa?$AAt?$AAo?$AAr?$AA?$DM?$AAc?$AAl?$AAa?$AAs?$AAs?$AA?5@ 00487980     CommonPathfindingLib:GraphicsBufferManager.obj
 0003:00002ae8       ??_C@_1EG@EHJFMBHJ@?$AAm?$AAa?$AAp?$AA?1?$AAs?$AAe?$AAt?$AA?5?$AAi?$AAt?$AAe?$AAr?$AAa?$AAt?$AAo?$AAr?$AA?5?$AAn?$AAo?$AAt?$AA?5?$AAi?$AAn?$AAc?$AAr?$AAe?$AAm?$AAe?$AAn?$AAt?$AAa?$AAb@ 00487ae8     CommonPathfindingLib:GraphicsBufferManager.obj
 0003:00002b40       ??_C@_1BKM@BBBIHDHC@?$AAs?$AAt?$AAd?$AA?3?$AA?3?$AA_?$AAT?$AAr?$AAe?$AAe?$AA_?$AAc?$AAo?$AAn?$AAs?$AAt?$AA_?$AAi?$AAt?$AAe?$AAr?$AAa?$AAt?$AAo?$AAr?$AA?$DM?$AAc?$AAl?$AAa?$AAs?$AAs?$AA?5@ 00487b40     CommonPathfindingLib:GraphicsBufferManager.obj
 0003:00002d48       ??_C@_1BCK@EJFMHMHL@?$AAs?$AAt?$AAd?$AA?3?$AA?3?$AA_?$AAT?$AAr?$AAe?$AAe?$AA_?$AAc?$AAo?$AAn?$AAs?$AAt?$AA_?$AAi?$AAt?$AAe?$AAr?$AAa?$AAt?$AAo?$AAr?$AA?$DM?$AAc?$AAl?$AAa?$AAs?$AAs?$AA?5@ 00487d48     CommonPathfindingLib:GraphicsBufferManager.obj
 0003:00002eb0       ??_C@_1EI@FHEHNNNM@?$AAm?$AAa?$AAp?$AA?1?$AAs?$AAe?$AAt?$AA?5?$AAi?$AAt?$AAe?$AAr?$AAa?$AAt?$AAo?$AAr?$AA?5?$AAn?$AAo?$AAt?$AA?5?$AAd?$AAe?$AAr?$AAe?$AAf?$AAe?$AAr?$AAe?$AAn?$AAc?$AAa@ 00487eb0     CommonPathfindingLib:GraphicsBufferManager.obj
 0003:00002f08       ??_C@_1BKK@NKNEDAJK@?$AAs?$AAt?$AAd?$AA?3?$AA?3?$AA_?$AAT?$AAr?$AAe?$AAe?$AA_?$AAc?$AAo?$AAn?$AAs?$AAt?$AA_?$AAi?$AAt?$AAe?$AAr?$AAa?$AAt?$AAo?$AAr?$AA?$DM?$AAc?$AAl?$AAa?$AAs?$AAs?$AA?5@ 00487f08     CommonPathfindingLib:GraphicsBufferManager.obj
 0003:00003108       ??_C@_1BCI@EAFCIGCE@?$AAs?$AAt?$AAd?$AA?3?$AA?3?$AA_?$AAT?$AAr?$AAe?$AAe?$AA_?$AAc?$AAo?$AAn?$AAs?$AAt?$AA_?$AAi?$AAt?$AAe?$AAr?$AAa?$AAt?$AAo?$AAr?$AA?$DM?$AAc?$AAl?$AAa?$AAs?$AAs?$AA?5@ 00488108     CommonPathfindingLib:GraphicsBufferManager.obj
 0003:0000326c       ??_C@_1CG@LEJCKCBB@?$AAi?$AAn?$AAv?$AAa?$AAl?$AAi?$AAd?$AA?5?$AAc?$AAo?$AAm?$AAp?$AAa?$AAr?$AAa?$AAt?$AAo?$AAr?$AA?$AA@ 0048826c     CommonPathfindingLib:GraphicsBufferManager.obj
 0003:000032a0       ??_C@_1IG@CDANFHMM@?$AAc?$AA?3?$AA?2?$AAp?$AAr?$AAo?$AAg?$AAr?$AAa?$AAm?$AA?5?$AAf?$AAi?$AAl?$AAe?$AAs?$AA?5?$AA?$CI?$AAx?$AA8?$AA6?$AA?$CJ?$AA?2?$AAm?$AAi?$AAc?$AAr?$AAo?$AAs?$AAo?$AAf?$AAt@ 004882a0     CommonPathfindingLib:GraphicsBufferManager.obj
 0003:00003340       ??_C@_1EM@MHOKKPFH@?$AAm?$AAa?$AAp?$AA?1?$AAs?$AAe?$AAt?$AA?5?$AAi?$AAn?$AAs?$AAe?$AAr?$AAt?$AA?5?$AAi?$AAt?$AAe?$AAr?$AAa?$AAt?$AAo?$AAr?$AA?5?$AAo?$AAu?$AAt?$AAs?$AAi?$AAd?$AAe?$AA?5@ 00488340     CommonPathfindingLib:GraphicsBufferManager.obj
 0003:000033a0       ??_C@_1EG@OKCGOALM@?$AAm?$AAa?$AAp?$AA?1?$AAs?$AAe?$AAt?$AA?5?$AAi?$AAt?$AAe?$AAr?$AAa?$AAt?$AAo?$AAr?$AA?5?$AAn?$AAo?$AAt?$AA?5?$AAd?$AAe?$AAc?$AAr?$AAe?$AAm?$AAe?$AAn?$AAt?$AAa?$AAb@ 004883a0     CommonPathfindingLib:GraphicsBufferManager.obj
 0003:000033f8       ??_C@_1BKM@OCCKMPLD@?$AAs?$AAt?$AAd?$AA?3?$AA?3?$AA_?$AAT?$AAr?$AAe?$AAe?$AA_?$AAc?$AAo?$AAn?$AAs?$AAt?$AA_?$AAi?$AAt?$AAe?$AAr?$AAa?$AAt?$AAo?$AAr?$AA?$DM?$AAc?$AAl?$AAa?$AAs?$AAs?$AA?5@ 004883f8     CommonPathfindingLib:GraphicsBufferManager.obj
 0003:00003600       ??_C@_1BCK@LKGOMALK@?$AAs?$AAt?$AAd?$AA?3?$AA?3?$AA_?$AAT?$AAr?$AAe?$AAe?$AA_?$AAc?$AAo?$AAn?$AAs?$AAt?$AA_?$AAi?$AAt?$AAe?$AAr?$AAa?$AAt?$AAo?$AAr?$AA?$DM?$AAc?$AAl?$AAa?$AAs?$AAs?$AA?5@ 00488600     CommonPathfindingLib:GraphicsBufferManager.obj
 0003:00003768       ??_C@_0BE@JONHPENG@map?1set?$DMT?$DO?5too?5long?$AA@ 00488768     CommonPathfindingLib:GraphicsBufferManager.obj
 0003:000037ac       ??_C@_01CPLAODJH@S?$AA@    004887ac     CommonPathfindingLib:GridVisualizer.obj
 0003:000037b0       ??_C@_01BBODEMC@G?$AA@     004887b0     CommonPathfindingLib:GridVisualizer.obj
 0003:000037b8       ??_C@_1IM@NCODKBJH@?$AAc?$AA?3?$AA?2?$AAp?$AAr?$AAo?$AAg?$AAr?$AAa?$AAm?$AA?5?$AAf?$AAi?$AAl?$AAe?$AAs?$AA?5?$AA?$CI?$AAx?$AA8?$AA6?$AA?$CJ?$AA?2?$AAm?$AAi?$AAc?$AAr?$AAo?$AAs?$AAo?$AAf?$AAt@ 004887b8     CommonPathfindingLib:GridVisualizer.obj
 0003:00003860       ??_C@_1DM@LHGCHCBA@?$AAv?$AAe?$AAc?$AAt?$AAo?$AAr?$AA?5?$AAs?$AAu?$AAb?$AAs?$AAc?$AAr?$AAi?$AAp?$AAt?$AA?5?$AAo?$AAu?$AAt?$AA?5?$AAo?$AAf?$AA?5?$AAr?$AAa?$AAn?$AAg?$AAe?$AA?$AA@ 00488860     CommonPathfindingLib:GridVisualizer.obj
 0003:000038a8       ??_C@_1HC@HBCEAHKD@?$AAs?$AAt?$AAd?$AA?3?$AA?3?$AAv?$AAe?$AAc?$AAt?$AAo?$AAr?$AA?$DM?$AAi?$AAn?$AAt?$AA?0?$AAc?$AAl?$AAa?$AAs?$AAs?$AA?5?$AAs?$AAt?$AAd?$AA?3?$AA?3?$AAa?$AAl?$AAl?$AAo?$AAc@ 004888a8     CommonPathfindingLib:GridVisualizer.obj
 0003:00003930       ??_C@_1BIE@CKJBPEOB@?$AAs?$AAt?$AAd?$AA?3?$AA?3?$AA_?$AAT?$AAr?$AAe?$AAe?$AA_?$AAc?$AAo?$AAn?$AAs?$AAt?$AA_?$AAi?$AAt?$AAe?$AAr?$AAa?$AAt?$AAo?$AAr?$AA?$DM?$AAc?$AAl?$AAa?$AAs?$AAs?$AA?5@ 00488930     CommonPathfindingLib:GridVisualizer.obj
 0003:00003b08       ??_C@_1BIE@IKGMBNCE@?$AAs?$AAt?$AAd?$AA?3?$AA?3?$AA_?$AAT?$AAr?$AAe?$AAe?$AA_?$AAc?$AAo?$AAn?$AAs?$AAt?$AA_?$AAi?$AAt?$AAe?$AAr?$AAa?$AAt?$AAo?$AAr?$AA?$DM?$AAc?$AAl?$AAa?$AAs?$AAs?$AA?5@ 00488b08     CommonPathfindingLib:GridVisualizer.obj
 0003:00003ce0       ??_C@_1BIC@KMEIKKAA@?$AAs?$AAt?$AAd?$AA?3?$AA?3?$AA_?$AAT?$AAr?$AAe?$AAe?$AA_?$AAc?$AAo?$AAn?$AAs?$AAt?$AA_?$AAi?$AAt?$AAe?$AAr?$AAa?$AAt?$AAo?$AAr?$AA?$DM?$AAc?$AAl?$AAa?$AAs?$AAs?$AA?5@ 00488ce0     CommonPathfindingLib:GridVisualizer.obj
 0003:00003eb0       ??_C@_1BIE@HJFOKBOF@?$AAs?$AAt?$AAd?$AA?3?$AA?3?$AA_?$AAT?$AAr?$AAe?$AAe?$AA_?$AAc?$AAo?$AAn?$AAs?$AAt?$AA_?$AAi?$AAt?$AAe?$AAr?$AAa?$AAt?$AAo?$AAr?$AA?$DM?$AAc?$AAl?$AAa?$AAs?$AAs?$AA?5@ 00488eb0     CommonPathfindingLib:GridVisualizer.obj
 0003:00004088       ??_C@_1BBK@NOPGMEMI@?$AAs?$AAt?$AAd?$AA?3?$AA?3?$AA_?$AAT?$AAr?$AAe?$AAe?$AA_?$AAc?$AAo?$AAn?$AAs?$AAt?$AA_?$AAi?$AAt?$AAe?$AAr?$AAa?$AAt?$AAo?$AAr?$AA?$DM?$AAc?$AAl?$AAa?$AAs?$AAs?$AA?5@ 00489088     CommonPathfindingLib:SpriteManager.obj
 0003:000041e0       ??_C@_1BBK@HOALCNAN@?$AAs?$AAt?$AAd?$AA?3?$AA?3?$AA_?$AAT?$AAr?$AAe?$AAe?$AA_?$AAc?$AAo?$AAn?$AAs?$AAt?$AA_?$AAi?$AAt?$AAe?$AAr?$AAa?$AAt?$AAo?$AAr?$AA?$DM?$AAc?$AAl?$AAa?$AAs?$AAs?$AA?5@ 004891e0     CommonPathfindingLib:SpriteManager.obj
 0003:00004338       ??_C@_1BBI@EPEKJCPI@?$AAs?$AAt?$AAd?$AA?3?$AA?3?$AA_?$AAT?$AAr?$AAe?$AAe?$AA_?$AAc?$AAo?$AAn?$AAs?$AAt?$AA_?$AAi?$AAt?$AAe?$AAr?$AAa?$AAt?$AAo?$AAr?$AA?$DM?$AAc?$AAl?$AAa?$AAs?$AAs?$AA?5@ 00489338     CommonPathfindingLib:SpriteManager.obj
 0003:00004488       ??_C@_1BBK@INDJJBMM@?$AAs?$AAt?$AAd?$AA?3?$AA?3?$AA_?$AAT?$AAr?$AAe?$AAe?$AA_?$AAc?$AAo?$AAn?$AAs?$AAt?$AA_?$AAi?$AAt?$AAe?$AAr?$AAa?$AAt?$AAo?$AAr?$AA?$DM?$AAc?$AAl?$AAa?$AAs?$AAs?$AA?5@ 00489488     CommonPathfindingLib:SpriteManager.obj
 0003:000045dc       ??_C@_0CL@CGPALMN@GraphicsSystem?3?3failed?5to?5create@ 004895dc     CommonPathfindingLib:GraphicsSystem.obj
 0003:00004610       __real@3f800000            00489610     CommonPathfindingLib:GraphicsSystem.obj
 0003:00004614       __real@00000000            00489614     CommonPathfindingLib:Sprite.obj
 0003:00004618       __real@0000000000000000    00489618     DeanLib:Timer.obj
 0003:00004628       __real@4024000000000000    00489628     DeanLib:Timer.obj
 0003:00004638       __real@408f400000000000    00489638     DeanLib:Timer.obj
 0003:00004644       ??_C@_0DI@GKEBKCHH@MemoryTracker?5being?5deleted?3?5fin@ 00489644     DeanLib:MemoryTracker.obj
 0003:00004688       ??_C@_0BN@IJFAENGF@Current?5memory?5allocations?3?6?$AA@ 00489688     DeanLib:MemoryTracker.obj
 0003:000046ac       ??_C@_05FGNEEEOC@?5num?3?$AA@ 004896ac     DeanLib:MemoryTracker.obj
 0003:000046b4       ??_C@_06NLINOEAE@?5size?3?$AA@ 004896b4     DeanLib:MemoryTracker.obj
 0003:000046bc       ??_C@_08GEBKOLPE@address?3?$AA@ 004896bc     DeanLib:MemoryTracker.obj
 0003:000046c8       ??_C@_1BDA@PAJOLEOP@?$AAs?$AAt?$AAd?$AA?3?$AA?3?$AA_?$AAT?$AAr?$AAe?$AAe?$AA_?$AAc?$AAo?$AAn?$AAs?$AAt?$AA_?$AAi?$AAt?$AAe?$AAr?$AAa?$AAt?$AAo?$AAr?$AA?$DM?$AAc?$AAl?$AAa?$AAs?$AAs?$AA?5@ 004896c8     DeanLib:MemoryTracker.obj
 0003:00004838       ??_C@_1BDA@FAGDFNCK@?$AAs?$AAt?$AAd?$AA?3?$AA?3?$AA_?$AAT?$AAr?$AAe?$AAe?$AA_?$AAc?$AAo?$AAn?$AAs?$AAt?$AA_?$AAi?$AAt?$AAe?$AAr?$AAa?$AAt?$AAo?$AAr?$AA?$DM?$AAc?$AAl?$AAa?$AAs?$AAs?$AA?5@ 00489838     DeanLib:MemoryTracker.obj
 0003:000049a8       ??_C@_1BCO@OEOBCANG@?$AAs?$AAt?$AAd?$AA?3?$AA?3?$AA_?$AAT?$AAr?$AAe?$AAe?$AA_?$AAc?$AAo?$AAn?$AAs?$AAt?$AA_?$AAi?$AAt?$AAe?$AAr?$AAa?$AAt?$AAo?$AAr?$AA?$DM?$AAc?$AAl?$AAa?$AAs?$AAs?$AA?5@ 004899a8     DeanLib:MemoryTracker.obj
 0003:00004b18       ??_C@_1BDA@KDFBOBOL@?$AAs?$AAt?$AAd?$AA?3?$AA?3?$AA_?$AAT?$AAr?$AAe?$AAe?$AA_?$AAc?$AAo?$AAn?$AAs?$AAt?$AA_?$AAi?$AAt?$AAe?$AAr?$AAa?$AAt?$AAo?$AAr?$AA?$DM?$AAc?$AAl?$AAa?$AAs?$AAs?$AA?5@ 00489b18     DeanLib:MemoryTracker.obj
 0003:00004c84       __real@00800000            00489c84     DeanLib:Vector2D.obj
 0003:00004c88       ??_C@_0CM@OKINAFCK@f?3?2dd?2vctools?2crt?2crtw32?2stdcpp?2@ 00489c88     msvcprtd:locale0_implib.obj
 0003:00004cc0       ??_7type_info@@6B@         00489cc0     MSVCRTD:std_type_info_static.obj
 0003:00004e28       ??_C@_0NN@NGPKDKPD@The?5value?5of?5ESP?5was?5not?5properl@ 00489e28     MSVCRTD:_error_.obj
 0003:00004f38       ??_C@_0BBN@GPMLNJCF@A?5cast?5to?5a?5smaller?5data?5type?5ha@ 00489f38     MSVCRTD:_error_.obj
 0003:00005090       ??_C@_0BN@FFOINMNJ@Stack?5memory?5was?5corrupted?6?$AN?$AA@ 0048a090     MSVCRTD:_error_.obj
 0003:000050b4       ??_C@_0DG@HKJMLLLP@A?5local?5variable?5was?5used?5before@ 0048a0b4     MSVCRTD:_error_.obj
 0003:000050f4       ??_C@_0CM@NGINOKPC@Stack?5memory?5around?5_alloca?5was?5@ 0048a0f4     MSVCRTD:_error_.obj
 0003:00005128       ??_C@_0BO@GNIAFIKK@Unknown?5Runtime?5Check?5Error?6?$AN?$AA@ 0048a128     MSVCRTD:_error_.obj
 0003:00005150       ??_C@_1GM@OLMCBDMB@?$AAR?$AAu?$AAn?$AAt?$AAi?$AAm?$AAe?$AA?5?$AAC?$AAh?$AAe?$AAc?$AAk?$AA?5?$AAE?$AAr?$AAr?$AAo?$AAr?$AA?4?$AA?6?$AA?$AN?$AA?5?$AAU?$AAn?$AAa?$AAb?$AAl?$AAe?$AA?5?$AAt?$AAo@ 0048a150     MSVCRTD:_error_.obj
 0003:000051d8       ??_C@_1EA@NFKNIFJP@?$AAR?$AAu?$AAn?$AA?9?$AAT?$AAi?$AAm?$AAe?$AA?5?$AAC?$AAh?$AAe?$AAc?$AAk?$AA?5?$AAF?$AAa?$AAi?$AAl?$AAu?$AAr?$AAe?$AA?5?$AA?$CD?$AA?$CF?$AAd?$AA?5?$AA?9?$AA?5?$AA?$CF?$AAs?$AA?$AA@ 0048a1d8     MSVCRTD:_error_.obj
 0003:00005224       ??_C@_0BB@PFFGGCJP@Unknown?5Filename?$AA@ 0048a224     MSVCRTD:_error_.obj
 0003:00005238       ??_C@_0BE@GNBOBNCK@Unknown?5Module?5Name?$AA@ 0048a238     MSVCRTD:_error_.obj
 0003:00005250       ??_C@_0CA@IODNCDPG@Run?9Time?5Check?5Failure?5?$CD?$CFd?5?9?5?$CFs?$AA@ 0048a250     MSVCRTD:_error_.obj
 0003:00005278       ??_C@_0CG@IAFNJNEE@Stack?5corrupted?5near?5unknown?5var@ 0048a278     MSVCRTD:_error_.obj
 0003:000052a8       ??_C@_05MKKEDADM@?$CF?42X?5?$AA@ 0048a2a8     MSVCRTD:_error_.obj
 0003:000052b0       ??_C@_0EJ@LJKNEOLN@Stack?5area?5around?5_alloca?5memory@ 0048a2b0     MSVCRTD:_error_.obj
 0003:00005308       ??_C@_08OMAHNMHJ@?6Data?3?5?$DM?$AA@ 0048a308     MSVCRTD:_error_.obj
 0003:00005314       ??_C@_0CK@DKGBICFE@?6Allocation?5number?5within?5this?5f@ 0048a314     MSVCRTD:_error_.obj
 0003:00005348       ??_C@_07DFDJCKFN@?6Size?3?5?$AA@ 0048a348     MSVCRTD:_error_.obj
 0003:00005354       ??_C@_0N@MHFFIMFG@?6Address?3?50x?$AA@ 0048a354     MSVCRTD:_error_.obj
 0003:00005368       ??_C@_0EI@CLEPFNGI@Stack?5area?5around?5_alloca?5memory@ 0048a368     MSVCRTD:_error_.obj
 0003:000053c0       ??_C@_0BC@HHMKLAND@?$CFs?$CFs?$CFp?$CFs?$CFzd?$CFs?$CFd?$CFs?$AA@ 0048a3c0     MSVCRTD:_error_.obj
 0003:000053d8       ??_C@_01EEMJAFIK@?6?$AA@   0048a3d8     MSVCRTD:_error_.obj
 0003:000053dc       ??_C@_02LLMPMKNF@?$DO?5?$AA@ 0048a3dc     MSVCRTD:_error_.obj
 0003:000053e0       ??_C@_08KJEDNCKC@?$CFs?$CFs?$CFs?$CFs?$AA@ 0048a3e0     MSVCRTD:_error_.obj
 0003:000053ec       ??_C@_0DE@OHJBPMBP@A?5variable?5is?5being?5used?5without@ 0048a3ec     MSVCRTD:_error_.obj
 0003:00005444       ??_C@_0BJ@HEGAHDFO@Stack?5pointer?5corruption?$AA@ 0048a444     MSVCRTD:_userapi_.obj
 0003:00005464       ??_C@_0CK@FEGOIOPB@Cast?5to?5smaller?5type?5causing?5los@ 0048a464     MSVCRTD:_userapi_.obj
 0003:00005498       ??_C@_0BI@CIGMDCBH@Stack?5memory?5corruption?$AA@ 0048a498     MSVCRTD:_userapi_.obj
 0003:000054b4       ??_C@_0CK@CNLNOEPB@Local?5variable?5used?5before?5initi@ 0048a4b4     MSVCRTD:_userapi_.obj
 0003:000054e8       ??_C@_0BP@OGBCLIBO@Stack?5around?5_alloca?5corrupted?$AA@ 0048a4e8     MSVCRTD:_userapi_.obj
 0003:00005520       ??_7bad_alloc@std@@6B@     0048a520     MSVCRTD:throw_bad_alloc.obj
 0003:0000552c       ??_C@_0P@GHFPNOJB@bad?5allocation?$AA@ 0048a52c     MSVCRTD:throw_bad_alloc.obj
 0003:00005544       ??_7bad_array_new_length@std@@6B@ 0048a544     MSVCRTD:throw_bad_alloc.obj
 0003:00005550       ??_C@_0BF@KINCDENJ@bad?5array?5new?5length?$AA@ 0048a550     MSVCRTD:throw_bad_alloc.obj
 0003:000055c8       ??_C@_1EI@MLPKHBGE@?$AAa?$AAp?$AAi?$AA?9?$AAm?$AAs?$AA?9?$AAw?$AAi?$AAn?$AA?9?$AAc?$AAo?$AAr?$AAe?$AA?9?$AAr?$AAe?$AAg?$AAi?$AAs?$AAt?$AAr?$AAy?$AA?9?$AAl?$AA1?$AA?9?$AA1?$AA?9?$AA0?$AA?4@ 0048a5c8     MSVCRTD:_pdblkup_.obj
 0003:00005620       ??_C@_1BK@JHLNAEJL@?$AAa?$AAd?$AAv?$AAa?$AAp?$AAi?$AA3?$AA2?$AA?4?$AAd?$AAl?$AAl?$AA?$AA@ 0048a620     MSVCRTD:_pdblkup_.obj
 0003:00005640       ??_C@_0O@COHOBMLB@RegOpenKeyExW?$AA@ 0048a640     MSVCRTD:_pdblkup_.obj
 0003:00005650       ??_C@_0BB@GLNAEDBD@RegQueryValueExW?$AA@ 0048a650     MSVCRTD:_pdblkup_.obj
 0003:00005664       ??_C@_0M@HLOHPNFA@RegCloseKey?$AA@ 0048a664     MSVCRTD:_pdblkup_.obj
 0003:00005678       ??_C@_1HE@EBEAGLFB@?$AAS?$AAO?$AAF?$AAT?$AAW?$AAA?$AAR?$AAE?$AA?2?$AAW?$AAo?$AAw?$AA6?$AA4?$AA3?$AA2?$AAN?$AAo?$AAd?$AAe?$AA?2?$AAM?$AAi?$AAc?$AAr?$AAo?$AAs?$AAo?$AAf?$AAt?$AA?2?$AAV@ 0048a678     MSVCRTD:_pdblkup_.obj
 0003:00005704       ??_C@_1BG@EABPBLLF@?$AAP?$AAr?$AAo?$AAd?$AAu?$AAc?$AAt?$AAD?$AAi?$AAr?$AA?$AA@ 0048a704     MSVCRTD:_pdblkup_.obj
 0003:00005744       ??_C@_1BC@JINFINNJ@?$AAM?$AAS?$AAP?$AAD?$AAB?$AA1?$AA4?$AA0?$AA?$AA@ 0048a744     MSVCRTD:_pdblkup_.obj
 0003:0000575c       ??_C@_0BB@KCIACLNC@PDBOpenValidate5?$AA@ 0048a75c     MSVCRTD:_pdblkup_.obj
 0003:00005770       ??_C@_01KDCPPGHE@r?$AA@    0048a770     MSVCRTD:_pdblkup_.obj
 0003:000057b8       __load_config_used         0048a7b8     MSVCRTD:loadcfg.obj
 0003:000059fc       ??_R4ChangeMapMessage@@6B@ 0048a9fc     ChangeMapMessage.obj
 0003:00005a14       ??_R3ChangeMapMessage@@8   0048aa14     ChangeMapMessage.obj
 0003:00005a28       ??_R2ChangeMapMessage@@8   0048aa28     ChangeMapMessage.obj
 0003:00005a38       ??_R1A@?0A@EA@ChangeMapMessage@@8 0048aa38     ChangeMapMessage.obj
 0003:00005a5c       ??_R1A@?0A@EA@GameMessage@@8 0048aa5c     ChangeMapMessage.obj
 0003:00005a80       ??_R3GameMessage@@8        0048aa80     ChangeMapMessage.obj
 0003:00005a94       ??_R2GameMessage@@8        0048aa94     ChangeMapMessage.obj
 0003:00005aa0       ??_R17?0A@EA@Trackable@@8  0048aaa0     ChangeMapMessage.obj
 0003:00005ac4       ??_R3Trackable@@8          0048aac4     ChangeMapMessage.obj
 0003:00005ad8       ??_R2Trackable@@8          0048aad8     ChangeMapMessage.obj
 0003:00005ae0       ??_R1A@?0A@EA@Trackable@@8 0048aae0     ChangeMapMessage.obj
 0003:00005b04       ??_R4ChangeModeMessage@@6B@ 0048ab04     ChangeModeMessage.obj
 0003:00005b1c       ??_R3ChangeModeMessage@@8  0048ab1c     ChangeModeMessage.obj
 0003:00005b30       ??_R2ChangeModeMessage@@8  0048ab30     ChangeModeMessage.obj
 0003:00005b40       ??_R1A@?0A@EA@ChangeModeMessage@@8 0048ab40     ChangeModeMessage.obj
 0003:00005b64       ??_R4EditGridMessage@@6B@  0048ab64     EditGridMessage.obj
 0003:00005b7c       ??_R3EditGridMessage@@8    0048ab7c     EditGridMessage.obj
 0003:00005b90       ??_R2EditGridMessage@@8    0048ab90     EditGridMessage.obj
 0003:00005ba0       ??_R1A@?0A@EA@EditGridMessage@@8 0048aba0     EditGridMessage.obj
 0003:00005bc4       ??_R4exception@std@@6B@    0048abc4     Editor.obj
 0003:00005bdc       ??_R3exception@std@@8      0048abdc     Editor.obj
 0003:00005bf0       ??_R2exception@std@@8      0048abf0     Editor.obj
 0003:00005bf8       ??_R1A@?0A@EA@exception@std@@8 0048abf8     Editor.obj
 0003:00005c1c       ??_R4?$basic_filebuf@DU?$char_traits@D@std@@@std@@6B@ 0048ac1c     Editor.obj
 0003:00005c34       ??_R3?$basic_filebuf@DU?$char_traits@D@std@@@std@@8 0048ac34     Editor.obj
 0003:00005c48       ??_R2?$basic_filebuf@DU?$char_traits@D@std@@@std@@8 0048ac48     Editor.obj
 0003:00005c54       ??_R1A@?0A@EA@?$basic_filebuf@DU?$char_traits@D@std@@@std@@8 0048ac54     Editor.obj
 0003:00005c78       ??_R1A@?0A@EA@?$basic_streambuf@DU?$char_traits@D@std@@@std@@8 0048ac78     Editor.obj
 0003:00005c9c       ??_R3?$basic_streambuf@DU?$char_traits@D@std@@@std@@8 0048ac9c     Editor.obj
 0003:00005cb0       ??_R2?$basic_streambuf@DU?$char_traits@D@std@@@std@@8 0048acb0     Editor.obj
 0003:00005cb8       ??_R4?$basic_ifstream@DU?$char_traits@D@std@@@std@@6B@ 0048acb8     Editor.obj
 0003:00005cd0       ??_R3?$basic_ifstream@DU?$char_traits@D@std@@@std@@8 0048acd0     Editor.obj
 0003:00005ce4       ??_R2?$basic_ifstream@DU?$char_traits@D@std@@@std@@8 0048ace4     Editor.obj
 0003:00005d00       ??_R1A@?0A@EA@?$basic_ifstream@DU?$char_traits@D@std@@@std@@8 0048ad00     Editor.obj
 0003:00005d24       ??_R1A@?0A@EA@?$basic_istream@DU?$char_traits@D@std@@@std@@8 0048ad24     Editor.obj
 0003:00005d48       ??_R3?$basic_istream@DU?$char_traits@D@std@@@std@@8 0048ad48     Editor.obj
 0003:00005d5c       ??_R2?$basic_istream@DU?$char_traits@D@std@@@std@@8 0048ad5c     Editor.obj
 0003:00005d70       ??_R1A@A@3FA@?$basic_ios@DU?$char_traits@D@std@@@std@@8 0048ad70     Editor.obj
 0003:00005d94       ??_R3?$basic_ios@DU?$char_traits@D@std@@@std@@8 0048ad94     Editor.obj
 0003:00005da8       ??_R2?$basic_ios@DU?$char_traits@D@std@@@std@@8 0048ada8     Editor.obj
 0003:00005db8       ??_R1A@?0A@EA@?$basic_ios@DU?$char_traits@D@std@@@std@@8 0048adb8     Editor.obj
 0003:00005ddc       ??_R1A@?0A@EA@ios_base@std@@8 0048addc     Editor.obj
 0003:00005e00       ??_R3ios_base@std@@8       0048ae00     Editor.obj
 0003:00005e14       ??_R2ios_base@std@@8       0048ae14     Editor.obj
 0003:00005e20       ??_R17?0A@EA@?$_Iosb@H@std@@8 0048ae20     Editor.obj
 0003:00005e44       ??_R3?$_Iosb@H@std@@8      0048ae44     Editor.obj
 0003:00005e58       ??_R2?$_Iosb@H@std@@8      0048ae58     Editor.obj
 0003:00005e60       ??_R1A@?0A@EA@?$_Iosb@H@std@@8 0048ae60     Editor.obj
 0003:00005e84       ??_R1A@A@3EA@ios_base@std@@8 0048ae84     Editor.obj
 0003:00005ea8       ??_R17A@3EA@?$_Iosb@H@std@@8 0048aea8     Editor.obj
 0003:00005ecc       ??_R4bad_cast@std@@6B@     0048aecc     Editor.obj
 0003:00005ee4       ??_R3bad_cast@std@@8       0048aee4     Editor.obj
 0003:00005ef8       ??_R2bad_cast@std@@8       0048aef8     Editor.obj
 0003:00005f04       ??_R1A@?0A@EA@bad_cast@std@@8 0048af04     Editor.obj
 0003:00005f28       ??_R4Editor@@6B@           0048af28     Editor.obj
 0003:00005f40       ??_R3Editor@@8             0048af40     Editor.obj
 0003:00005f54       ??_R2Editor@@8             0048af54     Editor.obj
 0003:00005f64       ??_R1A@?0A@EA@Editor@@8    0048af64     Editor.obj
 0003:00005f88       ??_R1A@?0A@EA@Game@@8      0048af88     Editor.obj
 0003:00005fac       ??_R3Game@@8               0048afac     Editor.obj
 0003:00005fc0       ??_R2Game@@8               0048afc0     Editor.obj
 0003:00005fcc       ??_R13?0A@EA@Trackable@@8  0048afcc     Editor.obj
 0003:00005ff0       ??_R4ExitGameMessage@@6B@  0048aff0     ExitGameMessage.obj
 0003:00006008       ??_R3ExitGameMessage@@8    0048b008     ExitGameMessage.obj
 0003:0000601c       ??_R2ExitGameMessage@@8    0048b01c     ExitGameMessage.obj
 0003:0000602c       ??_R1A@?0A@EA@ExitGameMessage@@8 0048b02c     ExitGameMessage.obj
 0003:00006050       ??_R4GameMessage@@6B@      0048b050     GameMessage.obj
 0003:00006068       ??_R4LoadMessage@@6B@      0048b068     LoadMessage.obj
 0003:00006080       ??_R3LoadMessage@@8        0048b080     LoadMessage.obj
 0003:00006094       ??_R2LoadMessage@@8        0048b094     LoadMessage.obj
 0003:000060a4       ??_R1A@?0A@EA@LoadMessage@@8 0048b0a4     LoadMessage.obj
 0003:000060c8       ??_R4?$basic_ofstream@DU?$char_traits@D@std@@@std@@6B@ 0048b0c8     SaveMessage.obj
 0003:000060e0       ??_R3?$basic_ofstream@DU?$char_traits@D@std@@@std@@8 0048b0e0     SaveMessage.obj
 0003:000060f4       ??_R2?$basic_ofstream@DU?$char_traits@D@std@@@std@@8 0048b0f4     SaveMessage.obj
 0003:00006110       ??_R1A@?0A@EA@?$basic_ofstream@DU?$char_traits@D@std@@@std@@8 0048b110     SaveMessage.obj
 0003:00006134       ??_R1A@?0A@EA@?$basic_ostream@DU?$char_traits@D@std@@@std@@8 0048b134     SaveMessage.obj
 0003:00006158       ??_R3?$basic_ostream@DU?$char_traits@D@std@@@std@@8 0048b158     SaveMessage.obj
 0003:0000616c       ??_R2?$basic_ostream@DU?$char_traits@D@std@@@std@@8 0048b16c     SaveMessage.obj
 0003:00006180       ??_R4SaveMessage@@6B@      0048b180     SaveMessage.obj
 0003:00006198       ??_R3SaveMessage@@8        0048b198     SaveMessage.obj
 0003:000061ac       ??_R2SaveMessage@@8        0048b1ac     SaveMessage.obj
 0003:000061bc       ??_R1A@?0A@EA@SaveMessage@@8 0048b1bc     SaveMessage.obj
 0003:000061e0       ??_R4ToggleHelpMessage@@6B@ 0048b1e0     ToggleHelpMessage.obj
 0003:000061f8       ??_R3ToggleHelpMessage@@8  0048b1f8     ToggleHelpMessage.obj
 0003:0000620c       ??_R2ToggleHelpMessage@@8  0048b20c     ToggleHelpMessage.obj
 0003:0000621c       ??_R1A@?0A@EA@ToggleHelpMessage@@8 0048b21c     ToggleHelpMessage.obj
 0003:00006240       ??_R4Game@@6B@             0048b240     CommonPathfindingLib:Game.obj
 0003:00006258       ??_R4type_info@@6B@        0048b258     MSVCRTD:std_type_info_static.obj
 0003:00006270       ??_R3type_info@@8          0048b270     MSVCRTD:std_type_info_static.obj
 0003:00006284       ??_R2type_info@@8          0048b284     MSVCRTD:std_type_info_static.obj
 0003:0000628c       ??_R1A@?0A@EA@type_info@@8 0048b28c     MSVCRTD:std_type_info_static.obj
 0003:000062b0       ??_R4bad_alloc@std@@6B@    0048b2b0     MSVCRTD:throw_bad_alloc.obj
 0003:000062c8       ??_R3bad_alloc@std@@8      0048b2c8     MSVCRTD:throw_bad_alloc.obj
 0003:000062dc       ??_R2bad_alloc@std@@8      0048b2dc     MSVCRTD:throw_bad_alloc.obj
 0003:000062e8       ??_R1A@?0A@EA@bad_alloc@std@@8 0048b2e8     MSVCRTD:throw_bad_alloc.obj
 0003:0000630c       ??_R4bad_array_new_length@std@@6B@ 0048b30c     MSVCRTD:throw_bad_alloc.obj
 0003:00006324       ??_R3bad_array_new_length@std@@8 0048b324     MSVCRTD:throw_bad_alloc.obj
 0003:00006338       ??_R2bad_array_new_length@std@@8 0048b338     MSVCRTD:throw_bad_alloc.obj
 0003:00006348       ??_R1A@?0A@EA@bad_array_new_length@std@@8 0048b348     MSVCRTD:throw_bad_alloc.obj
 0003:00006654       ___rtc_iaa                 0048b654     MSVCRTD:_initsect_.obj
 0003:000068d0       ___rtc_izz                 0048b8d0     MSVCRTD:_initsect_.obj
 0003:000069d4       ___rtc_taa                 0048b9d4     MSVCRTD:_initsect_.obj
 0003:00006c50       ___rtc_tzz                 0048bc50     MSVCRTD:_initsect_.obj
 0003:00007624       __CT??_R0?AVexception@std@@@8??0exception@std@@QAE@ABV01@@Z12 0048c624     Editor.obj
 0003:00007644       __TI2?AVbad_cast@std@@     0048c644     Editor.obj
 0003:00007658       __CTA2?AVbad_cast@std@@    0048c658     Editor.obj
 0003:00007668       __CT??_R0?AVbad_cast@std@@@8??0bad_cast@std@@QAE@ABV01@@Z12 0048c668     Editor.obj
 0003:0000a6b0       __TI2?AVbad_alloc@std@@    0048f6b0     MSVCRTD:throw_bad_alloc.obj
 0003:0000a6c4       __CTA2?AVbad_alloc@std@@   0048f6c4     MSVCRTD:throw_bad_alloc.obj
 0003:0000a6d4       __CT??_R0?AVbad_alloc@std@@@8??0bad_alloc@std@@QAE@ABV01@@Z12 0048f6d4     MSVCRTD:throw_bad_alloc.obj
 0003:0000a6f4       __TI3?AVbad_array_new_length@std@@ 0048f6f4     MSVCRTD:throw_bad_alloc.obj
 0003:0000a708       __CTA3?AVbad_array_new_length@std@@ 0048f708     MSVCRTD:throw_bad_alloc.obj
 0003:0000a71c       __CT??_R0?AVbad_array_new_length@std@@@8??0bad_array_new_length@std@@QAE@ABV01@@Z12 0048f71c     MSVCRTD:throw_bad_alloc.obj
 0004:00000000       ?__LINE__Var@?0??_Allocate@std@@YAPAXII_N@Z@4JA 00490000     Editor.obj
 0004:00000004       ?__LINE__Var@?0??_Deallocate@std@@YAXPAXII@Z@4JA 00490004     Editor.obj
 0004:00000008       ?__LINE__Var@?0??lerp@@YAMHHH@Z@4JA 00490008     CommonPathfindingLib:Game.obj
 0004:00000034       __fltused                  00490034     MSVCRTD:fltused.obj
 0004:00000038       ___security_cookie_complement 00490038     MSVCRTD:gs_cookie.obj
 0004:0000003c       ___security_cookie         0049003c     MSVCRTD:gs_cookie.obj
 0004:00000044       ___scrt_native_dllmain_reason 00490044     MSVCRTD:utility.obj
 0004:00000050       ?_RTC_ErrorLevels@@3PAHA   00490050     MSVCRTD:_error_.obj
 0004:00000068       ___isa_enabled             00490068     MSVCRTD:_cpu_disp_.obj
 0004:0000006c       ___scrt_default_matherr    0049006c     MSVCRTD:matherr.obj
 0004:00000070       ___scrt_ucrt_dll_is_in_use 00490070     MSVCRTD:ucrt_stubs.obj
 0004:00000180       ??_R0?AVGame@@@8           00490180     ChangeMapMessage.obj
 0004:00000198       ??_R0?AVEditor@@@8         00490198     ChangeMapMessage.obj
 0004:000001b4       ??_R0?AVChangeMapMessage@@@8 004901b4     ChangeMapMessage.obj
 0004:000001dc       ??_R0?AVGameMessage@@@8    004901dc     ChangeMapMessage.obj
 0004:000001fc       ??_R0?AVTrackable@@@8      004901fc     ChangeMapMessage.obj
 0004:00000218       ??_R0?AVChangeModeMessage@@@8 00490218     ChangeModeMessage.obj
 0004:00000240       ??_R0?AVEditGridMessage@@@8 00490240     EditGridMessage.obj
 0004:00000264       ??_R0?AVexception@std@@@8  00490264     Editor.obj
 0004:00000288       ??_R0?AVbad_cast@std@@@8   00490288     Editor.obj
 0004:000002a8       ??_R0?AV?$basic_filebuf@DU?$char_traits@D@std@@@std@@@8 004902a8     Editor.obj
 0004:000002f0       ??_R0?AV?$basic_streambuf@DU?$char_traits@D@std@@@std@@@8 004902f0     Editor.obj
 0004:00000338       ??_R0?AV?$basic_ifstream@DU?$char_traits@D@std@@@std@@@8 00490338     Editor.obj
 0004:00000380       ??_R0?AV?$basic_istream@DU?$char_traits@D@std@@@std@@@8 00490380     Editor.obj
 0004:000003c8       ??_R0?AV?$basic_ios@DU?$char_traits@D@std@@@std@@@8 004903c8     Editor.obj
 0004:00000408       ??_R0?AVios_base@std@@@8   00490408     Editor.obj
 0004:00000428       ??_R0?AV?$_Iosb@H@std@@@8  00490428     Editor.obj
 0004:0000044c       ??_R0?AVExitGameMessage@@@8 0049044c     ExitGameMessage.obj
 0004:00000470       ??_R0?AVLoadMessage@@@8    00490470     LoadMessage.obj
 0004:00000490       ??_R0?AV?$basic_ofstream@DU?$char_traits@D@std@@@std@@@8 00490490     SaveMessage.obj
 0004:000004d8       ??_R0?AV?$basic_ostream@DU?$char_traits@D@std@@@std@@@8 004904d8     SaveMessage.obj
 0004:00000520       ??_R0?AVSaveMessage@@@8    00490520     SaveMessage.obj
 0004:00000540       ??_R0?AVToggleHelpMessage@@@8 00490540     ToggleHelpMessage.obj
 0004:00000568       ??_R0?AVtype_info@@@8      00490568     MSVCRTD:std_type_info_static.obj
 0004:00000584       ??_R0?AVbad_alloc@std@@@8  00490584     MSVCRTD:throw_bad_alloc.obj
 0004:000005a8       ??_R0?AVbad_array_new_length@std@@@8 004905a8     MSVCRTD:throw_bad_alloc.obj
 0004:0000072c       ?_Stinit@?1??_Init@?$basic_filebuf@DU?$char_traits@D@std@@@std@@IAEXPAU_iobuf@@W4_Initfl@23@@Z@4U_Mbstatet@@A 0049072c     Editor.obj
 0004:00000738       ?_Psave@?$_Facetptr@V?$codecvt@DDU_Mbstatet@@@std@@@std@@2PBVfacet@locale@2@B 00490738     Editor.obj
 0004:00000770       ?_OptionsStorage@?1??__local_stdio_printf_options@@9@4_KA 00490770     InputManager.obj
 0004:000007f0       ?gpGame@@3PAVGame@@A       004907f0     CommonPathfindingLib:Game.obj
 0004:00000808       ?msNextID@GraphicsBufferManager@@0HA 00490808     CommonPathfindingLib:GraphicsBufferManager.obj
 0004:0000083c       ?msAllocationNum@MemoryTracker@@0HA 0049083c     DeanLib:MemoryTracker.obj
 0004:00000840       ?gMemoryTracker@@3VMemoryTracker@@A 00490840     DeanLib:MemoryTracker.obj
 0004:00000850       ?gZeroVector2D@@3VVector2D@@A 00490850     DeanLib:Vector2D.obj
 0004:00000864       ___scrt_current_native_startup_state 00490864     MSVCRTD:utility.obj
 0004:00000868       ___scrt_native_startup_lock 00490868     MSVCRTD:utility.obj
 0004:00000c54       ___isa_available           00490c54     MSVCRTD:_cpu_disp_.obj
 0004:00000c58       ___favor                   00490c58     MSVCRTD:_cpu_disp_.obj
 0004:00000c60       ___scrt_debugger_hook_flag 00490c60     MSVCRTD:utility_desktop.obj
 0004:00000c68       ?__type_info_root_node@@3U__type_info_node@@A 00490c68     MSVCRTD:tncleanup.obj
 0004:00000c78       ?_OptionsStorage@?1??__local_stdio_scanf_options@@9@4_KA 00490c78     MSVCRTD:default_local_stdio_options.obj
 0004:00000c8c       ___dyn_tls_dtor_callback   00490c8c     <common>
 0004:00000c98       ___dyn_tls_init_callback   00490c98     <common>
 0005:00000000       __imp__GetProcAddress@8    00491000     kernel32:KERNEL32.dll
 0005:00000004       __imp__FreeLibrary@4       00491004     kernel32:KERNEL32.dll
 0005:00000008       __imp__VirtualQuery@12     00491008     kernel32:KERNEL32.dll
 0005:0000000c       __imp__GetProcessHeap@0    0049100c     kernel32:KERNEL32.dll
 0005:00000010       __imp__HeapFree@12         00491010     kernel32:KERNEL32.dll
 0005:00000014       __imp__HeapAlloc@12        00491014     kernel32:KERNEL32.dll
 0005:00000018       __imp__GetLastError@0      00491018     kernel32:KERNEL32.dll
 0005:0000001c       __imp__InitializeSListHead@4 0049101c     kernel32:KERNEL32.dll
 0005:00000020       __imp__GetSystemTimeAsFileTime@4 00491020     kernel32:KERNEL32.dll
 0005:00000024       __imp__GetCurrentThreadId@0 00491024     kernel32:KERNEL32.dll
 0005:00000028       __imp__GetCurrentProcessId@0 00491028     kernel32:KERNEL32.dll
 0005:0000002c       __imp__GetModuleHandleW@4  0049102c     kernel32:KERNEL32.dll
 0005:00000030       __imp__GetStartupInfoW@4   00491030     kernel32:KERNEL32.dll
 0005:00000034       __imp__IsProcessorFeaturePresent@4 00491034     kernel32:KERNEL32.dll
 0005:00000038       __imp__TerminateProcess@8  00491038     kernel32:KERNEL32.dll
 0005:0000003c       __imp__GetCurrentProcess@0 0049103c     kernel32:KERNEL32.dll
 0005:00000040       __imp__SetUnhandledExceptionFilter@4 00491040     kernel32:KERNEL32.dll
 0005:00000044       __imp__UnhandledExceptionFilter@4 00491044     kernel32:KERNEL32.dll
 0005:00000048       __imp__WideCharToMultiByte@32 00491048     kernel32:KERNEL32.dll
 0005:0000004c       __imp__MultiByteToWideChar@24 0049104c     kernel32:KERNEL32.dll
 0005:00000050       __imp__RaiseException@16   00491050     kernel32:KERNEL32.dll
 0005:00000054       __imp__IsDebuggerPresent@0 00491054     kernel32:KERNEL32.dll
 0005:00000058       __imp__Sleep@4             00491058     kernel32:KERNEL32.dll
 0005:0000005c       __imp__QueryPerformanceFrequency@4 0049105c     kernel32:KERNEL32.dll
 0005:00000060       __imp__QueryPerformanceCounter@4 00491060     kernel32:KERNEL32.dll
 0005:00000064       \177KERNEL32_NULL_THUNK_DATA 00491064     kernel32:KERNEL32.dll
 0005:000000a4       __imp_??1?$basic_ostream@DU?$char_traits@D@std@@@std@@UAE@XZ 004910a4     msvcprtd:MSVCP140D.dll
 0005:000000a8       __imp_??5?$basic_istream@DU?$char_traits@D@std@@@std@@QAEAAV01@AAH@Z 004910a8     msvcprtd:MSVCP140D.dll
 0005:000000ac       __imp_?id@?$codecvt@DDU_Mbstatet@@@std@@2V0locale@2@A 004910ac     msvcprtd:MSVCP140D.dll
 0005:000000b0       __imp_?_BADOFF@std@@3_JB   004910b0     msvcprtd:MSVCP140D.dll
 0005:000000b4       __imp_?xsputn@?$basic_streambuf@DU?$char_traits@D@std@@@std@@MAE_JPBD_J@Z 004910b4     msvcprtd:MSVCP140D.dll
 0005:000000b8       __imp_?xsgetn@?$basic_streambuf@DU?$char_traits@D@std@@@std@@MAE_JPAD_J@Z 004910b8     msvcprtd:MSVCP140D.dll
 0005:000000bc       __imp_?showmanyc@?$basic_streambuf@DU?$char_traits@D@std@@@std@@MAE_JXZ 004910bc     msvcprtd:MSVCP140D.dll
 0005:000000c0       __imp_?_Fiopen@std@@YAPAU_iobuf@@PBDHH@Z 004910c0     msvcprtd:MSVCP140D.dll
 0005:000000c4       __imp_??1?$basic_istream@DU?$char_traits@D@std@@@std@@UAE@XZ 004910c4     msvcprtd:MSVCP140D.dll
 0005:000000c8       __imp_??0?$basic_istream@DU?$char_traits@D@std@@@std@@QAE@PAV?$basic_streambuf@DU?$char_traits@D@std@@@1@_N@Z 004910c8     msvcprtd:MSVCP140D.dll
 0005:000000cc       __imp_??0?$basic_ios@DU?$char_traits@D@std@@@std@@IAE@XZ 004910cc     msvcprtd:MSVCP140D.dll
 0005:000000d0       __imp_??1?$basic_ios@DU?$char_traits@D@std@@@std@@UAE@XZ 004910d0     msvcprtd:MSVCP140D.dll
 0005:000000d4       __imp_?_Init@?$basic_streambuf@DU?$char_traits@D@std@@@std@@IAEXPAPAD0PAH001@Z 004910d4     msvcprtd:MSVCP140D.dll
 0005:000000d8       __imp_?_Init@?$basic_streambuf@DU?$char_traits@D@std@@@std@@IAEXXZ 004910d8     msvcprtd:MSVCP140D.dll
 0005:000000dc       __imp_?_Pninc@?$basic_streambuf@DU?$char_traits@D@std@@@std@@IAEPADXZ 004910dc     msvcprtd:MSVCP140D.dll
 0005:000000e0       __imp_?_Gninc@?$basic_streambuf@DU?$char_traits@D@std@@@std@@IAEPADXZ 004910e0     msvcprtd:MSVCP140D.dll
 0005:000000e4       __imp_?_Gndec@?$basic_streambuf@DU?$char_traits@D@std@@@std@@IAEPADXZ 004910e4     msvcprtd:MSVCP140D.dll
 0005:000000e8       __imp_?epptr@?$basic_streambuf@DU?$char_traits@D@std@@@std@@IBEPADXZ 004910e8     msvcprtd:MSVCP140D.dll
 0005:000000ec       __imp_?setg@?$basic_streambuf@DU?$char_traits@D@std@@@std@@IAEXPAD00@Z 004910ec     msvcprtd:MSVCP140D.dll
 0005:000000f0       __imp_?egptr@?$basic_streambuf@DU?$char_traits@D@std@@@std@@IBEPADXZ 004910f0     msvcprtd:MSVCP140D.dll
 0005:000000f4       __imp_?pptr@?$basic_streambuf@DU?$char_traits@D@std@@@std@@IBEPADXZ 004910f4     msvcprtd:MSVCP140D.dll
 0005:000000f8       __imp_?gptr@?$basic_streambuf@DU?$char_traits@D@std@@@std@@IBEPADXZ 004910f8     msvcprtd:MSVCP140D.dll
 0005:000000fc       __imp_?eback@?$basic_streambuf@DU?$char_traits@D@std@@@std@@IBEPADXZ 004910fc     msvcprtd:MSVCP140D.dll
 0005:00000100       __imp_?getloc@?$basic_streambuf@DU?$char_traits@D@std@@@std@@QBE?AVlocale@2@XZ 00491100     msvcprtd:MSVCP140D.dll
 0005:00000104       __imp_??6?$basic_ostream@DU?$char_traits@D@std@@@std@@QAEAAV01@I@Z 00491104     msvcprtd:MSVCP140D.dll
 0005:00000108       __imp_??6?$basic_ostream@DU?$char_traits@D@std@@@std@@QAEAAV01@PBX@Z 00491108     msvcprtd:MSVCP140D.dll
 0005:0000010c       __imp_??0?$basic_ostream@DU?$char_traits@D@std@@@std@@QAE@PAV?$basic_streambuf@DU?$char_traits@D@std@@@1@_N@Z 0049110c     msvcprtd:MSVCP140D.dll
 0005:00000110       __imp_?uncaught_exception@std@@YA_NXZ 00491110     msvcprtd:MSVCP140D.dll
 0005:00000114       __imp_?good@ios_base@std@@QBE_NXZ 00491114     msvcprtd:MSVCP140D.dll
 0005:00000118       __imp_?flags@ios_base@std@@QBEHXZ 00491118     msvcprtd:MSVCP140D.dll
 0005:0000011c       __imp_?width@ios_base@std@@QBE_JXZ 0049111c     msvcprtd:MSVCP140D.dll
 0005:00000120       __imp_?width@ios_base@std@@QAE_J_J@Z 00491120     msvcprtd:MSVCP140D.dll
 0005:00000124       __imp_?sputc@?$basic_streambuf@DU?$char_traits@D@std@@@std@@QAEHD@Z 00491124     msvcprtd:MSVCP140D.dll
 0005:00000128       __imp_?sputn@?$basic_streambuf@DU?$char_traits@D@std@@@std@@QAE_JPBD_J@Z 00491128     msvcprtd:MSVCP140D.dll
 0005:0000012c       __imp_?setstate@?$basic_ios@DU?$char_traits@D@std@@@std@@QAEXH_N@Z 0049112c     msvcprtd:MSVCP140D.dll
 0005:00000130       __imp_?tie@?$basic_ios@DU?$char_traits@D@std@@@std@@QBEPAV?$basic_ostream@DU?$char_traits@D@std@@@2@XZ 00491130     msvcprtd:MSVCP140D.dll
 0005:00000134       __imp_?rdbuf@?$basic_ios@DU?$char_traits@D@std@@@std@@QBEPAV?$basic_streambuf@DU?$char_traits@D@std@@@2@XZ 00491134     msvcprtd:MSVCP140D.dll
 0005:00000138       __imp_?fill@?$basic_ios@DU?$char_traits@D@std@@@std@@QBEDXZ 00491138     msvcprtd:MSVCP140D.dll
 0005:0000013c       __imp_?widen@?$basic_ios@DU?$char_traits@D@std@@@std@@QBEDD@Z 0049113c     msvcprtd:MSVCP140D.dll
 0005:00000140       __imp_?_Osfx@?$basic_ostream@DU?$char_traits@D@std@@@std@@QAEXXZ 00491140     msvcprtd:MSVCP140D.dll
 0005:00000144       __imp_??6?$basic_ostream@DU?$char_traits@D@std@@@std@@QAEAAV01@P6AAAV01@AAV01@@Z@Z 00491144     msvcprtd:MSVCP140D.dll
 0005:00000148       __imp_??6?$basic_ostream@DU?$char_traits@D@std@@@std@@QAEAAV01@H@Z 00491148     msvcprtd:MSVCP140D.dll
 0005:0000014c       __imp_?put@?$basic_ostream@DU?$char_traits@D@std@@@std@@QAEAAV12@D@Z 0049114c     msvcprtd:MSVCP140D.dll
 0005:00000150       __imp_?flush@?$basic_ostream@DU?$char_traits@D@std@@@std@@QAEAAV12@XZ 00491150     msvcprtd:MSVCP140D.dll
 0005:00000154       __imp_?cout@std@@3V?$basic_ostream@DU?$char_traits@D@std@@@1@A 00491154     msvcprtd:MSVCP140D.dll
 0005:00000158       __imp_??0_Lockit@std@@QAE@H@Z 00491158     msvcprtd:MSVCP140D.dll
 0005:0000015c       __imp_??1_Lockit@std@@QAE@XZ 0049115c     msvcprtd:MSVCP140D.dll
 0005:00000160       __imp_?_Debug_message@std@@YAXPB_W0I@Z 00491160     msvcprtd:MSVCP140D.dll
 0005:00000164       __imp_?_Xbad_alloc@std@@YAXXZ 00491164     msvcprtd:MSVCP140D.dll
 0005:00000168       __imp_?_Xlength_error@std@@YAXPBD@Z 00491168     msvcprtd:MSVCP140D.dll
 0005:0000016c       __imp_?_Xout_of_range@std@@YAXPBD@Z 0049116c     msvcprtd:MSVCP140D.dll
 0005:00000170       __imp_??Bid@locale@std@@QAEIXZ 00491170     msvcprtd:MSVCP140D.dll
 0005:00000174       __imp_?_Getgloballocale@locale@std@@CAPAV_Locimp@12@XZ 00491174     msvcprtd:MSVCP140D.dll
 0005:00000178       __imp_?always_noconv@codecvt_base@std@@QBE_NXZ 00491178     msvcprtd:MSVCP140D.dll
 0005:0000017c       __imp_?in@?$codecvt@DDU_Mbstatet@@@std@@QBEHAAU_Mbstatet@@PBD1AAPBDPAD3AAPAD@Z 0049117c     msvcprtd:MSVCP140D.dll
 0005:00000180       __imp_?out@?$codecvt@DDU_Mbstatet@@@std@@QBEHAAU_Mbstatet@@PBD1AAPBDPAD3AAPAD@Z 00491180     msvcprtd:MSVCP140D.dll
 0005:00000184       __imp_?unshift@?$codecvt@DDU_Mbstatet@@@std@@QBEHAAU_Mbstatet@@PAD1AAPAD@Z 00491184     msvcprtd:MSVCP140D.dll
 0005:00000188       __imp_?_Getcat@?$codecvt@DDU_Mbstatet@@@std@@SAIPAPBVfacet@locale@2@PBV42@@Z 00491188     msvcprtd:MSVCP140D.dll
 0005:0000018c       __imp_??0?$basic_streambuf@DU?$char_traits@D@std@@@std@@IAE@XZ 0049118c     msvcprtd:MSVCP140D.dll
 0005:00000190       __imp_??1?$basic_streambuf@DU?$char_traits@D@std@@@std@@UAE@XZ 00491190     msvcprtd:MSVCP140D.dll
 0005:00000194       \177MSVCP140D_NULL_THUNK_DATA 00491194     msvcprtd:MSVCP140D.dll
 0005:000001f0       __imp____vcrt_GetModuleHandleW 004911f0     vcruntimed:VCRUNTIME140D.dll
 0005:000001f4       __imp____vcrt_GetModuleFileNameW 004911f4     vcruntimed:VCRUNTIME140D.dll
 0005:000001f8       __imp____std_type_info_destroy_list 004911f8     vcruntimed:VCRUNTIME140D.dll
 0005:000001fc       __imp___except_handler4_common 004911fc     vcruntimed:VCRUNTIME140D.dll
 0005:00000200       __imp__memcmp              00491200     vcruntimed:VCRUNTIME140D.dll
 0005:00000204       __imp___purecall           00491204     vcruntimed:VCRUNTIME140D.dll
 0005:00000208       __imp___CxxThrowException@8 00491208     vcruntimed:VCRUNTIME140D.dll
 0005:0000020c       __imp____std_exception_destroy 0049120c     vcruntimed:VCRUNTIME140D.dll
 0005:00000210       __imp____std_exception_copy 00491210     vcruntimed:VCRUNTIME140D.dll
 0005:00000214       __imp__memset              00491214     vcruntimed:VCRUNTIME140D.dll
 0005:00000218       __imp__memmove             00491218     vcruntimed:VCRUNTIME140D.dll
 0005:0000021c       __imp__memcpy              0049121c     vcruntimed:VCRUNTIME140D.dll
 0005:00000220       __imp____CxxFrameHandler3  00491220     vcruntimed:VCRUNTIME140D.dll
 0005:00000224       __imp____RTDynamicCast     00491224     vcruntimed:VCRUNTIME140D.dll
 0005:00000228       __imp____vcrt_LoadLibraryExW 00491228     vcruntimed:VCRUNTIME140D.dll
 0005:0000022c       \177VCRUNTIME140D_NULL_THUNK_DATA 0049122c     vcruntimed:VCRUNTIME140D.dll
 0005:00000264       __imp__al_shutdown_primitives_addon 00491264     allegro-5.0.10-monolith-md-debug:allegro-5.0.10-monolith-md-debug.dll
 0005:00000268       __imp__al_init_primitives_addon 00491268     allegro-5.0.10-monolith-md-debug:allegro-5.0.10-monolith-md-debug.dll
 0005:0000026c       __imp__al_shutdown_ttf_addon 0049126c     allegro-5.0.10-monolith-md-debug:allegro-5.0.10-monolith-md-debug.dll
 0005:00000270       __imp__al_init_ttf_addon   00491270     allegro-5.0.10-monolith-md-debug:allegro-5.0.10-monolith-md-debug.dll
 0005:00000274       __imp__al_load_ttf_font    00491274     allegro-5.0.10-monolith-md-debug:allegro-5.0.10-monolith-md-debug.dll
 0005:00000278       __imp__al_draw_filled_rectangle 00491278     allegro-5.0.10-monolith-md-debug:allegro-5.0.10-monolith-md-debug.dll
 0005:0000027c       __imp__al_init_font_addon  0049127c     allegro-5.0.10-monolith-md-debug:allegro-5.0.10-monolith-md-debug.dll
 0005:00000280       __imp__al_destroy_font     00491280     allegro-5.0.10-monolith-md-debug:allegro-5.0.10-monolith-md-debug.dll
 0005:00000284       __imp__al_shutdown_image_addon 00491284     allegro-5.0.10-monolith-md-debug:allegro-5.0.10-monolith-md-debug.dll
 0005:00000288       __imp__al_init_image_addon 00491288     allegro-5.0.10-monolith-md-debug:allegro-5.0.10-monolith-md-debug.dll
 0005:0000028c       __imp__al_init_acodec_addon 0049128c     allegro-5.0.10-monolith-md-debug:allegro-5.0.10-monolith-md-debug.dll
 0005:00000290       __imp__al_reserve_samples  00491290     allegro-5.0.10-monolith-md-debug:allegro-5.0.10-monolith-md-debug.dll
 0005:00000294       __imp__al_create_display   00491294     allegro-5.0.10-monolith-md-debug:allegro-5.0.10-monolith-md-debug.dll
 0005:00000298       __imp__al_destroy_display  00491298     allegro-5.0.10-monolith-md-debug:allegro-5.0.10-monolith-md-debug.dll
 0005:0000029c       __imp__al_set_target_bitmap 0049129c     allegro-5.0.10-monolith-md-debug:allegro-5.0.10-monolith-md-debug.dll
 0005:000002a0       __imp__al_get_backbuffer   004912a0     allegro-5.0.10-monolith-md-debug:allegro-5.0.10-monolith-md-debug.dll
 0005:000002a4       __imp__al_get_target_bitmap 004912a4     allegro-5.0.10-monolith-md-debug:allegro-5.0.10-monolith-md-debug.dll
 0005:000002a8       __imp__al_flip_display     004912a8     allegro-5.0.10-monolith-md-debug:allegro-5.0.10-monolith-md-debug.dll
 0005:000002ac       __imp__al_create_sub_bitmap 004912ac     allegro-5.0.10-monolith-md-debug:allegro-5.0.10-monolith-md-debug.dll
 0005:000002b0       __imp__al_draw_bitmap      004912b0     allegro-5.0.10-monolith-md-debug:allegro-5.0.10-monolith-md-debug.dll
 0005:000002b4       __imp__al_draw_rotated_bitmap 004912b4     allegro-5.0.10-monolith-md-debug:allegro-5.0.10-monolith-md-debug.dll
 0005:000002b8       __imp__al_create_bitmap    004912b8     allegro-5.0.10-monolith-md-debug:allegro-5.0.10-monolith-md-debug.dll
 0005:000002bc       __imp__al_destroy_bitmap   004912bc     allegro-5.0.10-monolith-md-debug:allegro-5.0.10-monolith-md-debug.dll
 0005:000002c0       __imp__al_clone_bitmap     004912c0     allegro-5.0.10-monolith-md-debug:allegro-5.0.10-monolith-md-debug.dll
 0005:000002c4       __imp__al_load_bitmap      004912c4     allegro-5.0.10-monolith-md-debug:allegro-5.0.10-monolith-md-debug.dll
 0005:000002c8       __imp__al_clear_to_color   004912c8     allegro-5.0.10-monolith-md-debug:allegro-5.0.10-monolith-md-debug.dll
 0005:000002cc       __imp__al_shutdown_font_addon 004912cc     allegro-5.0.10-monolith-md-debug:allegro-5.0.10-monolith-md-debug.dll
 0005:000002d0       __imp__al_get_bitmap_height 004912d0     allegro-5.0.10-monolith-md-debug:allegro-5.0.10-monolith-md-debug.dll
 0005:000002d4       __imp__al_map_rgb          004912d4     allegro-5.0.10-monolith-md-debug:allegro-5.0.10-monolith-md-debug.dll
 0005:000002d8       __imp__al_draw_text        004912d8     allegro-5.0.10-monolith-md-debug:allegro-5.0.10-monolith-md-debug.dll
 0005:000002dc       __imp__al_get_font_line_height 004912dc     allegro-5.0.10-monolith-md-debug:allegro-5.0.10-monolith-md-debug.dll
 0005:000002e0       __imp__al_create_event_queue 004912e0     allegro-5.0.10-monolith-md-debug:allegro-5.0.10-monolith-md-debug.dll
 0005:000002e4       __imp__al_destroy_event_queue 004912e4     allegro-5.0.10-monolith-md-debug:allegro-5.0.10-monolith-md-debug.dll
 0005:000002e8       __imp__al_register_event_source 004912e8     allegro-5.0.10-monolith-md-debug:allegro-5.0.10-monolith-md-debug.dll
 0005:000002ec       __imp__al_unregister_event_source 004912ec     allegro-5.0.10-monolith-md-debug:allegro-5.0.10-monolith-md-debug.dll
 0005:000002f0       __imp__al_is_event_queue_empty 004912f0     allegro-5.0.10-monolith-md-debug:allegro-5.0.10-monolith-md-debug.dll
 0005:000002f4       __imp__al_wait_for_event   004912f4     allegro-5.0.10-monolith-md-debug:allegro-5.0.10-monolith-md-debug.dll
 0005:000002f8       __imp__al_install_keyboard 004912f8     allegro-5.0.10-monolith-md-debug:allegro-5.0.10-monolith-md-debug.dll
 0005:000002fc       __imp__al_uninstall_keyboard 004912fc     allegro-5.0.10-monolith-md-debug:allegro-5.0.10-monolith-md-debug.dll
 0005:00000300       __imp__al_get_keyboard_state 00491300     allegro-5.0.10-monolith-md-debug:allegro-5.0.10-monolith-md-debug.dll
 0005:00000304       __imp__al_get_keyboard_event_source 00491304     allegro-5.0.10-monolith-md-debug:allegro-5.0.10-monolith-md-debug.dll
 0005:00000308       __imp__al_install_mouse    00491308     allegro-5.0.10-monolith-md-debug:allegro-5.0.10-monolith-md-debug.dll
 0005:0000030c       __imp__al_uninstall_mouse  0049130c     allegro-5.0.10-monolith-md-debug:allegro-5.0.10-monolith-md-debug.dll
 0005:00000310       __imp__al_get_mouse_state  00491310     allegro-5.0.10-monolith-md-debug:allegro-5.0.10-monolith-md-debug.dll
 0005:00000314       __imp__al_mouse_button_down 00491314     allegro-5.0.10-monolith-md-debug:allegro-5.0.10-monolith-md-debug.dll
 0005:00000318       __imp__al_install_system   00491318     allegro-5.0.10-monolith-md-debug:allegro-5.0.10-monolith-md-debug.dll
 0005:0000031c       __imp__al_install_audio    0049131c     allegro-5.0.10-monolith-md-debug:allegro-5.0.10-monolith-md-debug.dll
 0005:00000320       __imp__al_uninstall_audio  00491320     allegro-5.0.10-monolith-md-debug:allegro-5.0.10-monolith-md-debug.dll
 0005:00000324       __imp__al_get_bitmap_width 00491324     allegro-5.0.10-monolith-md-debug:allegro-5.0.10-monolith-md-debug.dll
 0005:00000328       \177allegro-5.0.10-monolith-md-debug_NULL_THUNK_DATA 00491328     allegro-5.0.10-monolith-md-debug:allegro-5.0.10-monolith-md-debug.dll
 0005:00000378       __imp__system              00491378     ucrtd:ucrtbased.dll
 0005:0000037c       __imp__rand                0049137c     ucrtd:ucrtbased.dll
 0005:00000380       __imp___time64             00491380     ucrtd:ucrtbased.dll
 0005:00000384       __imp___wassert            00491384     ucrtd:ucrtbased.dll
 0005:00000388       __imp__free                00491388     ucrtd:ucrtbased.dll
 0005:0000038c       __imp__malloc              0049138c     ucrtd:ucrtbased.dll
 0005:00000390       __imp__sqrt                00491390     ucrtd:ucrtbased.dll
 0005:00000394       __imp___free_dbg           00491394     ucrtd:ucrtbased.dll
 0005:00000398       __imp___malloc_dbg         00491398     ucrtd:ucrtbased.dll
 0005:0000039c       __imp___CrtDbgReport       0049139c     ucrtd:ucrtbased.dll
 0005:000003a0       __imp___callnewh           004913a0     ucrtd:ucrtbased.dll
 0005:000003a4       __imp___seh_filter_dll     004913a4     ucrtd:ucrtbased.dll
 0005:000003a8       __imp___configure_narrow_argv 004913a8     ucrtd:ucrtbased.dll
 0005:000003ac       __imp___initialize_narrow_environment 004913ac     ucrtd:ucrtbased.dll
 0005:000003b0       __imp___initialize_onexit_table 004913b0     ucrtd:ucrtbased.dll
 0005:000003b4       __imp___register_onexit_function 004913b4     ucrtd:ucrtbased.dll
 0005:000003b8       __imp___execute_onexit_table 004913b8     ucrtd:ucrtbased.dll
 0005:000003bc       __imp___crt_atexit         004913bc     ucrtd:ucrtbased.dll
 0005:000003c0       __imp___crt_at_quick_exit  004913c0     ucrtd:ucrtbased.dll
 0005:000003c4       __imp___cexit              004913c4     ucrtd:ucrtbased.dll
 0005:000003c8       __imp___seh_filter_exe     004913c8     ucrtd:ucrtbased.dll
 0005:000003cc       __imp___set_app_type       004913cc     ucrtd:ucrtbased.dll
 0005:000003d0       __imp____setusermatherr    004913d0     ucrtd:ucrtbased.dll
 0005:000003d4       __imp___get_initial_narrow_environment 004913d4     ucrtd:ucrtbased.dll
 0005:000003d8       __imp___initterm           004913d8     ucrtd:ucrtbased.dll
 0005:000003dc       __imp___initterm_e         004913dc     ucrtd:ucrtbased.dll
 0005:000003e0       __imp__exit                004913e0     ucrtd:ucrtbased.dll
 0005:000003e4       __imp___exit               004913e4     ucrtd:ucrtbased.dll
 0005:000003e8       __imp___set_fmode          004913e8     ucrtd:ucrtbased.dll
 0005:000003ec       __imp____p___argc          004913ec     ucrtd:ucrtbased.dll
 0005:000003f0       __imp____p___argv          004913f0     ucrtd:ucrtbased.dll
 0005:000003f4       __imp___c_exit             004913f4     ucrtd:ucrtbased.dll
 0005:000003f8       __imp___register_thread_local_exe_atexit_callback 004913f8     ucrtd:ucrtbased.dll
 0005:000003fc       __imp___configthreadlocale 004913fc     ucrtd:ucrtbased.dll
 0005:00000400       __imp___set_new_mode       00491400     ucrtd:ucrtbased.dll
 0005:00000404       __imp____p__commode        00491404     ucrtd:ucrtbased.dll
 0005:00000408       __imp___except1            00491408     ucrtd:ucrtbased.dll
 0005:0000040c       __imp____stdio_common_vsprintf_s 0049140c     ucrtd:ucrtbased.dll
 0005:00000410       __imp__terminate           00491410     ucrtd:ucrtbased.dll
 0005:00000414       __imp___controlfp_s        00491414     ucrtd:ucrtbased.dll
 0005:00000418       __imp___wmakepath_s        00491418     ucrtd:ucrtbased.dll
 0005:0000041c       __imp___wsplitpath_s       0049141c     ucrtd:ucrtbased.dll
 0005:00000420       __imp__wcscpy_s            00491420     ucrtd:ucrtbased.dll
 0005:00000424       __imp____stdio_common_vfprintf 00491424     ucrtd:ucrtbased.dll
 0005:00000428       __imp____acrt_iob_func     00491428     ucrtd:ucrtbased.dll
 0005:0000042c       __imp___CrtDbgReportW      0049142c     ucrtd:ucrtbased.dll
 0005:00000430       __imp___unlock_file        00491430     ucrtd:ucrtbased.dll
 0005:00000434       __imp___lock_file          00491434     ucrtd:ucrtbased.dll
 0005:00000438       __imp__ungetc              00491438     ucrtd:ucrtbased.dll
 0005:0000043c       __imp__setvbuf             0049143c     ucrtd:ucrtbased.dll
 0005:00000440       __imp__fwrite              00491440     ucrtd:ucrtbased.dll
 0005:00000444       __imp___fseeki64           00491444     ucrtd:ucrtbased.dll
 0005:00000448       __imp__fsetpos             00491448     ucrtd:ucrtbased.dll
 0005:0000044c       __imp__fputc               0049144c     ucrtd:ucrtbased.dll
 0005:00000450       __imp__fgetpos             00491450     ucrtd:ucrtbased.dll
 0005:00000454       __imp__fgetc               00491454     ucrtd:ucrtbased.dll
 0005:00000458       __imp__fflush              00491458     ucrtd:ucrtbased.dll
 0005:0000045c       __imp__fclose              0049145c     ucrtd:ucrtbased.dll
 0005:00000460       __imp___get_stream_buffer_pointers 00491460     ucrtd:ucrtbased.dll
 0005:00000464       __imp___errno              00491464     ucrtd:ucrtbased.dll
 0005:00000468       __imp___invalid_parameter_noinfo 00491468     ucrtd:ucrtbased.dll
 0005:0000046c       __imp___invalid_parameter  0049146c     ucrtd:ucrtbased.dll
 0005:00000470       __imp__strlen              00491470     ucrtd:ucrtbased.dll
 0005:00000474       __imp__atan                00491474     ucrtd:ucrtbased.dll
 0005:00000478       __imp__srand               00491478     ucrtd:ucrtbased.dll
 0005:0000047c       \177ucrtbased_NULL_THUNK_DATA 0049147c     ucrtd:ucrtbased.dll
 0005:000004dc       __IMPORT_DESCRIPTOR_allegro-5.0.10-monolith-md-debug 004914dc     allegro-5.0.10-monolith-md-debug:allegro-5.0.10-monolith-md-debug.dll
 0005:000004f0       __IMPORT_DESCRIPTOR_KERNEL32 004914f0     kernel32:KERNEL32.dll
 0005:00000504       __IMPORT_DESCRIPTOR_MSVCP140D 00491504     msvcprtd:MSVCP140D.dll
 0005:00000518       __IMPORT_DESCRIPTOR_VCRUNTIME140D 00491518     vcruntimed:VCRUNTIME140D.dll
 0005:0000052c       __IMPORT_DESCRIPTOR_ucrtbased 0049152c     ucrtd:ucrtbased.dll
 0005:00000540       __NULL_IMPORT_DESCRIPTOR   00491540     allegro-5.0.10-monolith-md-debug:allegro-5.0.10-monolith-md-debug.dll
 0007:00000000       ___guard_check_icall_fptr  00495000     MSVCRTD:guard_support.obj
