 Editor

 Timestamp is 581f9115 (Sun Nov  6 15:22:45 2016)

 Preferred load address is 00400000

 Start         Length     Name                   Class
 0001:00000000 000239a9H .textbss                DATA
 0002:00000000 00004700H .text$di                CODE
 0002:00004700 00045540H .text$mn                CODE
 0002:00049c40 000047d0H .text$x                 CODE
 0002:0004e410 00001106H .text$yd                CODE
 0003:00000000 00000104H .CRT$XCA                DATA
 0003:00000104 00000104H .CRT$XCAA               DATA
 0003:00000208 00000104H .CRT$XCL                DATA
 0003:0000030c 00000130H .CRT$XCU                DATA
 0003:0000043c 00000104H .CRT$XCZ                DATA
 0003:00000540 00000104H .CRT$XIA                DATA
 0003:00000644 00000104H .CRT$XIAA               DATA
 0003:00000748 00000104H .CRT$XIAC               DATA
 0003:0000084c 00000104H .CRT$XIZ                DATA
 0003:00000950 00000104H .CRT$XPA                DATA
 0003:00000a54 00000104H .CRT$XPZ                DATA
 0003:00000b58 00000104H .CRT$XTA                DATA
 0003:00000c5c 00000104H .CRT$XTZ                DATA
 0003:00000d60 00004294H .rdata                  DATA
 0003:00004ff4 0000077cH .rdata$r                DATA
 0003:00005770 000001a4H .rdata$zzzdbg           DATA
 0003:00005914 00000104H .rtc$IAA                DATA
 0003:00005a18 00000144H .rtc$IMZ                DATA
 0003:00005b5c 00000104H .rtc$IZZ                DATA
 0003:00005c60 00000104H .rtc$TAA                DATA
 0003:00005d64 00000144H .rtc$TMZ                DATA
 0003:00005ea8 00000108H .rtc$TZZ                DATA
 0003:00005fb0 0000384aH .xdata$x                DATA
 0003:000097fa 00000000H .edata                  DATA
 0004:00000000 000001a0H .data                   DATA
 0004:000001a0 00000448H .data$r                 DATA
 0004:000005e8 00000514H .bss                    DATA
 0005:00000000 000004a0H .idata$5                DATA
 0005:000004a0 00000064H .idata$2                DATA
 0005:00000504 00000014H .idata$3                DATA
 0005:00000518 000004a0H .idata$4                DATA
 0005:000009b8 00001c0bH .idata$6                DATA
 0006:00000000 00000176H .gfids$y                DATA
 0007:00000000 00000104H .00cfg                  DATA
 0008:00000000 00000170H .rsrc$01                DATA
 0008:00000170 000002ccH .rsrc$02                DATA

  Address         Publics by Value              Rva+Base       Lib:Object

 0000:00000000       ___guard_fids_table        00000000     <absolute>
 0000:00000000       ___safe_se_handler_table   00000000     <absolute>
 0000:00000000       ___dynamic_value_reloc_table 00000000     <absolute>
 0000:00000000       ___guard_longjmp_table     00000000     <absolute>
 0000:00000000       ___guard_iat_count         00000000     <absolute>
 0000:00000000       ___guard_longjmp_count     00000000     <absolute>
 0000:00000000       ___guard_iat_table         00000000     <absolute>
 0000:00000000       ___safe_se_handler_count   00000000     <absolute>
 0000:00000000       ___guard_fids_count        00000000     <absolute>
 0000:00000100       ___guard_flags             00000100     <absolute>
 0000:00000000       ___ImageBase               00400000     <linker-defined>
 0001:00000000       __enc$textbss$begin        00401000     <linker-defined>
 0001:000239a9       __enc$textbss$end          004249a9     <linker-defined>
 0002:00004700       ??$?0$$V@?$_Compressed_pair@U?$_Wrap_alloc@V?$allocator@D@std@@@std@@V?$_String_val@U?$_Simple_types@D@std@@@2@$00@std@@QAE@U_Zero_then_variadic_args_t@1@@Z 00429700 f i Editor.obj
 0002:00004760       ??$?0AAU?$_Wrap_alloc@V?$allocator@D@std@@@std@@@?$_Wrap_alloc@V?$allocator@U_Container_proxy@std@@@std@@@std@@QAE@AAU?$_Wrap_alloc@V?$allocator@D@std@@@1@@Z 00429760 f i Editor.obj
 0002:000047d0       ??$?0D@?$allocator@U_Container_proxy@std@@@std@@QAE@ABV?$allocator@D@1@@Z 004297d0 f i Editor.obj
 0002:00004810       ??$_Debug_pointer@$$CBD@std@@YAXPBDPB_WI@Z 00429810 f i Editor.obj
 0002:00004880       ??$_Debug_pointer_if@$$CBD@std@@YAX_NPBDPB_WI@Z 00429880 f i Editor.obj
 0002:00004900       ??$_Unfancy@D@std@@YAPADPAD@Z 00429900 f i Editor.obj
 0002:00004940       ??$_Unfancy@U_Container_proxy@std@@@std@@YAPAU_Container_proxy@0@PAU10@@Z 00429940 f i Editor.obj
 0002:00004980       ??$addressof@PAD@std@@YAPAPADAAPAD@Z 00429980 f i Editor.obj
 0002:000049c0       ??$addressof@U_Container_proxy@std@@@std@@YAPAU_Container_proxy@0@AAU10@@Z 004299c0 f i Editor.obj
 0002:00004a00       ??$construct@PADAAPAD@?$_Wrap_alloc@V?$allocator@D@std@@@std@@QAEXPAPADAAPAD@Z 00429a00 f i Editor.obj
 0002:00004a70       ??$construct@PADAAPAD@?$allocator@D@std@@QAEXPAPADAAPAD@Z 00429a70 f i Editor.obj
 0002:00004b20       ??$construct@PADAAPAD@?$allocator_traits@V?$allocator@D@std@@@std@@SAXAAV?$allocator@D@1@PAPADAAPAD@Z 00429b20 f i Editor.obj
 0002:00004b80       ??$construct@U_Container_proxy@std@@U12@@?$_Wrap_alloc@V?$allocator@U_Container_proxy@std@@@std@@@std@@QAEXPAU_Container_proxy@1@$$QAU21@@Z 00429b80 f i Editor.obj
 0002:00004bf0       ??$construct@U_Container_proxy@std@@U12@@?$allocator@U_Container_proxy@std@@@std@@QAEXPAU_Container_proxy@1@$$QAU21@@Z 00429bf0 f i Editor.obj
 0002:00004ca0       ??$construct@U_Container_proxy@std@@U12@@?$allocator_traits@V?$allocator@U_Container_proxy@std@@@std@@@std@@SAXAAV?$allocator@U_Container_proxy@std@@@1@PAU_Container_proxy@1@$$QAU31@@Z 00429ca0 f i Editor.obj
 0002:00004d00       ??$destroy@PAD@?$_Wrap_alloc@V?$allocator@D@std@@@std@@QAEXPAPAD@Z 00429d00 f i Editor.obj
 0002:00004d60       ??$destroy@PAD@?$allocator@D@std@@QAEXPAPAD@Z 00429d60 f i Editor.obj
 0002:00004da0       ??$destroy@PAD@?$allocator_traits@V?$allocator@D@std@@@std@@SAXAAV?$allocator@D@1@PAPAD@Z 00429da0 f i Editor.obj
 0002:00004df0       ??$destroy@U_Container_proxy@std@@@?$_Wrap_alloc@V?$allocator@U_Container_proxy@std@@@std@@@std@@QAEXPAU_Container_proxy@1@@Z 00429df0 f i Editor.obj
 0002:00004e50       ??$destroy@U_Container_proxy@std@@@?$allocator@U_Container_proxy@std@@@std@@QAEXPAU_Container_proxy@1@@Z 00429e50 f i Editor.obj
 0002:00004e90       ??$destroy@U_Container_proxy@std@@@?$allocator_traits@V?$allocator@U_Container_proxy@std@@@std@@@std@@SAXAAV?$allocator@U_Container_proxy@std@@@1@PAU_Container_proxy@1@@Z 00429e90 f i Editor.obj
 0002:00004ee0       ??$forward@AAPAD@std@@YAAAPADAAPAD@Z 00429ee0 f i Editor.obj
 0002:00004f20       ??$forward@AAU?$_Wrap_alloc@V?$allocator@D@std@@@std@@@std@@YAAAU?$_Wrap_alloc@V?$allocator@D@std@@@0@AAU10@@Z 00429f20 f i Editor.obj
 0002:00004f60       ??$forward@U_Container_proxy@std@@@std@@YA$$QAU_Container_proxy@0@AAU10@@Z 00429f60 f i Editor.obj
 0002:00004fa0       ??0?$_String_alloc@U?$_String_base_types@DV?$allocator@D@std@@@std@@@std@@QAE@XZ 00429fa0 f i Editor.obj
 0002:00005050       ??0?$_String_val@U?$_Simple_types@D@std@@@std@@QAE@XZ 0042a050 f i Editor.obj
 0002:00005110       ??0?$_Wrap_alloc@V?$allocator@D@std@@@std@@QAE@XZ 0042a110 f i Editor.obj
 0002:00005170       ??0?$allocator@D@std@@QAE@XZ 0042a170 f i Editor.obj
 0002:000051b0       ??0?$basic_string@DU?$char_traits@D@std@@V?$allocator@D@2@@std@@QAE@PBD@Z 0042a1b0 f i Editor.obj
 0002:00005270       ??0Editor@@QAE@XZ          0042a270 f   Editor.obj
 0002:000052f0       ??0_Bxty@?$_String_val@U?$_Simple_types@D@std@@@std@@QAE@XZ 0042a2f0 f i Editor.obj
 0002:00005330       ??0_Container_base12@std@@QAE@XZ 0042a330 f i Editor.obj
 0002:00005380       ??0_Container_proxy@std@@QAE@XZ 0042a380 f i Editor.obj
 0002:000053d0       ??1?$_Compressed_pair@U?$_Wrap_alloc@V?$allocator@D@std@@@std@@V?$_String_val@U?$_Simple_types@D@std@@@2@$00@std@@QAE@XZ 0042a3d0 f i Editor.obj
 0002:00005420       ??1?$_String_alloc@U?$_String_base_types@DV?$allocator@D@std@@@std@@@std@@QAE@XZ 0042a420 f i Editor.obj
 0002:000054b0       ??1?$_String_val@U?$_Simple_types@D@std@@@std@@QAE@XZ 0042a4b0 f i Editor.obj
 0002:00005510       ??1?$basic_string@DU?$char_traits@D@std@@V?$allocator@D@2@@std@@QAE@XZ 0042a510 f i Editor.obj
 0002:000055b0       ??1Editor@@UAE@XZ          0042a5b0 f   Editor.obj
 0002:00005650       ??1_Bxty@?$_String_val@U?$_Simple_types@D@std@@@std@@QAE@XZ 0042a650 f i Editor.obj
 0002:00005690       ??1_Container_base12@std@@QAE@XZ 0042a690 f i Editor.obj
 0002:00005720       ??2@YAPAXIPAX@Z            0042a720 f i Editor.obj
 0002:00005760       ??_EEditor@@UAEPAXI@Z      0042a760 f i Editor.obj
 0002:00005760       ??_GEditor@@UAEPAXI@Z      0042a760 f i Editor.obj
 0002:000057f0       ??_GGrid@@QAEPAXI@Z        0042a7f0 f i Editor.obj
 0002:00005880       ??_GGridVisualizer@@QAEPAXI@Z 0042a880 f i Editor.obj
 0002:00005910       ?_Alloc_proxy@?$_String_alloc@U?$_String_base_types@DV?$allocator@D@std@@@std@@@std@@QAEXXZ 0042a910 f i Editor.obj
 0002:00005a10       ?_Allocate@std@@YAPAXII_N@Z 0042aa10 f i Editor.obj
 0002:00005c70       ?_Bx@?$_String_alloc@U?$_String_base_types@DV?$allocator@D@std@@@std@@@std@@QAEAAT_Bxty@?$_String_val@U?$_Simple_types@D@std@@@2@XZ 0042ac70 f i Editor.obj
 0002:00005cd0       ?_Check_offset@?$basic_string@DU?$char_traits@D@std@@V?$allocator@D@2@@std@@QBEXI@Z 0042acd0 f i Editor.obj
 0002:00005d40       ?_Clamp_suffix_size@?$basic_string@DU?$char_traits@D@std@@V?$allocator@D@2@@std@@QBEIII@Z 0042ad40 f i Editor.obj
 0002:00005dc0       ?_Copy@?$basic_string@DU?$char_traits@D@std@@V?$allocator@D@2@@std@@QAEXII@Z 0042adc0 f i Editor.obj
 0002:00006080       ?_Deallocate@std@@YAXPAXII@Z 0042b080 f i Editor.obj
 0002:000064a0       ?_Eos@?$basic_string@DU?$char_traits@D@std@@V?$allocator@D@2@@std@@QAEXI@Z 0042b4a0 f i Editor.obj
 0002:00006530       ?_Free_proxy@?$_String_alloc@U?$_String_base_types@DV?$allocator@D@std@@@std@@@std@@QAEXXZ 0042b530 f i Editor.obj
 0002:00006620       ?_Get_data@?$_String_alloc@U?$_String_base_types@DV?$allocator@D@std@@@std@@@std@@QAEAAV?$_String_val@U?$_Simple_types@D@std@@@2@XZ 0042b620 f i Editor.obj
 0002:00006670       ?_Get_data@?$_String_alloc@U?$_String_base_types@DV?$allocator@D@std@@@std@@@std@@QBEABV?$_String_val@U?$_Simple_types@D@std@@@2@XZ 0042b670 f i Editor.obj
 0002:000066c0       ?_Get_first@?$_Compressed_pair@U?$_Wrap_alloc@V?$allocator@D@std@@@std@@V?$_String_val@U?$_Simple_types@D@std@@@2@$00@std@@QAEAAU?$_Wrap_alloc@V?$allocator@D@std@@@2@XZ 0042b6c0 f i Editor.obj
 0002:00006700       ?_Get_first@?$_Compressed_pair@U?$_Wrap_alloc@V?$allocator@D@std@@@std@@V?$_String_val@U?$_Simple_types@D@std@@@2@$00@std@@QBEABU?$_Wrap_alloc@V?$allocator@D@std@@@2@XZ 0042b700 f i Editor.obj
 0002:00006740       ?_Get_second@?$_Compressed_pair@U?$_Wrap_alloc@V?$allocator@D@std@@@std@@V?$_String_val@U?$_Simple_types@D@std@@@2@$00@std@@QAEAAV?$_String_val@U?$_Simple_types@D@std@@@2@XZ 0042b740 f i Editor.obj
 0002:00006780       ?_Get_second@?$_Compressed_pair@U?$_Wrap_alloc@V?$allocator@D@std@@@std@@V?$_String_val@U?$_Simple_types@D@std@@@2@$00@std@@QBEABV?$_String_val@U?$_Simple_types@D@std@@@2@XZ 0042b780 f i Editor.obj
 0002:000067c0       ?_Getal@?$_String_alloc@U?$_String_base_types@DV?$allocator@D@std@@@std@@@std@@QAEAAU?$_Wrap_alloc@V?$allocator@D@std@@@2@XZ 0042b7c0 f i Editor.obj
 0002:00006810       ?_Getal@?$_String_alloc@U?$_String_base_types@DV?$allocator@D@std@@@std@@@std@@QBEABU?$_Wrap_alloc@V?$allocator@D@std@@@2@XZ 0042b810 f i Editor.obj
 0002:00006860       ?_Grow@?$basic_string@DU?$char_traits@D@std@@V?$allocator@D@2@@std@@QAE_NI_N@Z 0042b860 f i Editor.obj
 0002:00006990       ?_Inside@?$basic_string@DU?$char_traits@D@std@@V?$allocator@D@2@@std@@QAE_NPBD@Z 0042b990 f i Editor.obj
 0002:00006a20       ?_Myproxy@?$_String_alloc@U?$_String_base_types@DV?$allocator@D@std@@@std@@@std@@QAEAAPAU_Container_proxy@2@XZ 0042ba20 f i Editor.obj
 0002:00006a70       ?_Myptr@?$_String_alloc@U?$_String_base_types@DV?$allocator@D@std@@@std@@@std@@QAEPADXZ 0042ba70 f i Editor.obj
 0002:00006ad0       ?_Myptr@?$_String_alloc@U?$_String_base_types@DV?$allocator@D@std@@@std@@@std@@QBEPBDXZ 0042bad0 f i Editor.obj
 0002:00006b30       ?_Myptr@?$_String_val@U?$_Simple_types@D@std@@@std@@QAEPADXZ 0042bb30 f i Editor.obj
 0002:00006bc0       ?_Myptr@?$_String_val@U?$_Simple_types@D@std@@@std@@QBEPBDXZ 0042bbc0 f i Editor.obj
 0002:00006c50       ?_Myres@?$_String_alloc@U?$_String_base_types@DV?$allocator@D@std@@@std@@@std@@QAEAAIXZ 0042bc50 f i Editor.obj
 0002:00006cb0       ?_Mysize@?$_String_alloc@U?$_String_base_types@DV?$allocator@D@std@@@std@@@std@@QAEAAIXZ 0042bcb0 f i Editor.obj
 0002:00006d10       ?_Mysize@?$_String_alloc@U?$_String_base_types@DV?$allocator@D@std@@@std@@@std@@QBEABIXZ 0042bd10 f i Editor.obj
 0002:00006d70       ?_Orphan_all@?$_String_alloc@U?$_String_base_types@DV?$allocator@D@std@@@std@@@std@@QAEXXZ 0042bd70 f i Editor.obj
 0002:00006dd0       ?_Orphan_all@_Container_base12@std@@QAEXXZ 0042bdd0 f i Editor.obj
 0002:00006ee0       ?_Tidy@?$basic_string@DU?$char_traits@D@std@@V?$allocator@D@2@@std@@QAEX_NI@Z 0042bee0 f i Editor.obj
 0002:00007000       ?_Xlen@?$basic_string@DU?$char_traits@D@std@@V?$allocator@D@2@@std@@QBEXXZ 0042c000 f i Editor.obj
 0002:00007060       ?_Xran@?$basic_string@DU?$char_traits@D@std@@V?$allocator@D@2@@std@@QBEXXZ 0042c060 f i Editor.obj
 0002:000070c0       ?__empty_global_delete@@YAXPAX@Z 0042c0c0 f i Editor.obj
 0002:000070f0       ?__global_delete@@YAXPAXI@Z 0042c0f0 f i Editor.obj
 0002:000070f0       ?__empty_global_delete@@YAXPAXI@Z 0042c0f0 f i Editor.obj
 0002:00007120       ?address@?$_Wrap_alloc@V?$allocator@U_Container_proxy@std@@@std@@@std@@QBEPAU_Container_proxy@2@AAU32@@Z 0042c120 f i Editor.obj
 0002:00007180       ?allocate@?$_Wrap_alloc@V?$allocator@D@std@@@std@@QAEPADI@Z 0042c180 f i Editor.obj
 0002:000071e0       ?allocate@?$_Wrap_alloc@V?$allocator@U_Container_proxy@std@@@std@@@std@@QAEPAU_Container_proxy@2@I@Z 0042c1e0 f i Editor.obj
 0002:00007240       ?allocate@?$allocator@D@std@@QAEPADI@Z 0042c240 f i Editor.obj
 0002:000072a0       ?allocate@?$allocator@U_Container_proxy@std@@@std@@QAEPAU_Container_proxy@2@I@Z 0042c2a0 f i Editor.obj
 0002:00007300       ?assign@?$basic_string@DU?$char_traits@D@std@@V?$allocator@D@2@@std@@QAEAAV12@ABV12@II@Z 0042c300 f i Editor.obj
 0002:00007400       ?assign@?$basic_string@DU?$char_traits@D@std@@V?$allocator@D@2@@std@@QAEAAV12@PBD@Z 0042c400 f i Editor.obj
 0002:00007490       ?assign@?$basic_string@DU?$char_traits@D@std@@V?$allocator@D@2@@std@@QAEAAV12@PBDI@Z 0042c490 f i Editor.obj
 0002:000075b0       ?assign@?$char_traits@D@std@@SAXAADABD@Z 0042c5b0 f i Editor.obj
 0002:000075f0       ?beginLoop@Editor@@UAEXXZ  0042c5f0 f   Editor.obj
 0002:00007640       ?cleanup@Editor@@UAEXXZ    0042c640 f   Editor.obj
 0002:00007740       ?copy@?$char_traits@D@std@@SAPADPADPBDI@Z 0042c740 f i Editor.obj
 0002:000077c0       ?deallocate@?$_Wrap_alloc@V?$allocator@D@std@@@std@@QAEXPADI@Z 0042c7c0 f i Editor.obj
 0002:00007820       ?deallocate@?$_Wrap_alloc@V?$allocator@U_Container_proxy@std@@@std@@@std@@QAEXPAU_Container_proxy@2@I@Z 0042c820 f i Editor.obj
 0002:00007880       ?deallocate@?$allocator@D@std@@QAEXPADI@Z 0042c880 f i Editor.obj
 0002:000078e0       ?deallocate@?$allocator@U_Container_proxy@std@@@std@@QAEXPAU_Container_proxy@2@I@Z 0042c8e0 f i Editor.obj
 0002:00007940       ?endLoop@Editor@@UAE_NXZ   0042c940 f   Editor.obj
 0002:00007990       ?erase@?$basic_string@DU?$char_traits@D@std@@V?$allocator@D@2@@std@@QAEAAV12@I@Z 0042c990 f i Editor.obj
 0002:00007a00       ?erase@?$basic_string@DU?$char_traits@D@std@@V?$allocator@D@2@@std@@QAEAAV12@II@Z 0042ca00 f i Editor.obj
 0002:00007ae0       ?getBackBuffer@GraphicsSystem@@QAEPAVGraphicsBuffer@@XZ 0042cae0 f i Editor.obj
 0002:00007b20       ?getHeight@GraphicsBuffer@@QBEHXZ 0042cb20 f i Editor.obj
 0002:00007b90       ?getHeight@GraphicsSystem@@QBEHXZ 0042cb90 f i Editor.obj
 0002:00007bd0       ?getWidth@GraphicsBuffer@@QBEHXZ 0042cbd0 f i Editor.obj
 0002:00007c40       ?getWidth@GraphicsSystem@@QBEHXZ 0042cc40 f i Editor.obj
 0002:00007c80       ?init@Editor@@UAE_NXZ      0042cc80 f   Editor.obj
 0002:00007f20       ?length@?$char_traits@D@std@@SAIPBD@Z 0042cf20 f i Editor.obj
 0002:00007fa0       ?loadGrid@Editor@@QAEXAAV?$basic_ifstream@DU?$char_traits@D@std@@@std@@@Z 0042cfa0 f   Editor.obj
 0002:00008000       ?max_size@?$_Wrap_alloc@V?$allocator@D@std@@@std@@QBEIU_Nil@2@@Z 0042d000 f i Editor.obj
 0002:00008060       ?max_size@?$allocator@D@std@@QBEIXZ 0042d060 f i Editor.obj
 0002:000080a0       ?max_size@?$allocator_traits@V?$allocator@D@std@@@std@@SAIABV?$allocator@D@2@@Z 0042d0a0 f i Editor.obj
 0002:000080f0       ?max_size@?$basic_string@DU?$char_traits@D@std@@V?$allocator@D@2@@std@@QBEIXZ 0042d0f0 f i Editor.obj
 0002:00008190       ?move@?$char_traits@D@std@@SAPADPADPBDI@Z 0042d190 f i Editor.obj
 0002:00008220       ?pointer_to@?$pointer_traits@PAU_Container_proxy@std@@@std@@SAPAU_Container_proxy@2@AAU32@@Z 0042d220 f i Editor.obj
 0002:00008270       ?processLoop@Editor@@UAEXXZ 0042d270 f   Editor.obj
 0002:000083f0       ?saveGrid@Editor@@QAEXAAV?$basic_ofstream@DU?$char_traits@D@std@@@std@@@Z 0042d3f0 f   Editor.obj
 0002:00008450       ?setModified@GridVisualizer@@QAEXXZ 0042d450 f i Editor.obj
 0002:00008490       ??$?6U?$char_traits@D@std@@@std@@YAAAV?$basic_ostream@DU?$char_traits@D@std@@@0@AAV10@PBD@Z 0042d490 f i main.obj
 0002:00008a50       ??$_Fgetc@D@std@@YA_NAADPAU_iobuf@@@Z 0042da50 f i main.obj
 0002:00008ad0       ??$_Fputc@D@std@@YA_NDPAU_iobuf@@@Z 0042dad0 f i main.obj
 0002:00008b60       ??$_Unfancy@$$CBD@std@@YAPBDPBD@Z 0042db60 f i main.obj
 0002:00008ba0       ??$_Ungetc@D@std@@YA_NABDPAU_iobuf@@@Z 0042dba0 f i main.obj
 0002:00008c30       ??$addressof@D@std@@YAPADAAD@Z 0042dc30 f i main.obj
 0002:00008c70       ??$use_facet@V?$codecvt@DDU_Mbstatet@@@std@@@std@@YAABV?$codecvt@DDU_Mbstatet@@@0@ABVlocale@0@@Z 0042dc70 f i main.obj
 0002:00008e70       ??0?$_Iterator012@Urandom_access_iterator_tag@std@@DHPBDABDU_Iterator_base12@2@@std@@QAE@XZ 0042de70 f i main.obj
 0002:00008ed0       ??0?$_String_const_iterator@V?$_String_val@U?$_Simple_types@D@std@@@std@@@std@@QAE@PBDPBU_Container_base12@1@@Z 0042ded0 f i main.obj
 0002:00008f90       ??0?$_String_iterator@V?$_String_val@U?$_Simple_types@D@std@@@std@@@std@@QAE@PADPBU_Container_base12@1@@Z 0042df90 f i main.obj
 0002:00008ff0       ??0?$basic_filebuf@DU?$char_traits@D@std@@@std@@QAE@PAU_iobuf@@@Z 0042dff0 f i main.obj
 0002:000090c0       ??0?$basic_ifstream@DU?$char_traits@D@std@@@std@@QAE@ABV?$basic_string@DU?$char_traits@D@std@@V?$allocator@D@2@@1@HH@Z 0042e0c0 f i main.obj
 0002:00009270       ??0?$basic_ofstream@DU?$char_traits@D@std@@@std@@QAE@ABV?$basic_string@DU?$char_traits@D@std@@V?$allocator@D@2@@1@HH@Z 0042e270 f i main.obj
 0002:00009420       ??0?$basic_string@DU?$char_traits@D@std@@V?$allocator@D@2@@std@@QAE@ID@Z 0042e420 f i main.obj
 0002:000094e0       ??0?$basic_string@DU?$char_traits@D@std@@V?$allocator@D@2@@std@@QAE@XZ 0042e4e0 f i main.obj
 0002:00009580       ??0?$fpos@U_Mbstatet@@@std@@QAE@U_Mbstatet@@_J@Z 0042e580 f i main.obj
 0002:00009600       ??0?$fpos@U_Mbstatet@@@std@@QAE@_J@Z 0042e600 f i main.obj
 0002:00009680       ??0_Iterator_base12@std@@QAE@XZ 0042e680 f i main.obj
 0002:000096d0       ??0_Sentry_base@?$basic_ostream@DU?$char_traits@D@std@@@std@@QAE@AAV12@@Z 0042e6d0 f i main.obj
 0002:000097c0       ??0bad_cast@std@@QAE@ABV01@@Z 0042e7c0 f i main.obj
 0002:00009830       ??0bad_cast@std@@QAE@XZ    0042e830 f i main.obj
 0002:000098a0       ??0exception@std@@QAE@ABV01@@Z 0042e8a0 f i main.obj
 0002:00009930       ??0exception@std@@QAE@QBDH@Z 0042e930 f i main.obj
 0002:000099a0       ??0sentry@?$basic_ostream@DU?$char_traits@D@std@@@std@@QAE@AAV12@@Z 0042e9a0 f i main.obj
 0002:00009b20       ??1?$_Iterator012@Urandom_access_iterator_tag@std@@DHPBDABDU_Iterator_base12@2@@std@@QAE@XZ 0042eb20 f i main.obj
 0002:00009b70       ??1?$_String_const_iterator@V?$_String_val@U?$_Simple_types@D@std@@@std@@@std@@QAE@XZ 0042eb70 f i main.obj
 0002:00009bc0       ??1?$_String_iterator@V?$_String_val@U?$_Simple_types@D@std@@@std@@@std@@QAE@XZ 0042ebc0 f i main.obj
 0002:00009c10       ??1?$basic_filebuf@DU?$char_traits@D@std@@@std@@UAE@XZ 0042ec10 f i main.obj
 0002:00009ce0       ??1?$basic_ifstream@DU?$char_traits@D@std@@@std@@UAE@XZ 0042ece0 f i main.obj
 0002:00009d90       ??1?$basic_ofstream@DU?$char_traits@D@std@@@std@@UAE@XZ 0042ed90 f i main.obj
 0002:00009e40       ??1_Iterator_base12@std@@QAE@XZ 0042ee40 f i main.obj
 0002:00009f30       ??1_Sentry_base@?$basic_ostream@DU?$char_traits@D@std@@@std@@QAE@XZ 0042ef30 f i main.obj
 0002:0000a050       ??1bad_cast@std@@UAE@XZ    0042f050 f i main.obj
 0002:0000a0a0       ??1exception@std@@UAE@XZ   0042f0a0 f i main.obj
 0002:0000a110       ??1locale@std@@QAE@XZ      0042f110 f i main.obj
 0002:0000a220       ??1sentry@?$basic_ostream@DU?$char_traits@D@std@@@std@@QAE@XZ 0042f220 f i main.obj
 0002:0000a2e0       ??B?$fpos@U_Mbstatet@@@std@@QBE_JXZ 0042f2e0 f i main.obj
 0002:0000a330       ??Bsentry@?$basic_ostream@DU?$char_traits@D@std@@@std@@QBE_NXZ 0042f330 f i main.obj
 0002:0000a370       ??D?$_String_const_iterator@V?$_String_val@U?$_Simple_types@D@std@@@std@@@std@@QBEABDXZ 0042f370 f i main.obj
 0002:0000a4f0       ??D?$_String_iterator@V?$_String_val@U?$_Simple_types@D@std@@@std@@@std@@QBEAADXZ 0042f4f0 f i main.obj
 0002:0000a540       ??_D?$basic_ifstream@DU?$char_traits@D@std@@@std@@QAEXXZ 0042f540 f i main.obj
 0002:0000a5b0       ??_D?$basic_ofstream@DU?$char_traits@D@std@@@std@@QAEXXZ 0042f5b0 f i main.obj
 0002:0000a61c       ??_E?$basic_ifstream@DU?$char_traits@D@std@@@std@@$4PPPPPPPM@A@AEPAXI@Z 0042f61c f i main.obj
 0002:0000a626       ??_E?$basic_ofstream@DU?$char_traits@D@std@@@std@@$4PPPPPPPM@A@AEPAXI@Z 0042f626 f i main.obj
 0002:0000a630       ??_E?$basic_filebuf@DU?$char_traits@D@std@@@std@@UAEPAXI@Z 0042f630 f i main.obj
 0002:0000a630       ??_G?$basic_filebuf@DU?$char_traits@D@std@@@std@@UAEPAXI@Z 0042f630 f i main.obj
 0002:0000a6a0       ??_E?$basic_ifstream@DU?$char_traits@D@std@@@std@@UAEPAXI@Z 0042f6a0 f i main.obj
 0002:0000a6a0       ??_G?$basic_ifstream@DU?$char_traits@D@std@@@std@@UAEPAXI@Z 0042f6a0 f i main.obj
 0002:0000a720       ??_E?$basic_ofstream@DU?$char_traits@D@std@@@std@@UAEPAXI@Z 0042f720 f i main.obj
 0002:0000a720       ??_G?$basic_ofstream@DU?$char_traits@D@std@@@std@@UAEPAXI@Z 0042f720 f i main.obj
 0002:0000a7a0       ??_Gbad_cast@std@@UAEPAXI@Z 0042f7a0 f i main.obj
 0002:0000a7a0       ??_Ebad_cast@std@@UAEPAXI@Z 0042f7a0 f i main.obj
 0002:0000a810       ??_Gexception@std@@UAEPAXI@Z 0042f810 f i main.obj
 0002:0000a810       ??_Eexception@std@@UAEPAXI@Z 0042f810 f i main.obj
 0002:0000a880       ?_Adopt@_Iterator_base12@std@@QAEXPBU_Container_base12@2@@Z 0042f880 f i main.obj
 0002:0000aa30       ?_Chassign@?$basic_string@DU?$char_traits@D@std@@V?$allocator@D@2@@std@@QAEXIID@Z 0042fa30 f i main.obj
 0002:0000aad0       ?_Endwrite@?$basic_filebuf@DU?$char_traits@D@std@@@std@@IAE_NXZ 0042fad0 f i main.obj
 0002:0000afb0       ?_Getcont@_Iterator_base12@std@@QBEPBU_Container_base12@2@XZ 0042ffb0 f i main.obj
 0002:0000b020       ?_Getfacet@locale@std@@QBEPBVfacet@12@I@Z 00430020 f i main.obj
 0002:0000b120       ?_Init@?$basic_filebuf@DU?$char_traits@D@std@@@std@@IAEXPAU_iobuf@@W4_Initfl@12@@Z 00430120 f i main.obj
 0002:0000b2e0       ?_Initcvt@?$basic_filebuf@DU?$char_traits@D@std@@@std@@IAEXPBV?$codecvt@DDU_Mbstatet@@@2@@Z 004302e0 f i main.obj
 0002:0000b380       ?_Lock@?$basic_filebuf@DU?$char_traits@D@std@@@std@@UAEXXZ 00430380 f i main.obj
 0002:0000b3f0       ?_Orphan_me@_Iterator_base12@std@@QAEXXZ 004303f0 f i main.obj
 0002:0000b4c0       ?_Reset_back@?$basic_filebuf@DU?$char_traits@D@std@@@std@@AAEXXZ 004304c0 f i main.obj
 0002:0000b560       ?_Set_back@?$basic_filebuf@DU?$char_traits@D@std@@@std@@AAEXXZ 00430560 f i main.obj
 0002:0000b640       ?_Unlock@?$basic_filebuf@DU?$char_traits@D@std@@@std@@UAEXXZ 00430640 f i main.obj
 0002:0000b6b0       ?address@?$_Wrap_alloc@V?$allocator@D@std@@@std@@QBEPADAAD@Z 004306b0 f i main.obj
 0002:0000b710       ?append@?$basic_string@DU?$char_traits@D@std@@V?$allocator@D@2@@std@@QAEAAV12@ID@Z 00430710 f i main.obj
 0002:0000b7f0       ?assign@?$basic_string@DU?$char_traits@D@std@@V?$allocator@D@2@@std@@QAEAAV12@ID@Z 004307f0 f i main.obj
 0002:0000b8a0       ?assign@?$char_traits@D@std@@SAPADPADID@Z 004308a0 f i main.obj
 0002:0000b900       ?begin@?$basic_string@DU?$char_traits@D@std@@V?$allocator@D@2@@std@@QAE?AV?$_String_iterator@V?$_String_val@U?$_Simple_types@D@std@@@std@@@2@XZ 00430900 f i main.obj
 0002:0000b9c0       ?c_str@?$basic_string@DU?$char_traits@D@std@@V?$allocator@D@2@@std@@QBEPBDXZ 004309c0 f i main.obj
 0002:0000ba50       ?close@?$basic_filebuf@DU?$char_traits@D@std@@@std@@QAEPAV12@XZ 00430a50 f i main.obj
 0002:0000bb10       ?close@?$basic_ifstream@DU?$char_traits@D@std@@@std@@QAEXXZ 00430b10 f i main.obj
 0002:0000bb90       ?close@?$basic_ofstream@DU?$char_traits@D@std@@@std@@QAEXXZ 00430b90 f i main.obj
 0002:0000bc10       ?eof@?$char_traits@D@std@@SAHXZ 00430c10 f i main.obj
 0002:0000bc50       ?eq_int_type@?$char_traits@D@std@@SA_NABH0@Z 00430c50 f i main.obj
 0002:0000bcb0       ?getGridVisualizer@Editor@@QAEPAVGridVisualizer@@XZ 00430cb0 f i main.obj
 0002:0000bcf0       ?imbue@?$basic_filebuf@DU?$char_traits@D@std@@@std@@MAEXABVlocale@2@@Z 00430cf0 f i main.obj
 0002:0000bd60       ?markForExit@Game@@QAEXXZ  00430d60 f i main.obj
 0002:0000bda0       ?not_eof@?$char_traits@D@std@@SAHABH@Z 00430da0 f i main.obj
 0002:0000be40       ?open@?$basic_filebuf@DU?$char_traits@D@std@@@std@@QAEPAV12@PBDHH@Z 00430e40 f i main.obj
 0002:0000bf90       ?overflow@?$basic_filebuf@DU?$char_traits@D@std@@@std@@MAEHH@Z 00430f90 f i main.obj
 0002:0000c620       ?pbackfail@?$basic_filebuf@DU?$char_traits@D@std@@@std@@MAEHH@Z 00431620 f i main.obj
 0002:0000c870       ?pointer_to@?$pointer_traits@PAD@std@@SAPADAAD@Z 00431870 f i main.obj
 0002:0000c8c0       ?seekoff@?$basic_filebuf@DU?$char_traits@D@std@@@std@@MAE?AV?$fpos@U_Mbstatet@@@2@_JHH@Z 004318c0 f i main.obj
 0002:0000ca70       ?seekpos@?$basic_filebuf@DU?$char_traits@D@std@@@std@@MAE?AV?$fpos@U_Mbstatet@@@2@V32@H@Z 00431a70 f i main.obj
 0002:0000cc50       ?seekpos@?$fpos@U_Mbstatet@@@std@@QBE_JXZ 00431c50 f i main.obj
 0002:0000cc90       ?setbuf@?$basic_filebuf@DU?$char_traits@D@std@@@std@@MAEPAV?$basic_streambuf@DU?$char_traits@D@std@@@2@PAD_J@Z 00431c90 f i main.obj
 0002:0000cd70       ?size@?$basic_string@DU?$char_traits@D@std@@V?$allocator@D@2@@std@@QBEIXZ 00431d70 f i main.obj
 0002:0000cdd0       ?state@?$fpos@U_Mbstatet@@@std@@QBE?AU_Mbstatet@@XZ 00431dd0 f i main.obj
 0002:0000ce20       ?sync@?$basic_filebuf@DU?$char_traits@D@std@@@std@@MAEHXZ 00431e20 f i main.obj
 0002:0000cf20       ?to_char_type@?$char_traits@D@std@@SADABH@Z 00431f20 f i main.obj
 0002:0000cf60       ?to_int_type@?$char_traits@D@std@@SAHABD@Z 00431f60 f i main.obj
 0002:0000cfa0       ?uflow@?$basic_filebuf@DU?$char_traits@D@std@@@std@@MAEHXZ 00431fa0 f i main.obj
 0002:0000d5c0       ?underflow@?$basic_filebuf@DU?$char_traits@D@std@@@std@@MAEHXZ 004325c0 f i main.obj
 0002:0000d730       ?what@exception@std@@UBEPBDXZ 00432730 f i main.obj
 0002:0000d7a0       _main                      004327a0 f   main.obj
 0002:0000deb0       ??$__vcrt_va_start_verify_argument_type@QBD@@YAXXZ 00432eb0 f i CommonPathfindingLib:Game.obj
 0002:0000dee0       ??0Game@@QAE@XZ            00432ee0 f   CommonPathfindingLib:Game.obj
 0002:0000df90       ??1Game@@UAE@XZ            00432f90 f   CommonPathfindingLib:Game.obj
 0002:0000e020       ??_GGame@@UAEPAXI@Z        00433020 f i CommonPathfindingLib:Game.obj
 0002:0000e020       ??_EGame@@UAEPAXI@Z        00433020 f i CommonPathfindingLib:Game.obj
 0002:0000e0b0       ??_GGraphicsBufferManager@@QAEPAXI@Z 004330b0 f i CommonPathfindingLib:Game.obj
 0002:0000e140       ??_GGraphicsSystem@@QAEPAXI@Z 00433140 f i CommonPathfindingLib:Game.obj
 0002:0000e1d0       ??_GSpriteManager@@QAEPAXI@Z 004331d0 f i CommonPathfindingLib:Game.obj
 0002:0000e260       ??_GTimer@@QAEPAXI@Z       00433260 f i CommonPathfindingLib:Game.obj
 0002:0000e2f0       ?beginLoop@Game@@UAEXXZ    004332f0 f   CommonPathfindingLib:Game.obj
 0002:0000e3a0       ?cleanup@Game@@UAEXXZ      004333a0 f   CommonPathfindingLib:Game.obj
 0002:0000e640       ?endLoop@Game@@UAE_NXZ     00433640 f   CommonPathfindingLib:Game.obj
 0002:0000e6b0       ?genRandomBinomial@@YAMXZ  004336b0 f   CommonPathfindingLib:Game.obj
 0002:0000e750       ?genRandomFloat@@YAMXZ     00433750 f   CommonPathfindingLib:Game.obj
 0002:0000e7c0       ?init@Game@@UAE_NXZ        004337c0 f   CommonPathfindingLib:Game.obj
 0002:0000ed70       ?lerp@@YAMHHH@Z            00433d70 f   CommonPathfindingLib:Game.obj
 0002:0000ee30       ?mapRotationToRange@@YAMMMM@Z 00433e30 f   CommonPathfindingLib:Game.obj
 0002:0000eee0       ?processLoop@Game@@UAEXXZ  00433ee0 f   CommonPathfindingLib:Game.obj
 0002:0000ef40       ___local_stdio_printf_options 00433f40 f i CommonPathfindingLib:Game.obj
 0002:0000ef80       __vfprintf_l               00433f80 f i CommonPathfindingLib:Game.obj
 0002:0000f000       _fprintf                   00434000 f i CommonPathfindingLib:Game.obj
 0002:0000f080       _printf                    00434080 f i CommonPathfindingLib:Game.obj
 0002:0000f170       ??$?0$$V@?$_Compressed_pair@U?$_Wrap_alloc@V?$allocator@U?$_Tree_node@U?$pair@$$CBHPAVGraphicsBuffer@@@std@@PAX@std@@@std@@@std@@V?$_Tree_val@U?$_Tree_simple_types@U?$pair@$$CBHPAVGraphicsBuffer@@@std@@@std@@@2@$00@std@@QAE@U_Zero_then_variadic_args_t@1@@Z 00434170 f i CommonPathfindingLib:GraphicsBufferManager.obj
 0002:0000f1d0       ??$?0$$V@?$_Compressed_pair@U?$_Wrap_alloc@V?$allocator@U?$_Tree_node@U?$pair@$$CBV?$basic_string@DU?$char_traits@D@std@@V?$allocator@D@2@@std@@H@std@@PAX@std@@@std@@@std@@V?$_Tree_val@U?$_Tree_simple_types@U?$pair@$$CBV?$basic_string@DU?$char_traits@D@std@@V?$allocator@D@2@@std@@H@std@@@std@@@2@$00@std@@QAE@U_Zero_then_variadic_args_t@1@@Z 004341d0 f i CommonPathfindingLib:GraphicsBufferManager.obj
 0002:0000f230       ??$?0AAU?$_Wrap_alloc@V?$allocator@U?$_Tree_node@U?$pair@$$CBHPAVGraphicsBuffer@@@std@@PAX@std@@@std@@@std@@@?$_Wrap_alloc@V?$allocator@U_Container_proxy@std@@@std@@@std@@QAE@AAU?$_Wrap_alloc@V?$allocator@U?$_Tree_node@U?$pair@$$CBHPAVGraphicsBuffer@@@std@@PAX@std@@@std@@@1@@Z 00434230 f i CommonPathfindingLib:GraphicsBufferManager.obj
 0002:0000f2a0       ??$?0AAU?$_Wrap_alloc@V?$allocator@U?$_Tree_node@U?$pair@$$CBV?$basic_string@DU?$char_traits@D@std@@V?$allocator@D@2@@std@@H@std@@PAX@std@@@std@@@std@@@?$_Wrap_alloc@V?$allocator@U_Container_proxy@std@@@std@@@std@@QAE@AAU?$_Wrap_alloc@V?$allocator@U?$_Tree_node@U?$pair@$$CBV?$basic_string@DU?$char_traits@D@std@@V?$allocator@D@2@@std@@H@std@@PAX@std@@@std@@@1@@Z 004342a0 f i CommonPathfindingLib:GraphicsBufferManager.obj
 0002:0000f310       ??$?0AAV?$_Tree_iterator@V?$_Tree_val@U?$_Tree_simple_types@U?$pair@$$CBHPAVGraphicsBuffer@@@std@@@std@@@std@@@std@@_NX$0A@@?$pair@V?$_Tree_iterator@V?$_Tree_val@U?$_Tree_simple_types@U?$pair@$$CBHPAVGraphicsBuffer@@@std@@@std@@@std@@@std@@_N@std@@QAE@AAV?$_Tree_iterator@V?$_Tree_val@U?$_Tree_simple_types@U?$pair@$$CBHPAVGraphicsBuffer@@@std@@@std@@@std@@@1@$$QA_N@Z 00434310 f i CommonPathfindingLib:GraphicsBufferManager.obj
 0002:0000f390       ??$?0AAV?$_Tree_iterator@V?$_Tree_val@U?$_Tree_simple_types@U?$pair@$$CBV?$basic_string@DU?$char_traits@D@std@@V?$allocator@D@2@@std@@H@std@@@std@@@std@@@std@@_NX$0A@@?$pair@V?$_Tree_iterator@V?$_Tree_val@U?$_Tree_simple_types@U?$pair@$$CBV?$basic_string@DU?$char_traits@D@std@@V?$allocator@D@2@@std@@H@std@@@std@@@std@@@std@@_N@std@@QAE@AAV?$_Tree_iterator@V?$_Tree_val@U?$_Tree_simple_types@U?$pair@$$CBV?$basic_string@DU?$char_traits@D@std@@V?$allocator@D@2@@std@@H@std@@@std@@@std@@@1@$$QA_N@Z 00434390 f i CommonPathfindingLib:GraphicsBufferManager.obj
 0002:0000f410       ??$?0ABH$$Z$$V@?$pair@$$CBHPAVGraphicsBuffer@@@std@@QAE@Upiecewise_construct_t@1@V?$tuple@ABH@1@V?$tuple@$$V@1@@Z 00434410 f i CommonPathfindingLib:GraphicsBufferManager.obj
 0002:0000f490       ??$?0ABH$0A@@?$tuple@ABH@std@@QAE@ABH@Z 00434490 f i CommonPathfindingLib:GraphicsBufferManager.obj
 0002:0000f510       ??$?0ABH@?$_Tuple_val@ABH@std@@QAE@ABH@Z 00434510 f i CommonPathfindingLib:GraphicsBufferManager.obj
 0002:0000f570       ??$?0ABU?$less@H@std@@U_Zero_then_variadic_args_t@1@@?$_Compressed_pair@U?$less@H@std@@V?$_Compressed_pair@U?$_Wrap_alloc@V?$allocator@U?$_Tree_node@U?$pair@$$CBHPAVGraphicsBuffer@@@std@@PAX@std@@@std@@@std@@V?$_Tree_val@U?$_Tree_simple_types@U?$pair@$$CBHPAVGraphicsBuffer@@@std@@@std@@@2@$00@2@$00@std@@QAE@U_One_then_variadic_args_t@1@ABU?$less@H@1@$$QAU_Zero_then_variadic_args_t@1@@Z 00434570 f i CommonPathfindingLib:GraphicsBufferManager.obj
 0002:0000f5f0       ??$?0ABU?$less@V?$basic_string@DU?$char_traits@D@std@@V?$allocator@D@2@@std@@@std@@U_Zero_then_variadic_args_t@1@@?$_Compressed_pair@U?$less@V?$basic_string@DU?$char_traits@D@std@@V?$allocator@D@2@@std@@@std@@V?$_Compressed_pair@U?$_Wrap_alloc@V?$allocator@U?$_Tree_node@U?$pair@$$CBV?$basic_string@DU?$char_traits@D@std@@V?$allocator@D@2@@std@@H@std@@PAX@std@@@std@@@std@@V?$_Tree_val@U?$_Tree_simple_types@U?$pair@$$CBV?$basic_string@DU?$char_traits@D@std@@V?$allocator@D@2@@std@@H@std@@@std@@@2@$00@2@$00@std@@QAE@U_One_then_variadic_args_t@1@ABU?$less@V?$basic_string@DU?$char_traits@D@std@@V?$allocator@D@2@@std@@@1@$$QAU_Zero_then_variadic_args_t@1@@Z 004345f0 f i CommonPathfindingLib:GraphicsBufferManager.obj
 0002:0000f670       ??$?0ABV?$basic_string@DU?$char_traits@D@std@@V?$allocator@D@2@@std@@$$Z$$V@?$pair@$$CBV?$basic_string@DU?$char_traits@D@std@@V?$allocator@D@2@@std@@H@std@@QAE@Upiecewise_construct_t@1@V?$tuple@ABV?$basic_string@DU?$char_traits@D@std@@V?$allocator@D@2@@std@@@1@V?$tuple@$$V@1@@Z 00434670 f i CommonPathfindingLib:GraphicsBufferManager.obj
 0002:0000f6f0       ??$?0ABV?$basic_string@DU?$char_traits@D@std@@V?$allocator@D@2@@std@@$0A@@?$tuple@ABV?$basic_string@DU?$char_traits@D@std@@V?$allocator@D@2@@std@@@std@@QAE@ABV?$basic_string@DU?$char_traits@D@std@@V?$allocator@D@2@@1@@Z 004346f0 f i CommonPathfindingLib:GraphicsBufferManager.obj
 0002:0000f770       ??$?0ABV?$basic_string@DU?$char_traits@D@std@@V?$allocator@D@2@@std@@@?$_Tuple_val@ABV?$basic_string@DU?$char_traits@D@std@@V?$allocator@D@2@@std@@@std@@QAE@ABV?$basic_string@DU?$char_traits@D@std@@V?$allocator@D@2@@1@@Z 00434770 f i CommonPathfindingLib:GraphicsBufferManager.obj
 0002:0000f7d0       ??$?0U?$_Tree_node@U?$pair@$$CBHPAVGraphicsBuffer@@@std@@PAX@std@@@?$allocator@U_Container_proxy@std@@@std@@QAE@ABV?$allocator@U?$_Tree_node@U?$pair@$$CBHPAVGraphicsBuffer@@@std@@PAX@std@@@1@@Z 004347d0 f i CommonPathfindingLib:GraphicsBufferManager.obj
 0002:0000f810       ??$?0U?$_Tree_node@U?$pair@$$CBV?$basic_string@DU?$char_traits@D@std@@V?$allocator@D@2@@std@@H@std@@PAX@std@@@?$allocator@U_Container_proxy@std@@@std@@QAE@ABV?$allocator@U?$_Tree_node@U?$pair@$$CBV?$basic_string@DU?$char_traits@D@std@@V?$allocator@D@2@@std@@H@std@@PAX@std@@@1@@Z 00434810 f i CommonPathfindingLib:GraphicsBufferManager.obj
 0002:0000f850       ??$?0U?$_Wrap_alloc@V?$allocator@D@std@@@std@@$$V@?$_Compressed_pair@U?$_Wrap_alloc@V?$allocator@D@std@@@std@@V?$_String_val@U?$_Simple_types@D@std@@@2@$00@std@@QAE@U_One_then_variadic_args_t@1@$$QAU?$_Wrap_alloc@V?$allocator@D@std@@@1@@Z 00434850 f i CommonPathfindingLib:GraphicsBufferManager.obj
 0002:0000f8c0       ??$?0U?$_Wrap_alloc@V?$allocator@D@std@@@std@@X@?$_String_alloc@U?$_String_base_types@DV?$allocator@D@std@@@std@@@std@@QAE@$$QAU?$_Wrap_alloc@V?$allocator@D@std@@@1@@Z 004348c0 f i CommonPathfindingLib:GraphicsBufferManager.obj
 0002:0000f980       ??$?0U_Exact_args_t@std@@$0A@@?$tuple@$$V@std@@QAE@U_Exact_args_t@1@@Z 00434980 f i CommonPathfindingLib:GraphicsBufferManager.obj
 0002:0000f9c0       ??$?0V?$_Tree_iterator@V?$_Tree_val@U?$_Tree_simple_types@U?$pair@$$CBHPAVGraphicsBuffer@@@std@@@std@@@std@@@std@@_NX$0A@@?$pair@V?$_Tree_iterator@V?$_Tree_val@U?$_Tree_simple_types@U?$pair@$$CBHPAVGraphicsBuffer@@@std@@@std@@@std@@@std@@_N@std@@QAE@$$QAV?$_Tree_iterator@V?$_Tree_val@U?$_Tree_simple_types@U?$pair@$$CBHPAVGraphicsBuffer@@@std@@@std@@@std@@@1@$$QA_N@Z 004349c0 f i CommonPathfindingLib:GraphicsBufferManager.obj
 0002:0000fa40       ??$?0V?$_Tree_iterator@V?$_Tree_val@U?$_Tree_simple_types@U?$pair@$$CBV?$basic_string@DU?$char_traits@D@std@@V?$allocator@D@2@@std@@H@std@@@std@@@std@@@std@@_NX$0A@@?$pair@V?$_Tree_iterator@V?$_Tree_val@U?$_Tree_simple_types@U?$pair@$$CBV?$basic_string@DU?$char_traits@D@std@@V?$allocator@D@2@@std@@H@std@@@std@@@std@@@std@@_N@std@@QAE@$$QAV?$_Tree_iterator@V?$_Tree_val@U?$_Tree_simple_types@U?$pair@$$CBV?$basic_string@DU?$char_traits@D@std@@V?$allocator@D@2@@std@@H@std@@@std@@@std@@@1@$$QA_N@Z 00434a40 f i CommonPathfindingLib:GraphicsBufferManager.obj
 0002:0000fac0       ??$?0V?$allocator@D@std@@@?$_Wrap_alloc@V?$allocator@D@std@@@std@@QAE@$$QAV?$allocator@D@1@@Z 00434ac0 f i CommonPathfindingLib:GraphicsBufferManager.obj
 0002:0000fb30       ??$?0V?$tuple@ABH@std@@V?$tuple@$$V@1@$0A@$$Z$S@?$pair@$$CBHPAVGraphicsBuffer@@@std@@QAE@AAV?$tuple@ABH@1@AAV?$tuple@$$V@1@U?$integer_sequence@I$0A@@1@U?$integer_sequence@I$S@1@@Z 00434b30 f i CommonPathfindingLib:GraphicsBufferManager.obj
 0002:0000fbb0       ??$?0V?$tuple@ABV?$basic_string@DU?$char_traits@D@std@@V?$allocator@D@2@@std@@@std@@V?$tuple@$$V@1@$0A@$$Z$S@?$pair@$$CBV?$basic_string@DU?$char_traits@D@std@@V?$allocator@D@2@@std@@H@std@@QAE@AAV?$tuple@ABV?$basic_string@DU?$char_traits@D@std@@V?$allocator@D@2@@std@@@1@AAV?$tuple@$$V@1@U?$integer_sequence@I$0A@@1@U?$integer_sequence@I$S@1@@Z 00434bb0 f i CommonPathfindingLib:GraphicsBufferManager.obj
 0002:0000fc30       ??$?MDU?$char_traits@D@std@@V?$allocator@D@1@@std@@YA_NABV?$basic_string@DU?$char_traits@D@std@@V?$allocator@D@2@@0@0@Z 00434c30 f i CommonPathfindingLib:GraphicsBufferManager.obj
 0002:0000fcb0       ??$_Buynode@ABUpiecewise_construct_t@std@@V?$tuple@ABH@2@V?$tuple@$$V@2@@?$_Tree_comp_alloc@V?$_Tmap_traits@HPAVGraphicsBuffer@@U?$less@H@std@@V?$allocator@U?$pair@$$CBHPAVGraphicsBuffer@@@std@@@3@$0A@@std@@@std@@QAEPAU?$_Tree_node@U?$pair@$$CBHPAVGraphicsBuffer@@@std@@PAX@1@ABUpiecewise_construct_t@1@$$QAV?$tuple@ABH@1@$$QAV?$tuple@$$V@1@@Z 00434cb0 f i CommonPathfindingLib:GraphicsBufferManager.obj
 0002:0000fe20       ??$_Buynode@ABUpiecewise_construct_t@std@@V?$tuple@ABV?$basic_string@DU?$char_traits@D@std@@V?$allocator@D@2@@std@@@2@V?$tuple@$$V@2@@?$_Tree_comp_alloc@V?$_Tmap_traits@V?$basic_string@DU?$char_traits@D@std@@V?$allocator@D@2@@std@@HU?$less@V?$basic_string@DU?$char_traits@D@std@@V?$allocator@D@2@@std@@@2@V?$allocator@U?$pair@$$CBV?$basic_string@DU?$char_traits@D@std@@V?$allocator@D@2@@std@@H@std@@@2@$0A@@std@@@std@@QAEPAU?$_Tree_node@U?$pair@$$CBV?$basic_string@DU?$char_traits@D@std@@V?$allocator@D@2@@std@@H@std@@PAX@1@ABUpiecewise_construct_t@1@$$QAV?$tuple@ABV?$basic_string@DU?$char_traits@D@std@@V?$allocator@D@2@@std@@@1@$$QAV?$tuple@$$V@1@@Z 00434e20 f i CommonPathfindingLib:GraphicsBufferManager.obj
 0002:0000ff90       ??$_Buynode_if_nil@AAU?$pair@$$CBHPAVGraphicsBuffer@@@std@@@?$_Tree@V?$_Tmap_traits@HPAVGraphicsBuffer@@U?$less@H@std@@V?$allocator@U?$pair@$$CBHPAVGraphicsBuffer@@@std@@@3@$0A@@std@@@std@@IAEPAU?$_Tree_node@U?$pair@$$CBHPAVGraphicsBuffer@@@std@@PAX@1@PAU21@AAU?$pair@$$CBHPAVGraphicsBuffer@@@1@@Z 00434f90 f i CommonPathfindingLib:GraphicsBufferManager.obj
 0002:0000ffd0       ??$_Buynode_if_nil@AAU?$pair@$$CBV?$basic_string@DU?$char_traits@D@std@@V?$allocator@D@2@@std@@H@std@@@?$_Tree@V?$_Tmap_traits@V?$basic_string@DU?$char_traits@D@std@@V?$allocator@D@2@@std@@HU?$less@V?$basic_string@DU?$char_traits@D@std@@V?$allocator@D@2@@std@@@2@V?$allocator@U?$pair@$$CBV?$basic_string@DU?$char_traits@D@std@@V?$allocator@D@2@@std@@H@std@@@2@$0A@@std@@@std@@IAEPAU?$_Tree_node@U?$pair@$$CBV?$basic_string@DU?$char_traits@D@std@@V?$allocator@D@2@@std@@H@std@@PAX@1@PAU21@AAU?$pair@$$CBV?$basic_string@DU?$char_traits@D@std@@V?$allocator@D@2@@std@@H@1@@Z 00434fd0 f i CommonPathfindingLib:GraphicsBufferManager.obj
 0002:00010010       ??$_Debug_lt_pred@AAU?$less@H@std@@ABHABH@std@@YA_NAAU?$less@H@0@ABH1PB_WI@Z 00435010 f i CommonPathfindingLib:GraphicsBufferManager.obj
 0002:000100f0       ??$_Debug_lt_pred@AAU?$less@V?$basic_string@DU?$char_traits@D@std@@V?$allocator@D@2@@std@@@std@@ABV?$basic_string@DU?$char_traits@D@std@@V?$allocator@D@2@@2@ABV32@@std@@YA_NAAU?$less@V?$basic_string@DU?$char_traits@D@std@@V?$allocator@D@2@@std@@@0@ABV?$basic_string@DU?$char_traits@D@std@@V?$allocator@D@2@@0@1PB_WI@Z 004350f0 f i CommonPathfindingLib:GraphicsBufferManager.obj
 0002:000101d0       ??$_Debug_lt_pred@ABU?$less@H@std@@ABHABH@std@@YA_NABU?$less@H@0@ABH1PB_WI@Z 004351d0 f i CommonPathfindingLib:GraphicsBufferManager.obj
 0002:000102b0       ??$_Debug_lt_pred@ABU?$less@V?$basic_string@DU?$char_traits@D@std@@V?$allocator@D@2@@std@@@std@@ABV?$basic_string@DU?$char_traits@D@std@@V?$allocator@D@2@@2@ABV32@@std@@YA_NABU?$less@V?$basic_string@DU?$char_traits@D@std@@V?$allocator@D@2@@std@@@0@ABV?$basic_string@DU?$char_traits@D@std@@V?$allocator@D@2@@0@1PB_WI@Z 004352b0 f i CommonPathfindingLib:GraphicsBufferManager.obj
 0002:00010390       ??$_Insert_at@AAU?$pair@$$CBHPAVGraphicsBuffer@@@std@@PAU?$_Tree_node@U?$pair@$$CBHPAVGraphicsBuffer@@@std@@PAX@2@@?$_Tree@V?$_Tmap_traits@HPAVGraphicsBuffer@@U?$less@H@std@@V?$allocator@U?$pair@$$CBHPAVGraphicsBuffer@@@std@@@3@$0A@@std@@@std@@IAE?AV?$_Tree_iterator@V?$_Tree_val@U?$_Tree_simple_types@U?$pair@$$CBHPAVGraphicsBuffer@@@std@@@std@@@std@@@1@_NPAU?$_Tree_node@U?$pair@$$CBHPAVGraphicsBuffer@@@std@@PAX@1@AAU?$pair@$$CBHPAVGraphicsBuffer@@@1@1@Z 00435390 f i CommonPathfindingLib:GraphicsBufferManager.obj
 0002:00010950       ??$_Insert_at@AAU?$pair@$$CBV?$basic_string@DU?$char_traits@D@std@@V?$allocator@D@2@@std@@H@std@@PAU?$_Tree_node@U?$pair@$$CBV?$basic_string@DU?$char_traits@D@std@@V?$allocator@D@2@@std@@H@std@@PAX@2@@?$_Tree@V?$_Tmap_traits@V?$basic_string@DU?$char_traits@D@std@@V?$allocator@D@2@@std@@HU?$less@V?$basic_string@DU?$char_traits@D@std@@V?$allocator@D@2@@std@@@2@V?$allocator@U?$pair@$$CBV?$basic_string@DU?$char_traits@D@std@@V?$allocator@D@2@@std@@H@std@@@2@$0A@@std@@@std@@IAE?AV?$_Tree_iterator@V?$_Tree_val@U?$_Tree_simple_types@U?$pair@$$CBV?$basic_string@DU?$char_traits@D@std@@V?$allocator@D@2@@std@@H@std@@@std@@@std@@@1@_NPAU?$_Tree_node@U?$pair@$$CBV?$basic_string@DU?$char_traits@D@std@@V?$allocator@D@2@@std@@H@std@@PAX@1@AAU?$pair@$$CBV?$basic_string@DU?$char_traits@D@std@@V?$allocator@D@2@@std@@H@1@1@Z 00435950 f i CommonPathfindingLib:GraphicsBufferManager.obj
 0002:00010f10       ??$_Insert_hint@AAU?$pair@$$CBHPAVGraphicsBuffer@@@std@@PAU?$_Tree_node@U?$pair@$$CBHPAVGraphicsBuffer@@@std@@PAX@2@@?$_Tree@V?$_Tmap_traits@HPAVGraphicsBuffer@@U?$less@H@std@@V?$allocator@U?$pair@$$CBHPAVGraphicsBuffer@@@std@@@3@$0A@@std@@@std@@IAE?AV?$_Tree_iterator@V?$_Tree_val@U?$_Tree_simple_types@U?$pair@$$CBHPAVGraphicsBuffer@@@std@@@std@@@std@@@1@V?$_Tree_const_iterator@V?$_Tree_val@U?$_Tree_simple_types@U?$pair@$$CBHPAVGraphicsBuffer@@@std@@@std@@@std@@@1@AAU?$pair@$$CBHPAVGraphicsBuffer@@@1@PAU?$_Tree_node@U?$pair@$$CBHPAVGraphicsBuffer@@@std@@PAX@1@@Z 00435f10 f i CommonPathfindingLib:GraphicsBufferManager.obj
 0002:00012460       ??$_Insert_hint@AAU?$pair@$$CBV?$basic_string@DU?$char_traits@D@std@@V?$allocator@D@2@@std@@H@std@@PAU?$_Tree_node@U?$pair@$$CBV?$basic_string@DU?$char_traits@D@std@@V?$allocator@D@2@@std@@H@std@@PAX@2@@?$_Tree@V?$_Tmap_traits@V?$basic_string@DU?$char_traits@D@std@@V?$allocator@D@2@@std@@HU?$less@V?$basic_string@DU?$char_traits@D@std@@V?$allocator@D@2@@std@@@2@V?$allocator@U?$pair@$$CBV?$basic_string@DU?$char_traits@D@std@@V?$allocator@D@2@@std@@H@std@@@2@$0A@@std@@@std@@IAE?AV?$_Tree_iterator@V?$_Tree_val@U?$_Tree_simple_types@U?$pair@$$CBV?$basic_string@DU?$char_traits@D@std@@V?$allocator@D@2@@std@@H@std@@@std@@@std@@@1@V?$_Tree_const_iterator@V?$_Tree_val@U?$_Tree_simple_types@U?$pair@$$CBV?$basic_string@DU?$char_traits@D@std@@V?$allocator@D@2@@std@@H@std@@@std@@@std@@@1@AAU?$pair@$$CBV?$basic_string@DU?$char_traits@D@std@@V?$allocator@D@2@@std@@H@1@PAU?$_Tree_node@U?$pair@$$CBV?$basic_string@DU?$char_traits@D@std@@V?$allocator@D@2@@std@@H@std@@PAX@1@@Z 00437460 f i CommonPathfindingLib:GraphicsBufferManager.obj
 0002:000139b0       ??$_Insert_nohint@AAU?$pair@$$CBHPAVGraphicsBuffer@@@std@@PAU?$_Tree_node@U?$pair@$$CBHPAVGraphicsBuffer@@@std@@PAX@2@@?$_Tree@V?$_Tmap_traits@HPAVGraphicsBuffer@@U?$less@H@std@@V?$allocator@U?$pair@$$CBHPAVGraphicsBuffer@@@std@@@3@$0A@@std@@@std@@IAE?AU?$pair@V?$_Tree_iterator@V?$_Tree_val@U?$_Tree_simple_types@U?$pair@$$CBHPAVGraphicsBuffer@@@std@@@std@@@std@@@std@@_N@1@_NAAU?$pair@$$CBHPAVGraphicsBuffer@@@1@PAU?$_Tree_node@U?$pair@$$CBHPAVGraphicsBuffer@@@std@@PAX@1@@Z 004389b0 f i CommonPathfindingLib:GraphicsBufferManager.obj
 0002:00014080       ??$_Insert_nohint@AAU?$pair@$$CBV?$basic_string@DU?$char_traits@D@std@@V?$allocator@D@2@@std@@H@std@@PAU?$_Tree_node@U?$pair@$$CBV?$basic_string@DU?$char_traits@D@std@@V?$allocator@D@2@@std@@H@std@@PAX@2@@?$_Tree@V?$_Tmap_traits@V?$basic_string@DU?$char_traits@D@std@@V?$allocator@D@2@@std@@HU?$less@V?$basic_string@DU?$char_traits@D@std@@V?$allocator@D@2@@std@@@2@V?$allocator@U?$pair@$$CBV?$basic_string@DU?$char_traits@D@std@@V?$allocator@D@2@@std@@H@std@@@2@$0A@@std@@@std@@IAE?AU?$pair@V?$_Tree_iterator@V?$_Tree_val@U?$_Tree_simple_types@U?$pair@$$CBV?$basic_string@DU?$char_traits@D@std@@V?$allocator@D@2@@std@@H@std@@@std@@@std@@@std@@_N@1@_NAAU?$pair@$$CBV?$basic_string@DU?$char_traits@D@std@@V?$allocator@D@2@@std@@H@1@PAU?$_Tree_node@U?$pair@$$CBV?$basic_string@DU?$char_traits@D@std@@V?$allocator@D@2@@std@@H@std@@PAX@1@@Z 00439080 f i CommonPathfindingLib:GraphicsBufferManager.obj
 0002:00014750       ??$_Kfn@$$CBHPAVGraphicsBuffer@@@?$_Tmap_traits@HPAVGraphicsBuffer@@U?$less@H@std@@V?$allocator@U?$pair@$$CBHPAVGraphicsBuffer@@@std@@@3@$0A@@std@@SAABHABU?$pair@$$CBHPAVGraphicsBuffer@@@1@@Z 00439750 f i CommonPathfindingLib:GraphicsBufferManager.obj
 0002:00014790       ??$_Kfn@$$CBV?$basic_string@DU?$char_traits@D@std@@V?$allocator@D@2@@std@@H@?$_Tmap_traits@V?$basic_string@DU?$char_traits@D@std@@V?$allocator@D@2@@std@@HU?$less@V?$basic_string@DU?$char_traits@D@std@@V?$allocator@D@2@@std@@@2@V?$allocator@U?$pair@$$CBV?$basic_string@DU?$char_traits@D@std@@V?$allocator@D@2@@std@@H@std@@@2@$0A@@std@@SAABV?$basic_string@DU?$char_traits@D@std@@V?$allocator@D@2@@1@ABU?$pair@$$CBV?$basic_string@DU?$char_traits@D@std@@V?$allocator@D@2@@std@@H@1@@Z 00439790 f i CommonPathfindingLib:GraphicsBufferManager.obj
 0002:000147d0       ??$_Lbound@H@?$_Tree@V?$_Tmap_traits@HPAVGraphicsBuffer@@U?$less@H@std@@V?$allocator@U?$pair@$$CBHPAVGraphicsBuffer@@@std@@@3@$0A@@std@@@std@@IBEPAU?$_Tree_node@U?$pair@$$CBHPAVGraphicsBuffer@@@std@@PAX@1@ABH@Z 004397d0 f i CommonPathfindingLib:GraphicsBufferManager.obj
 0002:000148c0       ??$_Lbound@V?$basic_string@DU?$char_traits@D@std@@V?$allocator@D@2@@std@@@?$_Tree@V?$_Tmap_traits@V?$basic_string@DU?$char_traits@D@std@@V?$allocator@D@2@@std@@HU?$less@V?$basic_string@DU?$char_traits@D@std@@V?$allocator@D@2@@std@@@2@V?$allocator@U?$pair@$$CBV?$basic_string@DU?$char_traits@D@std@@V?$allocator@D@2@@std@@H@std@@@2@$0A@@std@@@std@@IBEPAU?$_Tree_node@U?$pair@$$CBV?$basic_string@DU?$char_traits@D@std@@V?$allocator@D@2@@std@@H@std@@PAX@1@ABV?$basic_string@DU?$char_traits@D@std@@V?$allocator@D@2@@1@@Z 004398c0 f i CommonPathfindingLib:GraphicsBufferManager.obj
 0002:000149b0       ??$_Try_emplace@ABH$$V@?$map@HPAVGraphicsBuffer@@U?$less@H@std@@V?$allocator@U?$pair@$$CBHPAVGraphicsBuffer@@@std@@@3@@std@@QAE?AU?$pair@V?$_Tree_iterator@V?$_Tree_val@U?$_Tree_simple_types@U?$pair@$$CBHPAVGraphicsBuffer@@@std@@@std@@@std@@@std@@_N@1@ABH@Z 004399b0 f i CommonPathfindingLib:GraphicsBufferManager.obj
 0002:00014d00       ??$_Try_emplace@ABV?$basic_string@DU?$char_traits@D@std@@V?$allocator@D@2@@std@@$$V@?$map@V?$basic_string@DU?$char_traits@D@std@@V?$allocator@D@2@@std@@HU?$less@V?$basic_string@DU?$char_traits@D@std@@V?$allocator@D@2@@std@@@2@V?$allocator@U?$pair@$$CBV?$basic_string@DU?$char_traits@D@std@@V?$allocator@D@2@@std@@H@std@@@2@@std@@QAE?AU?$pair@V?$_Tree_iterator@V?$_Tree_val@U?$_Tree_simple_types@U?$pair@$$CBV?$basic_string@DU?$char_traits@D@std@@V?$allocator@D@2@@std@@H@std@@@std@@@std@@@std@@_N@1@ABV?$basic_string@DU?$char_traits@D@std@@V?$allocator@D@2@@1@@Z 00439d00 f i CommonPathfindingLib:GraphicsBufferManager.obj
 0002:00015050       ??$addressof@PAU?$_Tree_node@U?$pair@$$CBHPAVGraphicsBuffer@@@std@@PAX@std@@@std@@YAPAPAU?$_Tree_node@U?$pair@$$CBHPAVGraphicsBuffer@@@std@@PAX@0@AAPAU10@@Z 0043a050 f i CommonPathfindingLib:GraphicsBufferManager.obj
 0002:00015090       ??$addressof@PAU?$_Tree_node@U?$pair@$$CBV?$basic_string@DU?$char_traits@D@std@@V?$allocator@D@2@@std@@H@std@@PAX@std@@@std@@YAPAPAU?$_Tree_node@U?$pair@$$CBV?$basic_string@DU?$char_traits@D@std@@V?$allocator@D@2@@std@@H@std@@PAX@0@AAPAU10@@Z 0043a090 f i CommonPathfindingLib:GraphicsBufferManager.obj
 0002:000150d0       ??$addressof@U?$pair@$$CBHPAVGraphicsBuffer@@@std@@@std@@YAPAU?$pair@$$CBHPAVGraphicsBuffer@@@0@AAU10@@Z 0043a0d0 f i CommonPathfindingLib:GraphicsBufferManager.obj
 0002:00015110       ??$addressof@U?$pair@$$CBV?$basic_string@DU?$char_traits@D@std@@V?$allocator@D@2@@std@@H@std@@@std@@YAPAU?$pair@$$CBV?$basic_string@DU?$char_traits@D@std@@V?$allocator@D@2@@std@@H@0@AAU10@@Z 0043a110 f i CommonPathfindingLib:GraphicsBufferManager.obj
 0002:00015150       ??$construct@PAU?$_Tree_node@U?$pair@$$CBHPAVGraphicsBuffer@@@std@@PAX@std@@AAPAU12@@?$_Wrap_alloc@V?$allocator@U?$_Tree_node@U?$pair@$$CBHPAVGraphicsBuffer@@@std@@PAX@std@@@std@@@std@@QAEXPAPAU?$_Tree_node@U?$pair@$$CBHPAVGraphicsBuffer@@@std@@PAX@1@AAPAU21@@Z 0043a150 f i CommonPathfindingLib:GraphicsBufferManager.obj
 0002:000151c0       ??$construct@PAU?$_Tree_node@U?$pair@$$CBHPAVGraphicsBuffer@@@std@@PAX@std@@AAPAU12@@?$allocator@U?$_Tree_node@U?$pair@$$CBHPAVGraphicsBuffer@@@std@@PAX@std@@@std@@QAEXPAPAU?$_Tree_node@U?$pair@$$CBHPAVGraphicsBuffer@@@std@@PAX@1@AAPAU21@@Z 0043a1c0 f i CommonPathfindingLib:GraphicsBufferManager.obj
 0002:00015270       ??$construct@PAU?$_Tree_node@U?$pair@$$CBHPAVGraphicsBuffer@@@std@@PAX@std@@AAPAU12@@?$allocator_traits@V?$allocator@U?$_Tree_node@U?$pair@$$CBHPAVGraphicsBuffer@@@std@@PAX@std@@@std@@@std@@SAXAAV?$allocator@U?$_Tree_node@U?$pair@$$CBHPAVGraphicsBuffer@@@std@@PAX@std@@@1@PAPAU?$_Tree_node@U?$pair@$$CBHPAVGraphicsBuffer@@@std@@PAX@1@AAPAU31@@Z 0043a270 f i CommonPathfindingLib:GraphicsBufferManager.obj
 0002:000152d0       ??$construct@PAU?$_Tree_node@U?$pair@$$CBV?$basic_string@DU?$char_traits@D@std@@V?$allocator@D@2@@std@@H@std@@PAX@std@@AAPAU12@@?$_Wrap_alloc@V?$allocator@U?$_Tree_node@U?$pair@$$CBV?$basic_string@DU?$char_traits@D@std@@V?$allocator@D@2@@std@@H@std@@PAX@std@@@std@@@std@@QAEXPAPAU?$_Tree_node@U?$pair@$$CBV?$basic_string@DU?$char_traits@D@std@@V?$allocator@D@2@@std@@H@std@@PAX@1@AAPAU21@@Z 0043a2d0 f i CommonPathfindingLib:GraphicsBufferManager.obj
 0002:00015340       ??$construct@PAU?$_Tree_node@U?$pair@$$CBV?$basic_string@DU?$char_traits@D@std@@V?$allocator@D@2@@std@@H@std@@PAX@std@@AAPAU12@@?$allocator@U?$_Tree_node@U?$pair@$$CBV?$basic_string@DU?$char_traits@D@std@@V?$allocator@D@2@@std@@H@std@@PAX@std@@@std@@QAEXPAPAU?$_Tree_node@U?$pair@$$CBV?$basic_string@DU?$char_traits@D@std@@V?$allocator@D@2@@std@@H@std@@PAX@1@AAPAU21@@Z 0043a340 f i CommonPathfindingLib:GraphicsBufferManager.obj
 0002:000153f0       ??$construct@PAU?$_Tree_node@U?$pair@$$CBV?$basic_string@DU?$char_traits@D@std@@V?$allocator@D@2@@std@@H@std@@PAX@std@@AAPAU12@@?$allocator_traits@V?$allocator@U?$_Tree_node@U?$pair@$$CBV?$basic_string@DU?$char_traits@D@std@@V?$allocator@D@2@@std@@H@std@@PAX@std@@@std@@@std@@SAXAAV?$allocator@U?$_Tree_node@U?$pair@$$CBV?$basic_string@DU?$char_traits@D@std@@V?$allocator@D@2@@std@@H@std@@PAX@std@@@1@PAPAU?$_Tree_node@U?$pair@$$CBV?$basic_string@DU?$char_traits@D@std@@V?$allocator@D@2@@std@@H@std@@PAX@1@AAPAU31@@Z 0043a3f0 f i CommonPathfindingLib:GraphicsBufferManager.obj
 0002:00015450       ??$construct@U?$pair@$$CBHPAVGraphicsBuffer@@@std@@ABUpiecewise_construct_t@2@V?$tuple@ABH@2@V?$tuple@$$V@2@@?$_Wrap_alloc@V?$allocator@U?$_Tree_node@U?$pair@$$CBHPAVGraphicsBuffer@@@std@@PAX@std@@@std@@@std@@QAEXPAU?$pair@$$CBHPAVGraphicsBuffer@@@1@ABUpiecewise_construct_t@1@$$QAV?$tuple@ABH@1@$$QAV?$tuple@$$V@1@@Z 0043a450 f i CommonPathfindingLib:GraphicsBufferManager.obj
 0002:000154e0       ??$construct@U?$pair@$$CBHPAVGraphicsBuffer@@@std@@ABUpiecewise_construct_t@2@V?$tuple@ABH@2@V?$tuple@$$V@2@@?$allocator@U?$_Tree_node@U?$pair@$$CBHPAVGraphicsBuffer@@@std@@PAX@std@@@std@@QAEXPAU?$pair@$$CBHPAVGraphicsBuffer@@@1@ABUpiecewise_construct_t@1@$$QAV?$tuple@ABH@1@$$QAV?$tuple@$$V@1@@Z 0043a4e0 f i CommonPathfindingLib:GraphicsBufferManager.obj
 0002:00015620       ??$construct@U?$pair@$$CBHPAVGraphicsBuffer@@@std@@ABUpiecewise_construct_t@2@V?$tuple@ABH@2@V?$tuple@$$V@2@@?$allocator_traits@V?$allocator@U?$_Tree_node@U?$pair@$$CBHPAVGraphicsBuffer@@@std@@PAX@std@@@std@@@std@@SAXAAV?$allocator@U?$_Tree_node@U?$pair@$$CBHPAVGraphicsBuffer@@@std@@PAX@std@@@1@PAU?$pair@$$CBHPAVGraphicsBuffer@@@1@ABUpiecewise_construct_t@1@$$QAV?$tuple@ABH@1@$$QAV?$tuple@$$V@1@@Z 0043a620 f i CommonPathfindingLib:GraphicsBufferManager.obj
 0002:000156a0       ??$construct@U?$pair@$$CBV?$basic_string@DU?$char_traits@D@std@@V?$allocator@D@2@@std@@H@std@@ABUpiecewise_construct_t@2@V?$tuple@ABV?$basic_string@DU?$char_traits@D@std@@V?$allocator@D@2@@std@@@2@V?$tuple@$$V@2@@?$_Wrap_alloc@V?$allocator@U?$_Tree_node@U?$pair@$$CBV?$basic_string@DU?$char_traits@D@std@@V?$allocator@D@2@@std@@H@std@@PAX@std@@@std@@@std@@QAEXPAU?$pair@$$CBV?$basic_string@DU?$char_traits@D@std@@V?$allocator@D@2@@std@@H@1@ABUpiecewise_construct_t@1@$$QAV?$tuple@ABV?$basic_string@DU?$char_traits@D@std@@V?$allocator@D@2@@std@@@1@$$QAV?$tuple@$$V@1@@Z 0043a6a0 f i CommonPathfindingLib:GraphicsBufferManager.obj
 0002:00015730       ??$construct@U?$pair@$$CBV?$basic_string@DU?$char_traits@D@std@@V?$allocator@D@2@@std@@H@std@@ABUpiecewise_construct_t@2@V?$tuple@ABV?$basic_string@DU?$char_traits@D@std@@V?$allocator@D@2@@std@@@2@V?$tuple@$$V@2@@?$allocator@U?$_Tree_node@U?$pair@$$CBV?$basic_string@DU?$char_traits@D@std@@V?$allocator@D@2@@std@@H@std@@PAX@std@@@std@@QAEXPAU?$pair@$$CBV?$basic_string@DU?$char_traits@D@std@@V?$allocator@D@2@@std@@H@1@ABUpiecewise_construct_t@1@$$QAV?$tuple@ABV?$basic_string@DU?$char_traits@D@std@@V?$allocator@D@2@@std@@@1@$$QAV?$tuple@$$V@1@@Z 0043a730 f i CommonPathfindingLib:GraphicsBufferManager.obj
 0002:00015870       ??$construct@U?$pair@$$CBV?$basic_string@DU?$char_traits@D@std@@V?$allocator@D@2@@std@@H@std@@ABUpiecewise_construct_t@2@V?$tuple@ABV?$basic_string@DU?$char_traits@D@std@@V?$allocator@D@2@@std@@@2@V?$tuple@$$V@2@@?$allocator_traits@V?$allocator@U?$_Tree_node@U?$pair@$$CBV?$basic_string@DU?$char_traits@D@std@@V?$allocator@D@2@@std@@H@std@@PAX@std@@@std@@@std@@SAXAAV?$allocator@U?$_Tree_node@U?$pair@$$CBV?$basic_string@DU?$char_traits@D@std@@V?$allocator@D@2@@std@@H@std@@PAX@std@@@1@PAU?$pair@$$CBV?$basic_string@DU?$char_traits@D@std@@V?$allocator@D@2@@std@@H@1@ABUpiecewise_construct_t@1@$$QAV?$tuple@ABV?$basic_string@DU?$char_traits@D@std@@V?$allocator@D@2@@std@@@1@$$QAV?$tuple@$$V@1@@Z 0043a870 f i CommonPathfindingLib:GraphicsBufferManager.obj
 0002:000158f0       ??$destroy@PAU?$_Tree_node@U?$pair@$$CBHPAVGraphicsBuffer@@@std@@PAX@std@@@?$_Wrap_alloc@V?$allocator@U?$_Tree_node@U?$pair@$$CBHPAVGraphicsBuffer@@@std@@PAX@std@@@std@@@std@@QAEXPAPAU?$_Tree_node@U?$pair@$$CBHPAVGraphicsBuffer@@@std@@PAX@1@@Z 0043a8f0 f i CommonPathfindingLib:GraphicsBufferManager.obj
 0002:00015950       ??$destroy@PAU?$_Tree_node@U?$pair@$$CBHPAVGraphicsBuffer@@@std@@PAX@std@@@?$allocator@U?$_Tree_node@U?$pair@$$CBHPAVGraphicsBuffer@@@std@@PAX@std@@@std@@QAEXPAPAU?$_Tree_node@U?$pair@$$CBHPAVGraphicsBuffer@@@std@@PAX@1@@Z 0043a950 f i CommonPathfindingLib:GraphicsBufferManager.obj
 0002:00015990       ??$destroy@PAU?$_Tree_node@U?$pair@$$CBHPAVGraphicsBuffer@@@std@@PAX@std@@@?$allocator_traits@V?$allocator@U?$_Tree_node@U?$pair@$$CBHPAVGraphicsBuffer@@@std@@PAX@std@@@std@@@std@@SAXAAV?$allocator@U?$_Tree_node@U?$pair@$$CBHPAVGraphicsBuffer@@@std@@PAX@std@@@1@PAPAU?$_Tree_node@U?$pair@$$CBHPAVGraphicsBuffer@@@std@@PAX@1@@Z 0043a990 f i CommonPathfindingLib:GraphicsBufferManager.obj
 0002:000159e0       ??$destroy@PAU?$_Tree_node@U?$pair@$$CBV?$basic_string@DU?$char_traits@D@std@@V?$allocator@D@2@@std@@H@std@@PAX@std@@@?$_Wrap_alloc@V?$allocator@U?$_Tree_node@U?$pair@$$CBV?$basic_string@DU?$char_traits@D@std@@V?$allocator@D@2@@std@@H@std@@PAX@std@@@std@@@std@@QAEXPAPAU?$_Tree_node@U?$pair@$$CBV?$basic_string@DU?$char_traits@D@std@@V?$allocator@D@2@@std@@H@std@@PAX@1@@Z 0043a9e0 f i CommonPathfindingLib:GraphicsBufferManager.obj
 0002:00015a40       ??$destroy@PAU?$_Tree_node@U?$pair@$$CBV?$basic_string@DU?$char_traits@D@std@@V?$allocator@D@2@@std@@H@std@@PAX@std@@@?$allocator@U?$_Tree_node@U?$pair@$$CBV?$basic_string@DU?$char_traits@D@std@@V?$allocator@D@2@@std@@H@std@@PAX@std@@@std@@QAEXPAPAU?$_Tree_node@U?$pair@$$CBV?$basic_string@DU?$char_traits@D@std@@V?$allocator@D@2@@std@@H@std@@PAX@1@@Z 0043aa40 f i CommonPathfindingLib:GraphicsBufferManager.obj
 0002:00015a80       ??$destroy@PAU?$_Tree_node@U?$pair@$$CBV?$basic_string@DU?$char_traits@D@std@@V?$allocator@D@2@@std@@H@std@@PAX@std@@@?$allocator_traits@V?$allocator@U?$_Tree_node@U?$pair@$$CBV?$basic_string@DU?$char_traits@D@std@@V?$allocator@D@2@@std@@H@std@@PAX@std@@@std@@@std@@SAXAAV?$allocator@U?$_Tree_node@U?$pair@$$CBV?$basic_string@DU?$char_traits@D@std@@V?$allocator@D@2@@std@@H@std@@PAX@std@@@1@PAPAU?$_Tree_node@U?$pair@$$CBV?$basic_string@DU?$char_traits@D@std@@V?$allocator@D@2@@std@@H@std@@PAX@1@@Z 0043aa80 f i CommonPathfindingLib:GraphicsBufferManager.obj
 0002:00015ad0       ??$destroy@U?$pair@$$CBHPAVGraphicsBuffer@@@std@@@?$_Wrap_alloc@V?$allocator@U?$_Tree_node@U?$pair@$$CBHPAVGraphicsBuffer@@@std@@PAX@std@@@std@@@std@@QAEXPAU?$pair@$$CBHPAVGraphicsBuffer@@@1@@Z 0043aad0 f i CommonPathfindingLib:GraphicsBufferManager.obj
 0002:00015b30       ??$destroy@U?$pair@$$CBHPAVGraphicsBuffer@@@std@@@?$allocator@U?$_Tree_node@U?$pair@$$CBHPAVGraphicsBuffer@@@std@@PAX@std@@@std@@QAEXPAU?$pair@$$CBHPAVGraphicsBuffer@@@1@@Z 0043ab30 f i CommonPathfindingLib:GraphicsBufferManager.obj
 0002:00015b70       ??$destroy@U?$pair@$$CBHPAVGraphicsBuffer@@@std@@@?$allocator_traits@V?$allocator@U?$_Tree_node@U?$pair@$$CBHPAVGraphicsBuffer@@@std@@PAX@std@@@std@@@std@@SAXAAV?$allocator@U?$_Tree_node@U?$pair@$$CBHPAVGraphicsBuffer@@@std@@PAX@std@@@1@PAU?$pair@$$CBHPAVGraphicsBuffer@@@1@@Z 0043ab70 f i CommonPathfindingLib:GraphicsBufferManager.obj
 0002:00015bc0       ??$destroy@U?$pair@$$CBV?$basic_string@DU?$char_traits@D@std@@V?$allocator@D@2@@std@@H@std@@@?$_Wrap_alloc@V?$allocator@U?$_Tree_node@U?$pair@$$CBV?$basic_string@DU?$char_traits@D@std@@V?$allocator@D@2@@std@@H@std@@PAX@std@@@std@@@std@@QAEXPAU?$pair@$$CBV?$basic_string@DU?$char_traits@D@std@@V?$allocator@D@2@@std@@H@1@@Z 0043abc0 f i CommonPathfindingLib:GraphicsBufferManager.obj
 0002:00015c20       ??$destroy@U?$pair@$$CBV?$basic_string@DU?$char_traits@D@std@@V?$allocator@D@2@@std@@H@std@@@?$allocator@U?$_Tree_node@U?$pair@$$CBV?$basic_string@DU?$char_traits@D@std@@V?$allocator@D@2@@std@@H@std@@PAX@std@@@std@@QAEXPAU?$pair@$$CBV?$basic_string@DU?$char_traits@D@std@@V?$allocator@D@2@@std@@H@1@@Z 0043ac20 f i CommonPathfindingLib:GraphicsBufferManager.obj
 0002:00015c80       ??$destroy@U?$pair@$$CBV?$basic_string@DU?$char_traits@D@std@@V?$allocator@D@2@@std@@H@std@@@?$allocator_traits@V?$allocator@U?$_Tree_node@U?$pair@$$CBV?$basic_string@DU?$char_traits@D@std@@V?$allocator@D@2@@std@@H@std@@PAX@std@@@std@@@std@@SAXAAV?$allocator@U?$_Tree_node@U?$pair@$$CBV?$basic_string@DU?$char_traits@D@std@@V?$allocator@D@2@@std@@H@std@@PAX@std@@@1@PAU?$pair@$$CBV?$basic_string@DU?$char_traits@D@std@@V?$allocator@D@2@@std@@H@1@@Z 0043ac80 f i CommonPathfindingLib:GraphicsBufferManager.obj
 0002:00015cd0       ??$emplace_hint@ABUpiecewise_construct_t@std@@V?$tuple@ABH@2@V?$tuple@$$V@2@@?$_Tree@V?$_Tmap_traits@HPAVGraphicsBuffer@@U?$less@H@std@@V?$allocator@U?$pair@$$CBHPAVGraphicsBuffer@@@std@@@3@$0A@@std@@@std@@QAE?AV?$_Tree_iterator@V?$_Tree_val@U?$_Tree_simple_types@U?$pair@$$CBHPAVGraphicsBuffer@@@std@@@std@@@std@@@1@V?$_Tree_const_iterator@V?$_Tree_val@U?$_Tree_simple_types@U?$pair@$$CBHPAVGraphicsBuffer@@@std@@@std@@@std@@@1@ABUpiecewise_construct_t@1@$$QAV?$tuple@ABH@1@$$QAV?$tuple@$$V@1@@Z 0043acd0 f i CommonPathfindingLib:GraphicsBufferManager.obj
 0002:00015e20       ??$emplace_hint@ABUpiecewise_construct_t@std@@V?$tuple@ABV?$basic_string@DU?$char_traits@D@std@@V?$allocator@D@2@@std@@@2@V?$tuple@$$V@2@@?$_Tree@V?$_Tmap_traits@V?$basic_string@DU?$char_traits@D@std@@V?$allocator@D@2@@std@@HU?$less@V?$basic_string@DU?$char_traits@D@std@@V?$allocator@D@2@@std@@@2@V?$allocator@U?$pair@$$CBV?$basic_string@DU?$char_traits@D@std@@V?$allocator@D@2@@std@@H@std@@@2@$0A@@std@@@std@@QAE?AV?$_Tree_iterator@V?$_Tree_val@U?$_Tree_simple_types@U?$pair@$$CBV?$basic_string@DU?$char_traits@D@std@@V?$allocator@D@2@@std@@H@std@@@std@@@std@@@1@V?$_Tree_const_iterator@V?$_Tree_val@U?$_Tree_simple_types@U?$pair@$$CBV?$basic_string@DU?$char_traits@D@std@@V?$allocator@D@2@@std@@H@std@@@std@@@std@@@1@ABUpiecewise_construct_t@1@$$QAV?$tuple@ABV?$basic_string@DU?$char_traits@D@std@@V?$allocator@D@2@@std@@@1@$$QAV?$tuple@$$V@1@@Z 0043ae20 f i CommonPathfindingLib:GraphicsBufferManager.obj
 0002:00015f70       ??$forward@AAPAU?$_Tree_node@U?$pair@$$CBHPAVGraphicsBuffer@@@std@@PAX@std@@@std@@YAAAPAU?$_Tree_node@U?$pair@$$CBHPAVGraphicsBuffer@@@std@@PAX@0@AAPAU10@@Z 0043af70 f i CommonPathfindingLib:GraphicsBufferManager.obj
 0002:00015fb0       ??$forward@AAPAU?$_Tree_node@U?$pair@$$CBV?$basic_string@DU?$char_traits@D@std@@V?$allocator@D@2@@std@@H@std@@PAX@std@@@std@@YAAAPAU?$_Tree_node@U?$pair@$$CBV?$basic_string@DU?$char_traits@D@std@@V?$allocator@D@2@@std@@H@std@@PAX@0@AAPAU10@@Z 0043afb0 f i CommonPathfindingLib:GraphicsBufferManager.obj
 0002:00015ff0       ??$forward@AAU?$_Wrap_alloc@V?$allocator@U?$_Tree_node@U?$pair@$$CBHPAVGraphicsBuffer@@@std@@PAX@std@@@std@@@std@@@std@@YAAAU?$_Wrap_alloc@V?$allocator@U?$_Tree_node@U?$pair@$$CBHPAVGraphicsBuffer@@@std@@PAX@std@@@std@@@0@AAU10@@Z 0043aff0 f i CommonPathfindingLib:GraphicsBufferManager.obj
 0002:00016030       ??$forward@AAU?$_Wrap_alloc@V?$allocator@U?$_Tree_node@U?$pair@$$CBV?$basic_string@DU?$char_traits@D@std@@V?$allocator@D@2@@std@@H@std@@PAX@std@@@std@@@std@@@std@@YAAAU?$_Wrap_alloc@V?$allocator@U?$_Tree_node@U?$pair@$$CBV?$basic_string@DU?$char_traits@D@std@@V?$allocator@D@2@@std@@H@std@@PAX@std@@@std@@@0@AAU10@@Z 0043b030 f i CommonPathfindingLib:GraphicsBufferManager.obj
 0002:00016070       ??$forward@AAU?$pair@$$CBHPAVGraphicsBuffer@@@std@@@std@@YAAAU?$pair@$$CBHPAVGraphicsBuffer@@@0@AAU10@@Z 0043b070 f i CommonPathfindingLib:GraphicsBufferManager.obj
 0002:000160b0       ??$forward@AAU?$pair@$$CBV?$basic_string@DU?$char_traits@D@std@@V?$allocator@D@2@@std@@H@std@@@std@@YAAAU?$pair@$$CBV?$basic_string@DU?$char_traits@D@std@@V?$allocator@D@2@@std@@H@0@AAU10@@Z 0043b0b0 f i CommonPathfindingLib:GraphicsBufferManager.obj
 0002:000160f0       ??$forward@AAV?$_Tree_iterator@V?$_Tree_val@U?$_Tree_simple_types@U?$pair@$$CBHPAVGraphicsBuffer@@@std@@@std@@@std@@@std@@@std@@YAAAV?$_Tree_iterator@V?$_Tree_val@U?$_Tree_simple_types@U?$pair@$$CBHPAVGraphicsBuffer@@@std@@@std@@@std@@@0@AAV10@@Z 0043b0f0 f i CommonPathfindingLib:GraphicsBufferManager.obj
 0002:00016130       ??$forward@AAV?$_Tree_iterator@V?$_Tree_val@U?$_Tree_simple_types@U?$pair@$$CBV?$basic_string@DU?$char_traits@D@std@@V?$allocator@D@2@@std@@H@std@@@std@@@std@@@std@@@std@@YAAAV?$_Tree_iterator@V?$_Tree_val@U?$_Tree_simple_types@U?$pair@$$CBV?$basic_string@DU?$char_traits@D@std@@V?$allocator@D@2@@std@@H@std@@@std@@@std@@@0@AAV10@@Z 0043b130 f i CommonPathfindingLib:GraphicsBufferManager.obj
 0002:00016170       ??$forward@ABH@std@@YAABHABH@Z 0043b170 f i CommonPathfindingLib:GraphicsBufferManager.obj
 0002:000161b0       ??$forward@ABU?$less@H@std@@@std@@YAABU?$less@H@0@ABU10@@Z 0043b1b0 f i CommonPathfindingLib:GraphicsBufferManager.obj
 0002:000161f0       ??$forward@ABU?$less@V?$basic_string@DU?$char_traits@D@std@@V?$allocator@D@2@@std@@@std@@@std@@YAABU?$less@V?$basic_string@DU?$char_traits@D@std@@V?$allocator@D@2@@std@@@0@ABU10@@Z 0043b1f0 f i CommonPathfindingLib:GraphicsBufferManager.obj
 0002:00016230       ??$forward@ABUpiecewise_construct_t@std@@@std@@YAABUpiecewise_construct_t@0@ABU10@@Z 0043b230 f i CommonPathfindingLib:GraphicsBufferManager.obj
 0002:00016270       ??$forward@ABV?$basic_string@DU?$char_traits@D@std@@V?$allocator@D@2@@std@@@std@@YAABV?$basic_string@DU?$char_traits@D@std@@V?$allocator@D@2@@0@ABV10@@Z 0043b270 f i CommonPathfindingLib:GraphicsBufferManager.obj
 0002:000162b0       ??$forward@U?$_Wrap_alloc@V?$allocator@D@std@@@std@@@std@@YA$$QAU?$_Wrap_alloc@V?$allocator@D@std@@@0@AAU10@@Z 0043b2b0 f i CommonPathfindingLib:GraphicsBufferManager.obj
 0002:000162f0       ??$forward@U_Zero_then_variadic_args_t@std@@@std@@YA$$QAU_Zero_then_variadic_args_t@0@AAU10@@Z 0043b2f0 f i CommonPathfindingLib:GraphicsBufferManager.obj
 0002:00016330       ??$forward@V?$_Tree_iterator@V?$_Tree_val@U?$_Tree_simple_types@U?$pair@$$CBHPAVGraphicsBuffer@@@std@@@std@@@std@@@std@@@std@@YA$$QAV?$_Tree_iterator@V?$_Tree_val@U?$_Tree_simple_types@U?$pair@$$CBHPAVGraphicsBuffer@@@std@@@std@@@std@@@0@AAV10@@Z 0043b330 f i CommonPathfindingLib:GraphicsBufferManager.obj
 0002:00016370       ??$forward@V?$_Tree_iterator@V?$_Tree_val@U?$_Tree_simple_types@U?$pair@$$CBV?$basic_string@DU?$char_traits@D@std@@V?$allocator@D@2@@std@@H@std@@@std@@@std@@@std@@@std@@YA$$QAV?$_Tree_iterator@V?$_Tree_val@U?$_Tree_simple_types@U?$pair@$$CBV?$basic_string@DU?$char_traits@D@std@@V?$allocator@D@2@@std@@H@std@@@std@@@std@@@0@AAV10@@Z 0043b370 f i CommonPathfindingLib:GraphicsBufferManager.obj
 0002:000163b0       ??$forward@V?$allocator@D@std@@@std@@YA$$QAV?$allocator@D@0@AAV10@@Z 0043b3b0 f i CommonPathfindingLib:GraphicsBufferManager.obj
 0002:000163f0       ??$forward@V?$tuple@$$V@std@@@std@@YA$$QAV?$tuple@$$V@0@AAV10@@Z 0043b3f0 f i CommonPathfindingLib:GraphicsBufferManager.obj
 0002:00016430       ??$forward@V?$tuple@ABH@std@@@std@@YA$$QAV?$tuple@ABH@0@AAV10@@Z 0043b430 f i CommonPathfindingLib:GraphicsBufferManager.obj
 0002:00016470       ??$forward@V?$tuple@ABV?$basic_string@DU?$char_traits@D@std@@V?$allocator@D@2@@std@@@std@@@std@@YA$$QAV?$tuple@ABV?$basic_string@DU?$char_traits@D@std@@V?$allocator@D@2@@std@@@0@AAV10@@Z 0043b470 f i CommonPathfindingLib:GraphicsBufferManager.obj
 0002:000164b0       ??$forward@_N@std@@YA$$QA_NAA_N@Z 0043b4b0 f i CommonPathfindingLib:GraphicsBufferManager.obj
 0002:000164f0       ??$forward_as_tuple@$$V@std@@YA?AV?$tuple@$$V@0@XZ 0043b4f0 f i CommonPathfindingLib:GraphicsBufferManager.obj
 0002:00016540       ??$forward_as_tuple@ABH@std@@YA?AV?$tuple@ABH@0@ABH@Z 0043b540 f i CommonPathfindingLib:GraphicsBufferManager.obj
 0002:000165e0       ??$forward_as_tuple@ABV?$basic_string@DU?$char_traits@D@std@@V?$allocator@D@2@@std@@@std@@YA?AV?$tuple@ABV?$basic_string@DU?$char_traits@D@std@@V?$allocator@D@2@@std@@@0@ABV?$basic_string@DU?$char_traits@D@std@@V?$allocator@D@2@@0@@Z 0043b5e0 f i CommonPathfindingLib:GraphicsBufferManager.obj
 0002:00016680       ??$get@$0A@ABH@std@@YAABH$$QAV?$tuple@ABH@0@@Z 0043b680 f i CommonPathfindingLib:GraphicsBufferManager.obj
 0002:000166d0       ??$get@$0A@ABV?$basic_string@DU?$char_traits@D@std@@V?$allocator@D@2@@std@@@std@@YAABV?$basic_string@DU?$char_traits@D@std@@V?$allocator@D@2@@0@$$QAV?$tuple@ABV?$basic_string@DU?$char_traits@D@std@@V?$allocator@D@2@@std@@@0@@Z 0043b6d0 f i CommonPathfindingLib:GraphicsBufferManager.obj
 0002:00016720       ??$move@AAD@std@@YA$$QADAAD@Z 0043b720 f i CommonPathfindingLib:GraphicsBufferManager.obj
 0002:00016760       ??$move@AAU?$_Wrap_alloc@V?$allocator@D@std@@@std@@@std@@YA$$QAU?$_Wrap_alloc@V?$allocator@D@std@@@0@AAU10@@Z 0043b760 f i CommonPathfindingLib:GraphicsBufferManager.obj
 0002:000167a0       ??$move@AAV?$tuple@ABH@std@@@std@@YA$$QAV?$tuple@ABH@0@AAV10@@Z 0043b7a0 f i CommonPathfindingLib:GraphicsBufferManager.obj
 0002:000167e0       ??$move@AAV?$tuple@ABV?$basic_string@DU?$char_traits@D@std@@V?$allocator@D@2@@std@@@std@@@std@@YA$$QAV?$tuple@ABV?$basic_string@DU?$char_traits@D@std@@V?$allocator@D@2@@std@@@0@AAV10@@Z 0043b7e0 f i CommonPathfindingLib:GraphicsBufferManager.obj
 0002:00016820       ??$swap@DX@std@@YAXAAD0@Z  0043b820 f i CommonPathfindingLib:GraphicsBufferManager.obj
 0002:000168e0       ??$try_emplace@$$V@?$map@HPAVGraphicsBuffer@@U?$less@H@std@@V?$allocator@U?$pair@$$CBHPAVGraphicsBuffer@@@std@@@3@@std@@QAE?AU?$pair@V?$_Tree_iterator@V?$_Tree_val@U?$_Tree_simple_types@U?$pair@$$CBHPAVGraphicsBuffer@@@std@@@std@@@std@@@std@@_N@1@ABH@Z 0043b8e0 f i CommonPathfindingLib:GraphicsBufferManager.obj
 0002:00016960       ??$try_emplace@$$V@?$map@V?$basic_string@DU?$char_traits@D@std@@V?$allocator@D@2@@std@@HU?$less@V?$basic_string@DU?$char_traits@D@std@@V?$allocator@D@2@@std@@@2@V?$allocator@U?$pair@$$CBV?$basic_string@DU?$char_traits@D@std@@V?$allocator@D@2@@std@@H@std@@@2@@std@@QAE?AU?$pair@V?$_Tree_iterator@V?$_Tree_val@U?$_Tree_simple_types@U?$pair@$$CBV?$basic_string@DU?$char_traits@D@std@@V?$allocator@D@2@@std@@H@std@@@std@@@std@@@std@@_N@1@ABV?$basic_string@DU?$char_traits@D@std@@V?$allocator@D@2@@1@@Z 0043b960 f i CommonPathfindingLib:GraphicsBufferManager.obj
 0002:000169e0       ??0?$_Iterator012@Ubidirectional_iterator_tag@std@@U?$pair@$$CBHPAVGraphicsBuffer@@@2@HPBU32@ABU32@U_Iterator_base12@2@@std@@QAE@$$QAU01@@Z 0043b9e0 f i CommonPathfindingLib:GraphicsBufferManager.obj
 0002:00016a40       ??0?$_Iterator012@Ubidirectional_iterator_tag@std@@U?$pair@$$CBHPAVGraphicsBuffer@@@2@HPBU32@ABU32@U_Iterator_base12@2@@std@@QAE@ABU01@@Z 0043ba40 f i CommonPathfindingLib:GraphicsBufferManager.obj
 0002:00016aa0       ??0?$_Iterator012@Ubidirectional_iterator_tag@std@@U?$pair@$$CBHPAVGraphicsBuffer@@@2@HPBU32@ABU32@U_Iterator_base12@2@@std@@QAE@XZ 0043baa0 f i CommonPathfindingLib:GraphicsBufferManager.obj
 0002:00016b00       ??0?$_Iterator012@Ubidirectional_iterator_tag@std@@U?$pair@$$CBV?$basic_string@DU?$char_traits@D@std@@V?$allocator@D@2@@std@@H@2@HPBU32@ABU32@U_Iterator_base12@2@@std@@QAE@$$QAU01@@Z 0043bb00 f i CommonPathfindingLib:GraphicsBufferManager.obj
 0002:00016b60       ??0?$_Iterator012@Ubidirectional_iterator_tag@std@@U?$pair@$$CBV?$basic_string@DU?$char_traits@D@std@@V?$allocator@D@2@@std@@H@2@HPBU32@ABU32@U_Iterator_base12@2@@std@@QAE@ABU01@@Z 0043bb60 f i CommonPathfindingLib:GraphicsBufferManager.obj
 0002:00016bc0       ??0?$_Iterator012@Ubidirectional_iterator_tag@std@@U?$pair@$$CBV?$basic_string@DU?$char_traits@D@std@@V?$allocator@D@2@@std@@H@2@HPBU32@ABU32@U_Iterator_base12@2@@std@@QAE@XZ 0043bbc0 f i CommonPathfindingLib:GraphicsBufferManager.obj
 0002:00016c20       ??0?$_Tree@V?$_Tmap_traits@HPAVGraphicsBuffer@@U?$less@H@std@@V?$allocator@U?$pair@$$CBHPAVGraphicsBuffer@@@std@@@3@$0A@@std@@@std@@QAE@ABU?$less@H@1@@Z 0043bc20 f i CommonPathfindingLib:GraphicsBufferManager.obj
 0002:00016c80       ??0?$_Tree@V?$_Tmap_traits@V?$basic_string@DU?$char_traits@D@std@@V?$allocator@D@2@@std@@HU?$less@V?$basic_string@DU?$char_traits@D@std@@V?$allocator@D@2@@std@@@2@V?$allocator@U?$pair@$$CBV?$basic_string@DU?$char_traits@D@std@@V?$allocator@D@2@@std@@H@std@@@2@$0A@@std@@@std@@QAE@ABU?$less@V?$basic_string@DU?$char_traits@D@std@@V?$allocator@D@2@@std@@@1@@Z 0043bc80 f i CommonPathfindingLib:GraphicsBufferManager.obj
 0002:00016ce0       ??0?$_Tree_comp_alloc@V?$_Tmap_traits@HPAVGraphicsBuffer@@U?$less@H@std@@V?$allocator@U?$pair@$$CBHPAVGraphicsBuffer@@@std@@@3@$0A@@std@@@std@@QAE@ABU?$less@H@1@@Z 0043bce0 f i CommonPathfindingLib:GraphicsBufferManager.obj
 0002:00016da0       ??0?$_Tree_comp_alloc@V?$_Tmap_traits@V?$basic_string@DU?$char_traits@D@std@@V?$allocator@D@2@@std@@HU?$less@V?$basic_string@DU?$char_traits@D@std@@V?$allocator@D@2@@std@@@2@V?$allocator@U?$pair@$$CBV?$basic_string@DU?$char_traits@D@std@@V?$allocator@D@2@@std@@H@std@@@2@$0A@@std@@@std@@QAE@ABU?$less@V?$basic_string@DU?$char_traits@D@std@@V?$allocator@D@2@@std@@@1@@Z 0043bda0 f i CommonPathfindingLib:GraphicsBufferManager.obj
 0002:00016e60       ??0?$_Tree_const_iterator@V?$_Tree_val@U?$_Tree_simple_types@U?$pair@$$CBHPAVGraphicsBuffer@@@std@@@std@@@std@@@std@@QAE@$$QAV01@@Z 0043be60 f i CommonPathfindingLib:GraphicsBufferManager.obj
 0002:00016ec0       ??0?$_Tree_const_iterator@V?$_Tree_val@U?$_Tree_simple_types@U?$pair@$$CBHPAVGraphicsBuffer@@@std@@@std@@@std@@@std@@QAE@ABV01@@Z 0043bec0 f i CommonPathfindingLib:GraphicsBufferManager.obj
 0002:00016f20       ??0?$_Tree_const_iterator@V?$_Tree_val@U?$_Tree_simple_types@U?$pair@$$CBHPAVGraphicsBuffer@@@std@@@std@@@std@@@std@@QAE@PAU?$_Tree_node@U?$pair@$$CBHPAVGraphicsBuffer@@@std@@PAX@1@PBV?$_Tree_val@U?$_Tree_simple_types@U?$pair@$$CBHPAVGraphicsBuffer@@@std@@@std@@@1@@Z 0043bf20 f i CommonPathfindingLib:GraphicsBufferManager.obj
 0002:00016f80       ??0?$_Tree_const_iterator@V?$_Tree_val@U?$_Tree_simple_types@U?$pair@$$CBHPAVGraphicsBuffer@@@std@@@std@@@std@@@std@@QAE@XZ 0043bf80 f i CommonPathfindingLib:GraphicsBufferManager.obj
 0002:00016fe0       ??0?$_Tree_const_iterator@V?$_Tree_val@U?$_Tree_simple_types@U?$pair@$$CBV?$basic_string@DU?$char_traits@D@std@@V?$allocator@D@2@@std@@H@std@@@std@@@std@@@std@@QAE@$$QAV01@@Z 0043bfe0 f i CommonPathfindingLib:GraphicsBufferManager.obj
 0002:00017040       ??0?$_Tree_const_iterator@V?$_Tree_val@U?$_Tree_simple_types@U?$pair@$$CBV?$basic_string@DU?$char_traits@D@std@@V?$allocator@D@2@@std@@H@std@@@std@@@std@@@std@@QAE@ABV01@@Z 0043c040 f i CommonPathfindingLib:GraphicsBufferManager.obj
 0002:000170a0       ??0?$_Tree_const_iterator@V?$_Tree_val@U?$_Tree_simple_types@U?$pair@$$CBV?$basic_string@DU?$char_traits@D@std@@V?$allocator@D@2@@std@@H@std@@@std@@@std@@@std@@QAE@PAU?$_Tree_node@U?$pair@$$CBV?$basic_string@DU?$char_traits@D@std@@V?$allocator@D@2@@std@@H@std@@PAX@1@PBV?$_Tree_val@U?$_Tree_simple_types@U?$pair@$$CBV?$basic_string@DU?$char_traits@D@std@@V?$allocator@D@2@@std@@H@std@@@std@@@1@@Z 0043c0a0 f i CommonPathfindingLib:GraphicsBufferManager.obj
 0002:00017100       ??0?$_Tree_const_iterator@V?$_Tree_val@U?$_Tree_simple_types@U?$pair@$$CBV?$basic_string@DU?$char_traits@D@std@@V?$allocator@D@2@@std@@H@std@@@std@@@std@@@std@@QAE@XZ 0043c100 f i CommonPathfindingLib:GraphicsBufferManager.obj
 0002:00017160       ??0?$_Tree_iterator@V?$_Tree_val@U?$_Tree_simple_types@U?$pair@$$CBHPAVGraphicsBuffer@@@std@@@std@@@std@@@std@@QAE@$$QAV01@@Z 0043c160 f i CommonPathfindingLib:GraphicsBufferManager.obj
 0002:000171c0       ??0?$_Tree_iterator@V?$_Tree_val@U?$_Tree_simple_types@U?$pair@$$CBHPAVGraphicsBuffer@@@std@@@std@@@std@@@std@@QAE@ABV01@@Z 0043c1c0 f i CommonPathfindingLib:GraphicsBufferManager.obj
 0002:00017220       ??0?$_Tree_iterator@V?$_Tree_val@U?$_Tree_simple_types@U?$pair@$$CBHPAVGraphicsBuffer@@@std@@@std@@@std@@@std@@QAE@PAU?$_Tree_node@U?$pair@$$CBHPAVGraphicsBuffer@@@std@@PAX@1@PBV?$_Tree_val@U?$_Tree_simple_types@U?$pair@$$CBHPAVGraphicsBuffer@@@std@@@std@@@1@@Z 0043c220 f i CommonPathfindingLib:GraphicsBufferManager.obj
 0002:00017280       ??0?$_Tree_iterator@V?$_Tree_val@U?$_Tree_simple_types@U?$pair@$$CBHPAVGraphicsBuffer@@@std@@@std@@@std@@@std@@QAE@XZ 0043c280 f i CommonPathfindingLib:GraphicsBufferManager.obj
 0002:000172e0       ??0?$_Tree_iterator@V?$_Tree_val@U?$_Tree_simple_types@U?$pair@$$CBV?$basic_string@DU?$char_traits@D@std@@V?$allocator@D@2@@std@@H@std@@@std@@@std@@@std@@QAE@$$QAV01@@Z 0043c2e0 f i CommonPathfindingLib:GraphicsBufferManager.obj
 0002:00017340       ??0?$_Tree_iterator@V?$_Tree_val@U?$_Tree_simple_types@U?$pair@$$CBV?$basic_string@DU?$char_traits@D@std@@V?$allocator@D@2@@std@@H@std@@@std@@@std@@@std@@QAE@ABV01@@Z 0043c340 f i CommonPathfindingLib:GraphicsBufferManager.obj
 0002:000173a0       ??0?$_Tree_iterator@V?$_Tree_val@U?$_Tree_simple_types@U?$pair@$$CBV?$basic_string@DU?$char_traits@D@std@@V?$allocator@D@2@@std@@H@std@@@std@@@std@@@std@@QAE@PAU?$_Tree_node@U?$pair@$$CBV?$basic_string@DU?$char_traits@D@std@@V?$allocator@D@2@@std@@H@std@@PAX@1@PBV?$_Tree_val@U?$_Tree_simple_types@U?$pair@$$CBV?$basic_string@DU?$char_traits@D@std@@V?$allocator@D@2@@std@@H@std@@@std@@@1@@Z 0043c3a0 f i CommonPathfindingLib:GraphicsBufferManager.obj
 0002:00017400       ??0?$_Tree_iterator@V?$_Tree_val@U?$_Tree_simple_types@U?$pair@$$CBV?$basic_string@DU?$char_traits@D@std@@V?$allocator@D@2@@std@@H@std@@@std@@@std@@@std@@QAE@XZ 0043c400 f i CommonPathfindingLib:GraphicsBufferManager.obj
 0002:00017460       ??0?$_Tree_unchecked_const_iterator@V?$_Tree_val@U?$_Tree_simple_types@U?$pair@$$CBHPAVGraphicsBuffer@@@std@@@std@@@std@@U_Iterator_base12@2@@std@@QAE@$$QAV01@@Z 0043c460 f i CommonPathfindingLib:GraphicsBufferManager.obj
 0002:000174d0       ??0?$_Tree_unchecked_const_iterator@V?$_Tree_val@U?$_Tree_simple_types@U?$pair@$$CBHPAVGraphicsBuffer@@@std@@@std@@@std@@U_Iterator_base12@2@@std@@QAE@ABV01@@Z 0043c4d0 f i CommonPathfindingLib:GraphicsBufferManager.obj
 0002:00017540       ??0?$_Tree_unchecked_const_iterator@V?$_Tree_val@U?$_Tree_simple_types@U?$pair@$$CBHPAVGraphicsBuffer@@@std@@@std@@@std@@U_Iterator_base12@2@@std@@QAE@PAU?$_Tree_node@U?$pair@$$CBHPAVGraphicsBuffer@@@std@@PAX@1@PBV?$_Tree_val@U?$_Tree_simple_types@U?$pair@$$CBHPAVGraphicsBuffer@@@std@@@std@@@1@@Z 0043c540 f i CommonPathfindingLib:GraphicsBufferManager.obj
 0002:00017600       ??0?$_Tree_unchecked_const_iterator@V?$_Tree_val@U?$_Tree_simple_types@U?$pair@$$CBHPAVGraphicsBuffer@@@std@@@std@@@std@@U_Iterator_base12@2@@std@@QAE@XZ 0043c600 f i CommonPathfindingLib:GraphicsBufferManager.obj
 0002:00017660       ??0?$_Tree_unchecked_const_iterator@V?$_Tree_val@U?$_Tree_simple_types@U?$pair@$$CBV?$basic_string@DU?$char_traits@D@std@@V?$allocator@D@2@@std@@H@std@@@std@@@std@@U_Iterator_base12@2@@std@@QAE@$$QAV01@@Z 0043c660 f i CommonPathfindingLib:GraphicsBufferManager.obj
 0002:000176d0       ??0?$_Tree_unchecked_const_iterator@V?$_Tree_val@U?$_Tree_simple_types@U?$pair@$$CBV?$basic_string@DU?$char_traits@D@std@@V?$allocator@D@2@@std@@H@std@@@std@@@std@@U_Iterator_base12@2@@std@@QAE@ABV01@@Z 0043c6d0 f i CommonPathfindingLib:GraphicsBufferManager.obj
 0002:00017740       ??0?$_Tree_unchecked_const_iterator@V?$_Tree_val@U?$_Tree_simple_types@U?$pair@$$CBV?$basic_string@DU?$char_traits@D@std@@V?$allocator@D@2@@std@@H@std@@@std@@@std@@U_Iterator_base12@2@@std@@QAE@PAU?$_Tree_node@U?$pair@$$CBV?$basic_string@DU?$char_traits@D@std@@V?$allocator@D@2@@std@@H@std@@PAX@1@PBV?$_Tree_val@U?$_Tree_simple_types@U?$pair@$$CBV?$basic_string@DU?$char_traits@D@std@@V?$allocator@D@2@@std@@H@std@@@std@@@1@@Z 0043c740 f i CommonPathfindingLib:GraphicsBufferManager.obj
 0002:00017800       ??0?$_Tree_unchecked_const_iterator@V?$_Tree_val@U?$_Tree_simple_types@U?$pair@$$CBV?$basic_string@DU?$char_traits@D@std@@V?$allocator@D@2@@std@@H@std@@@std@@@std@@U_Iterator_base12@2@@std@@QAE@XZ 0043c800 f i CommonPathfindingLib:GraphicsBufferManager.obj
 0002:00017860       ??0?$_Tree_val@U?$_Tree_simple_types@U?$pair@$$CBHPAVGraphicsBuffer@@@std@@@std@@@std@@QAE@XZ 0043c860 f i CommonPathfindingLib:GraphicsBufferManager.obj
 0002:000178d0       ??0?$_Tree_val@U?$_Tree_simple_types@U?$pair@$$CBV?$basic_string@DU?$char_traits@D@std@@V?$allocator@D@2@@std@@H@std@@@std@@@std@@QAE@XZ 0043c8d0 f i CommonPathfindingLib:GraphicsBufferManager.obj
 0002:00017940       ??0?$_Wrap_alloc@V?$allocator@D@std@@@std@@QAE@$$QAU01@@Z 0043c940 f i CommonPathfindingLib:GraphicsBufferManager.obj
 0002:000179b0       ??0?$_Wrap_alloc@V?$allocator@U?$_Tree_node@U?$pair@$$CBHPAVGraphicsBuffer@@@std@@PAX@std@@@std@@@std@@QAE@XZ 0043c9b0 f i CommonPathfindingLib:GraphicsBufferManager.obj
 0002:00017a10       ??0?$_Wrap_alloc@V?$allocator@U?$_Tree_node@U?$pair@$$CBV?$basic_string@DU?$char_traits@D@std@@V?$allocator@D@2@@std@@H@std@@PAX@std@@@std@@@std@@QAE@XZ 0043ca10 f i CommonPathfindingLib:GraphicsBufferManager.obj
 0002:00017a70       ??0?$allocator@D@std@@QAE@ABV01@@Z 0043ca70 f i CommonPathfindingLib:GraphicsBufferManager.obj
 0002:00017ab0       ??0?$allocator@U?$_Tree_node@U?$pair@$$CBHPAVGraphicsBuffer@@@std@@PAX@std@@@std@@QAE@XZ 0043cab0 f i CommonPathfindingLib:GraphicsBufferManager.obj
 0002:00017af0       ??0?$allocator@U?$_Tree_node@U?$pair@$$CBV?$basic_string@DU?$char_traits@D@std@@V?$allocator@D@2@@std@@H@std@@PAX@std@@@std@@QAE@XZ 0043caf0 f i CommonPathfindingLib:GraphicsBufferManager.obj
 0002:00017b30       ??0?$basic_string@DU?$char_traits@D@std@@V?$allocator@D@2@@std@@QAE@ABV01@@Z 0043cb30 f i CommonPathfindingLib:GraphicsBufferManager.obj
 0002:00017c20       ??0?$map@HPAVGraphicsBuffer@@U?$less@H@std@@V?$allocator@U?$pair@$$CBHPAVGraphicsBuffer@@@std@@@3@@std@@QAE@XZ 0043cc20 f i CommonPathfindingLib:GraphicsBufferManager.obj
 0002:00017c80       ??0?$map@V?$basic_string@DU?$char_traits@D@std@@V?$allocator@D@2@@std@@HU?$less@V?$basic_string@DU?$char_traits@D@std@@V?$allocator@D@2@@std@@@2@V?$allocator@U?$pair@$$CBV?$basic_string@DU?$char_traits@D@std@@V?$allocator@D@2@@std@@H@std@@@2@@std@@QAE@XZ 0043cc80 f i CommonPathfindingLib:GraphicsBufferManager.obj
 0002:00017ce0       ??0?$tuple@$$V@std@@QAE@ABV01@@Z 0043cce0 f i CommonPathfindingLib:GraphicsBufferManager.obj
 0002:00017d20       ??0?$tuple@$$V@std@@QAE@XZ 0043cd20 f i CommonPathfindingLib:GraphicsBufferManager.obj
 0002:00017d60       ??0?$tuple@ABH@std@@QAE@$$QAV01@@Z 0043cd60 f i CommonPathfindingLib:GraphicsBufferManager.obj
 0002:00017dd0       ??0?$tuple@ABV?$basic_string@DU?$char_traits@D@std@@V?$allocator@D@2@@std@@@std@@QAE@$$QAV01@@Z 0043cdd0 f i CommonPathfindingLib:GraphicsBufferManager.obj
 0002:00017e40       ??0GraphicsBufferManager@@QAE@XZ 0043ce40 f   CommonPathfindingLib:GraphicsBufferManager.obj
 0002:00017ef0       ??0_Iterator_base12@std@@QAE@ABU01@@Z 0043cef0 f i CommonPathfindingLib:GraphicsBufferManager.obj
 0002:00017f70       ??1?$_Compressed_pair@U?$_Wrap_alloc@V?$allocator@U?$_Tree_node@U?$pair@$$CBHPAVGraphicsBuffer@@@std@@PAX@std@@@std@@@std@@V?$_Tree_val@U?$_Tree_simple_types@U?$pair@$$CBHPAVGraphicsBuffer@@@std@@@std@@@2@$00@std@@QAE@XZ 0043cf70 f i CommonPathfindingLib:GraphicsBufferManager.obj
 0002:00017fc0       ??1?$_Compressed_pair@U?$_Wrap_alloc@V?$allocator@U?$_Tree_node@U?$pair@$$CBV?$basic_string@DU?$char_traits@D@std@@V?$allocator@D@2@@std@@H@std@@PAX@std@@@std@@@std@@V?$_Tree_val@U?$_Tree_simple_types@U?$pair@$$CBV?$basic_string@DU?$char_traits@D@std@@V?$allocator@D@2@@std@@H@std@@@std@@@2@$00@std@@QAE@XZ 0043cfc0 f i CommonPathfindingLib:GraphicsBufferManager.obj
 0002:00018010       ??1?$_Compressed_pair@U?$less@H@std@@V?$_Compressed_pair@U?$_Wrap_alloc@V?$allocator@U?$_Tree_node@U?$pair@$$CBHPAVGraphicsBuffer@@@std@@PAX@std@@@std@@@std@@V?$_Tree_val@U?$_Tree_simple_types@U?$pair@$$CBHPAVGraphicsBuffer@@@std@@@std@@@2@$00@2@$00@std@@QAE@XZ 0043d010 f i CommonPathfindingLib:GraphicsBufferManager.obj
 0002:00018060       ??1?$_Compressed_pair@U?$less@V?$basic_string@DU?$char_traits@D@std@@V?$allocator@D@2@@std@@@std@@V?$_Compressed_pair@U?$_Wrap_alloc@V?$allocator@U?$_Tree_node@U?$pair@$$CBV?$basic_string@DU?$char_traits@D@std@@V?$allocator@D@2@@std@@H@std@@PAX@std@@@std@@@std@@V?$_Tree_val@U?$_Tree_simple_types@U?$pair@$$CBV?$basic_string@DU?$char_traits@D@std@@V?$allocator@D@2@@std@@H@std@@@std@@@2@$00@2@$00@std@@QAE@XZ 0043d060 f i CommonPathfindingLib:GraphicsBufferManager.obj
 0002:000180b0       ??1?$_Iterator012@Ubidirectional_iterator_tag@std@@U?$pair@$$CBHPAVGraphicsBuffer@@@2@HPBU32@ABU32@U_Iterator_base12@2@@std@@QAE@XZ 0043d0b0 f i CommonPathfindingLib:GraphicsBufferManager.obj
 0002:00018100       ??1?$_Iterator012@Ubidirectional_iterator_tag@std@@U?$pair@$$CBV?$basic_string@DU?$char_traits@D@std@@V?$allocator@D@2@@std@@H@2@HPBU32@ABU32@U_Iterator_base12@2@@std@@QAE@XZ 0043d100 f i CommonPathfindingLib:GraphicsBufferManager.obj
 0002:00018150       ??1?$_Tree@V?$_Tmap_traits@HPAVGraphicsBuffer@@U?$less@H@std@@V?$allocator@U?$pair@$$CBHPAVGraphicsBuffer@@@std@@@3@$0A@@std@@@std@@QAE@XZ 0043d150 f i CommonPathfindingLib:GraphicsBufferManager.obj
 0002:000181e0       ??1?$_Tree@V?$_Tmap_traits@V?$basic_string@DU?$char_traits@D@std@@V?$allocator@D@2@@std@@HU?$less@V?$basic_string@DU?$char_traits@D@std@@V?$allocator@D@2@@std@@@2@V?$allocator@U?$pair@$$CBV?$basic_string@DU?$char_traits@D@std@@V?$allocator@D@2@@std@@H@std@@@2@$0A@@std@@@std@@QAE@XZ 0043d1e0 f i CommonPathfindingLib:GraphicsBufferManager.obj
 0002:00018270       ??1?$_Tree_comp_alloc@V?$_Tmap_traits@HPAVGraphicsBuffer@@U?$less@H@std@@V?$allocator@U?$pair@$$CBHPAVGraphicsBuffer@@@std@@@3@$0A@@std@@@std@@QAE@XZ 0043d270 f i CommonPathfindingLib:GraphicsBufferManager.obj
 0002:00018320       ??1?$_Tree_comp_alloc@V?$_Tmap_traits@V?$basic_string@DU?$char_traits@D@std@@V?$allocator@D@2@@std@@HU?$less@V?$basic_string@DU?$char_traits@D@std@@V?$allocator@D@2@@std@@@2@V?$allocator@U?$pair@$$CBV?$basic_string@DU?$char_traits@D@std@@V?$allocator@D@2@@std@@H@std@@@2@$0A@@std@@@std@@QAE@XZ 0043d320 f i CommonPathfindingLib:GraphicsBufferManager.obj
 0002:000183d0       ??1?$_Tree_const_iterator@V?$_Tree_val@U?$_Tree_simple_types@U?$pair@$$CBHPAVGraphicsBuffer@@@std@@@std@@@std@@@std@@QAE@XZ 0043d3d0 f i CommonPathfindingLib:GraphicsBufferManager.obj
 0002:00018420       ??1?$_Tree_const_iterator@V?$_Tree_val@U?$_Tree_simple_types@U?$pair@$$CBV?$basic_string@DU?$char_traits@D@std@@V?$allocator@D@2@@std@@H@std@@@std@@@std@@@std@@QAE@XZ 0043d420 f i CommonPathfindingLib:GraphicsBufferManager.obj
 0002:00018470       ??1?$_Tree_iterator@V?$_Tree_val@U?$_Tree_simple_types@U?$pair@$$CBHPAVGraphicsBuffer@@@std@@@std@@@std@@@std@@QAE@XZ 0043d470 f i CommonPathfindingLib:GraphicsBufferManager.obj
 0002:000184c0       ??1?$_Tree_iterator@V?$_Tree_val@U?$_Tree_simple_types@U?$pair@$$CBV?$basic_string@DU?$char_traits@D@std@@V?$allocator@D@2@@std@@H@std@@@std@@@std@@@std@@QAE@XZ 0043d4c0 f i CommonPathfindingLib:GraphicsBufferManager.obj
 0002:00018510       ??1?$_Tree_unchecked_const_iterator@V?$_Tree_val@U?$_Tree_simple_types@U?$pair@$$CBHPAVGraphicsBuffer@@@std@@@std@@@std@@U_Iterator_base12@2@@std@@QAE@XZ 0043d510 f i CommonPathfindingLib:GraphicsBufferManager.obj
 0002:00018560       ??1?$_Tree_unchecked_const_iterator@V?$_Tree_val@U?$_Tree_simple_types@U?$pair@$$CBV?$basic_string@DU?$char_traits@D@std@@V?$allocator@D@2@@std@@H@std@@@std@@@std@@U_Iterator_base12@2@@std@@QAE@XZ 0043d560 f i CommonPathfindingLib:GraphicsBufferManager.obj
 0002:000185b0       ??1?$_Tree_val@U?$_Tree_simple_types@U?$pair@$$CBHPAVGraphicsBuffer@@@std@@@std@@@std@@QAE@XZ 0043d5b0 f i CommonPathfindingLib:GraphicsBufferManager.obj
 0002:00018600       ??1?$_Tree_val@U?$_Tree_simple_types@U?$pair@$$CBV?$basic_string@DU?$char_traits@D@std@@V?$allocator@D@2@@std@@H@std@@@std@@@std@@QAE@XZ 0043d600 f i CommonPathfindingLib:GraphicsBufferManager.obj
 0002:00018650       ??1?$map@HPAVGraphicsBuffer@@U?$less@H@std@@V?$allocator@U?$pair@$$CBHPAVGraphicsBuffer@@@std@@@3@@std@@QAE@XZ 0043d650 f i CommonPathfindingLib:GraphicsBufferManager.obj
 0002:000186a0       ??1?$map@V?$basic_string@DU?$char_traits@D@std@@V?$allocator@D@2@@std@@HU?$less@V?$basic_string@DU?$char_traits@D@std@@V?$allocator@D@2@@std@@@2@V?$allocator@U?$pair@$$CBV?$basic_string@DU?$char_traits@D@std@@V?$allocator@D@2@@std@@H@std@@@2@@std@@QAE@XZ 0043d6a0 f i CommonPathfindingLib:GraphicsBufferManager.obj
 0002:000186f0       ??1?$pair@$$CBV?$basic_string@DU?$char_traits@D@std@@V?$allocator@D@2@@std@@H@std@@QAE@XZ 0043d6f0 f i CommonPathfindingLib:GraphicsBufferManager.obj
 0002:00018740       ??1?$pair@V?$_Tree_iterator@V?$_Tree_val@U?$_Tree_simple_types@U?$pair@$$CBHPAVGraphicsBuffer@@@std@@@std@@@std@@@std@@_N@std@@QAE@XZ 0043d740 f i CommonPathfindingLib:GraphicsBufferManager.obj
 0002:00018790       ??1?$pair@V?$_Tree_iterator@V?$_Tree_val@U?$_Tree_simple_types@U?$pair@$$CBV?$basic_string@DU?$char_traits@D@std@@V?$allocator@D@2@@std@@H@std@@@std@@@std@@@std@@_N@std@@QAE@XZ 0043d790 f i CommonPathfindingLib:GraphicsBufferManager.obj
 0002:000187e0       ??1GraphicsBufferManager@@QAE@XZ 0043d7e0 f   CommonPathfindingLib:GraphicsBufferManager.obj
 0002:00018880       ??3@YAXPAX0@Z              0043d880 f i CommonPathfindingLib:GraphicsBufferManager.obj
 0002:000188b0       ??4?$_Iterator012@Ubidirectional_iterator_tag@std@@U?$pair@$$CBHPAVGraphicsBuffer@@@2@HPBU32@ABU32@U_Iterator_base12@2@@std@@QAEAAU01@$$QAU01@@Z 0043d8b0 f i CommonPathfindingLib:GraphicsBufferManager.obj
 0002:00018910       ??4?$_Iterator012@Ubidirectional_iterator_tag@std@@U?$pair@$$CBHPAVGraphicsBuffer@@@2@HPBU32@ABU32@U_Iterator_base12@2@@std@@QAEAAU01@ABU01@@Z 0043d910 f i CommonPathfindingLib:GraphicsBufferManager.obj
 0002:00018970       ??4?$_Iterator012@Ubidirectional_iterator_tag@std@@U?$pair@$$CBV?$basic_string@DU?$char_traits@D@std@@V?$allocator@D@2@@std@@H@2@HPBU32@ABU32@U_Iterator_base12@2@@std@@QAEAAU01@$$QAU01@@Z 0043d970 f i CommonPathfindingLib:GraphicsBufferManager.obj
 0002:000189d0       ??4?$_Iterator012@Ubidirectional_iterator_tag@std@@U?$pair@$$CBV?$basic_string@DU?$char_traits@D@std@@V?$allocator@D@2@@std@@H@2@HPBU32@ABU32@U_Iterator_base12@2@@std@@QAEAAU01@ABU01@@Z 0043d9d0 f i CommonPathfindingLib:GraphicsBufferManager.obj
 0002:00018a30       ??4?$_Tree_const_iterator@V?$_Tree_val@U?$_Tree_simple_types@U?$pair@$$CBHPAVGraphicsBuffer@@@std@@@std@@@std@@@std@@QAEAAV01@$$QAV01@@Z 0043da30 f i CommonPathfindingLib:GraphicsBufferManager.obj
 0002:00018a90       ??4?$_Tree_const_iterator@V?$_Tree_val@U?$_Tree_simple_types@U?$pair@$$CBHPAVGraphicsBuffer@@@std@@@std@@@std@@@std@@QAEAAV01@ABV01@@Z 0043da90 f i CommonPathfindingLib:GraphicsBufferManager.obj
 0002:00018af0       ??4?$_Tree_const_iterator@V?$_Tree_val@U?$_Tree_simple_types@U?$pair@$$CBV?$basic_string@DU?$char_traits@D@std@@V?$allocator@D@2@@std@@H@std@@@std@@@std@@@std@@QAEAAV01@$$QAV01@@Z 0043daf0 f i CommonPathfindingLib:GraphicsBufferManager.obj
 0002:00018b50       ??4?$_Tree_const_iterator@V?$_Tree_val@U?$_Tree_simple_types@U?$pair@$$CBV?$basic_string@DU?$char_traits@D@std@@V?$allocator@D@2@@std@@H@std@@@std@@@std@@@std@@QAEAAV01@ABV01@@Z 0043db50 f i CommonPathfindingLib:GraphicsBufferManager.obj
 0002:00018bb0       ??4?$_Tree_iterator@V?$_Tree_val@U?$_Tree_simple_types@U?$pair@$$CBHPAVGraphicsBuffer@@@std@@@std@@@std@@@std@@QAEAAV01@$$QAV01@@Z 0043dbb0 f i CommonPathfindingLib:GraphicsBufferManager.obj
 0002:00018c10       ??4?$_Tree_iterator@V?$_Tree_val@U?$_Tree_simple_types@U?$pair@$$CBV?$basic_string@DU?$char_traits@D@std@@V?$allocator@D@2@@std@@H@std@@@std@@@std@@@std@@QAEAAV01@$$QAV01@@Z 0043dc10 f i CommonPathfindingLib:GraphicsBufferManager.obj
 0002:00018c70       ??4?$_Tree_unchecked_const_iterator@V?$_Tree_val@U?$_Tree_simple_types@U?$pair@$$CBHPAVGraphicsBuffer@@@std@@@std@@@std@@U_Iterator_base12@2@@std@@QAEAAV01@$$QAV01@@Z 0043dc70 f i CommonPathfindingLib:GraphicsBufferManager.obj
 0002:00018ce0       ??4?$_Tree_unchecked_const_iterator@V?$_Tree_val@U?$_Tree_simple_types@U?$pair@$$CBHPAVGraphicsBuffer@@@std@@@std@@@std@@U_Iterator_base12@2@@std@@QAEAAV01@ABV01@@Z 0043dce0 f i CommonPathfindingLib:GraphicsBufferManager.obj
 0002:00018d50       ??4?$_Tree_unchecked_const_iterator@V?$_Tree_val@U?$_Tree_simple_types@U?$pair@$$CBV?$basic_string@DU?$char_traits@D@std@@V?$allocator@D@2@@std@@H@std@@@std@@@std@@U_Iterator_base12@2@@std@@QAEAAV01@$$QAV01@@Z 0043dd50 f i CommonPathfindingLib:GraphicsBufferManager.obj
 0002:00018dc0       ??4?$_Tree_unchecked_const_iterator@V?$_Tree_val@U?$_Tree_simple_types@U?$pair@$$CBV?$basic_string@DU?$char_traits@D@std@@V?$allocator@D@2@@std@@H@std@@@std@@@std@@U_Iterator_base12@2@@std@@QAEAAV01@ABV01@@Z 0043ddc0 f i CommonPathfindingLib:GraphicsBufferManager.obj
 0002:00018e30       ??4_Iterator_base12@std@@QAEAAU01@ABU01@@Z 0043de30 f i CommonPathfindingLib:GraphicsBufferManager.obj
 0002:00018f70       ??8?$_Tree_const_iterator@V?$_Tree_val@U?$_Tree_simple_types@U?$pair@$$CBHPAVGraphicsBuffer@@@std@@@std@@@std@@@std@@QBE_NABV01@@Z 0043df70 f i CommonPathfindingLib:GraphicsBufferManager.obj
 0002:000190c0       ??8?$_Tree_const_iterator@V?$_Tree_val@U?$_Tree_simple_types@U?$pair@$$CBV?$basic_string@DU?$char_traits@D@std@@V?$allocator@D@2@@std@@H@std@@@std@@@std@@@std@@QBE_NABV01@@Z 0043e0c0 f i CommonPathfindingLib:GraphicsBufferManager.obj
 0002:00019210       ??9?$_Tree_const_iterator@V?$_Tree_val@U?$_Tree_simple_types@U?$pair@$$CBHPAVGraphicsBuffer@@@std@@@std@@@std@@@std@@QBE_NABV01@@Z 0043e210 f i CommonPathfindingLib:GraphicsBufferManager.obj
 0002:000192a0       ??9?$_Tree_const_iterator@V?$_Tree_val@U?$_Tree_simple_types@U?$pair@$$CBV?$basic_string@DU?$char_traits@D@std@@V?$allocator@D@2@@std@@H@std@@@std@@@std@@@std@@QBE_NABV01@@Z 0043e2a0 f i CommonPathfindingLib:GraphicsBufferManager.obj
 0002:00019330       ??A?$map@HPAVGraphicsBuffer@@U?$less@H@std@@V?$allocator@U?$pair@$$CBHPAVGraphicsBuffer@@@std@@@3@@std@@QAEAAPAVGraphicsBuffer@@ABH@Z 0043e330 f i CommonPathfindingLib:GraphicsBufferManager.obj
 0002:00019420       ??A?$map@V?$basic_string@DU?$char_traits@D@std@@V?$allocator@D@2@@std@@HU?$less@V?$basic_string@DU?$char_traits@D@std@@V?$allocator@D@2@@std@@@2@V?$allocator@U?$pair@$$CBV?$basic_string@DU?$char_traits@D@std@@V?$allocator@D@2@@std@@H@std@@@2@@std@@QAEAAHABV?$basic_string@DU?$char_traits@D@std@@V?$allocator@D@2@@1@@Z 0043e420 f i CommonPathfindingLib:GraphicsBufferManager.obj
 0002:00019510       ??C?$_Tree_iterator@V?$_Tree_val@U?$_Tree_simple_types@U?$pair@$$CBHPAVGraphicsBuffer@@@std@@@std@@@std@@@std@@QBEPAU?$pair@$$CBHPAVGraphicsBuffer@@@1@XZ 0043e510 f i CommonPathfindingLib:GraphicsBufferManager.obj
 0002:00019570       ??C?$_Tree_iterator@V?$_Tree_val@U?$_Tree_simple_types@U?$pair@$$CBV?$basic_string@DU?$char_traits@D@std@@V?$allocator@D@2@@std@@H@std@@@std@@@std@@@std@@QBEPAU?$pair@$$CBV?$basic_string@DU?$char_traits@D@std@@V?$allocator@D@2@@std@@H@1@XZ 0043e570 f i CommonPathfindingLib:GraphicsBufferManager.obj
 0002:000195d0       ??D?$_Tree_const_iterator@V?$_Tree_val@U?$_Tree_simple_types@U?$pair@$$CBHPAVGraphicsBuffer@@@std@@@std@@@std@@@std@@QBEABU?$pair@$$CBHPAVGraphicsBuffer@@@1@XZ 0043e5d0 f i CommonPathfindingLib:GraphicsBufferManager.obj
 0002:00019710       ??D?$_Tree_const_iterator@V?$_Tree_val@U?$_Tree_simple_types@U?$pair@$$CBV?$basic_string@DU?$char_traits@D@std@@V?$allocator@D@2@@std@@H@std@@@std@@@std@@@std@@QBEABU?$pair@$$CBV?$basic_string@DU?$char_traits@D@std@@V?$allocator@D@2@@std@@H@1@XZ 0043e710 f i CommonPathfindingLib:GraphicsBufferManager.obj
 0002:00019850       ??D?$_Tree_iterator@V?$_Tree_val@U?$_Tree_simple_types@U?$pair@$$CBHPAVGraphicsBuffer@@@std@@@std@@@std@@@std@@QBEAAU?$pair@$$CBHPAVGraphicsBuffer@@@1@XZ 0043e850 f i CommonPathfindingLib:GraphicsBufferManager.obj
 0002:000198a0       ??D?$_Tree_iterator@V?$_Tree_val@U?$_Tree_simple_types@U?$pair@$$CBV?$basic_string@DU?$char_traits@D@std@@V?$allocator@D@2@@std@@H@std@@@std@@@std@@@std@@QBEAAU?$pair@$$CBV?$basic_string@DU?$char_traits@D@std@@V?$allocator@D@2@@std@@H@1@XZ 0043e8a0 f i CommonPathfindingLib:GraphicsBufferManager.obj
 0002:000198f0       ??E?$_Tree_const_iterator@V?$_Tree_val@U?$_Tree_simple_types@U?$pair@$$CBHPAVGraphicsBuffer@@@std@@@std@@@std@@@std@@QAE?AV01@H@Z 0043e8f0 f i CommonPathfindingLib:GraphicsBufferManager.obj
 0002:00019a10       ??E?$_Tree_const_iterator@V?$_Tree_val@U?$_Tree_simple_types@U?$pair@$$CBHPAVGraphicsBuffer@@@std@@@std@@@std@@@std@@QAEAAV01@XZ 0043ea10 f i CommonPathfindingLib:GraphicsBufferManager.obj
 0002:00019b50       ??E?$_Tree_const_iterator@V?$_Tree_val@U?$_Tree_simple_types@U?$pair@$$CBV?$basic_string@DU?$char_traits@D@std@@V?$allocator@D@2@@std@@H@std@@@std@@@std@@@std@@QAE?AV01@H@Z 0043eb50 f i CommonPathfindingLib:GraphicsBufferManager.obj
 0002:00019c70       ??E?$_Tree_const_iterator@V?$_Tree_val@U?$_Tree_simple_types@U?$pair@$$CBV?$basic_string@DU?$char_traits@D@std@@V?$allocator@D@2@@std@@H@std@@@std@@@std@@@std@@QAEAAV01@XZ 0043ec70 f i CommonPathfindingLib:GraphicsBufferManager.obj
 0002:00019db0       ??E?$_Tree_iterator@V?$_Tree_val@U?$_Tree_simple_types@U?$pair@$$CBHPAVGraphicsBuffer@@@std@@@std@@@std@@@std@@QAEAAV01@XZ 0043edb0 f i CommonPathfindingLib:GraphicsBufferManager.obj
 0002:00019e10       ??E?$_Tree_iterator@V?$_Tree_val@U?$_Tree_simple_types@U?$pair@$$CBV?$basic_string@DU?$char_traits@D@std@@V?$allocator@D@2@@std@@H@std@@@std@@@std@@@std@@QAEAAV01@XZ 0043ee10 f i CommonPathfindingLib:GraphicsBufferManager.obj
 0002:00019e70       ??E?$_Tree_unchecked_const_iterator@V?$_Tree_val@U?$_Tree_simple_types@U?$pair@$$CBHPAVGraphicsBuffer@@@std@@@std@@@std@@U_Iterator_base12@2@@std@@QAEAAV01@XZ 0043ee70 f i CommonPathfindingLib:GraphicsBufferManager.obj
 0002:00019fa0       ??E?$_Tree_unchecked_const_iterator@V?$_Tree_val@U?$_Tree_simple_types@U?$pair@$$CBV?$basic_string@DU?$char_traits@D@std@@V?$allocator@D@2@@std@@H@std@@@std@@@std@@U_Iterator_base12@2@@std@@QAEAAV01@XZ 0043efa0 f i CommonPathfindingLib:GraphicsBufferManager.obj
 0002:0001a0d0       ??F?$_Tree_const_iterator@V?$_Tree_val@U?$_Tree_simple_types@U?$pair@$$CBHPAVGraphicsBuffer@@@std@@@std@@@std@@@std@@QAEAAV01@XZ 0043f0d0 f i CommonPathfindingLib:GraphicsBufferManager.obj
 0002:0001a2b0       ??F?$_Tree_const_iterator@V?$_Tree_val@U?$_Tree_simple_types@U?$pair@$$CBV?$basic_string@DU?$char_traits@D@std@@V?$allocator@D@2@@std@@H@std@@@std@@@std@@@std@@QAEAAV01@XZ 0043f2b0 f i CommonPathfindingLib:GraphicsBufferManager.obj
 0002:0001a490       ??F?$_Tree_iterator@V?$_Tree_val@U?$_Tree_simple_types@U?$pair@$$CBHPAVGraphicsBuffer@@@std@@@std@@@std@@@std@@QAEAAV01@XZ 0043f490 f i CommonPathfindingLib:GraphicsBufferManager.obj
 0002:0001a4f0       ??F?$_Tree_iterator@V?$_Tree_val@U?$_Tree_simple_types@U?$pair@$$CBV?$basic_string@DU?$char_traits@D@std@@V?$allocator@D@2@@std@@H@std@@@std@@@std@@@std@@QAEAAV01@XZ 0043f4f0 f i CommonPathfindingLib:GraphicsBufferManager.obj
 0002:0001a550       ??F?$_Tree_unchecked_const_iterator@V?$_Tree_val@U?$_Tree_simple_types@U?$pair@$$CBHPAVGraphicsBuffer@@@std@@@std@@@std@@U_Iterator_base12@2@@std@@QAEAAV01@XZ 0043f550 f i CommonPathfindingLib:GraphicsBufferManager.obj
 0002:0001a6b0       ??F?$_Tree_unchecked_const_iterator@V?$_Tree_val@U?$_Tree_simple_types@U?$pair@$$CBV?$basic_string@DU?$char_traits@D@std@@V?$allocator@D@2@@std@@H@std@@@std@@@std@@U_Iterator_base12@2@@std@@QAEAAV01@XZ 0043f6b0 f i CommonPathfindingLib:GraphicsBufferManager.obj
 0002:0001a810       ??R?$less@H@std@@QBE_NABH0@Z 0043f810 f i CommonPathfindingLib:GraphicsBufferManager.obj
 0002:0001a880       ??R?$less@V?$basic_string@DU?$char_traits@D@std@@V?$allocator@D@2@@std@@@std@@QBE_NABV?$basic_string@DU?$char_traits@D@std@@V?$allocator@D@2@@1@0@Z 0043f880 f i CommonPathfindingLib:GraphicsBufferManager.obj
 0002:0001a8e0       ??_G?$pair@$$CBV?$basic_string@DU?$char_traits@D@std@@V?$allocator@D@2@@std@@H@std@@QAEPAXI@Z 0043f8e0 f i CommonPathfindingLib:GraphicsBufferManager.obj
 0002:0001a950       ??_GGraphicsBuffer@@QAEPAXI@Z 0043f950 f i CommonPathfindingLib:GraphicsBufferManager.obj
 0002:0001a9e0       ?_Alloc_proxy@?$_Tree_comp_alloc@V?$_Tmap_traits@HPAVGraphicsBuffer@@U?$less@H@std@@V?$allocator@U?$pair@$$CBHPAVGraphicsBuffer@@@std@@@3@$0A@@std@@@std@@QAEXXZ 0043f9e0 f i CommonPathfindingLib:GraphicsBufferManager.obj
 0002:0001aae0       ?_Alloc_proxy@?$_Tree_comp_alloc@V?$_Tmap_traits@V?$basic_string@DU?$char_traits@D@std@@V?$allocator@D@2@@std@@HU?$less@V?$basic_string@DU?$char_traits@D@std@@V?$allocator@D@2@@std@@@2@V?$allocator@U?$pair@$$CBV?$basic_string@DU?$char_traits@D@std@@V?$allocator@D@2@@std@@H@std@@@2@$0A@@std@@@std@@QAEXXZ 0043fae0 f i CommonPathfindingLib:GraphicsBufferManager.obj
 0002:0001abe0       ?_Buyheadnode@?$_Tree_comp_alloc@V?$_Tmap_traits@HPAVGraphicsBuffer@@U?$less@H@std@@V?$allocator@U?$pair@$$CBHPAVGraphicsBuffer@@@std@@@3@$0A@@std@@@std@@QAEPAU?$_Tree_node@U?$pair@$$CBHPAVGraphicsBuffer@@@std@@PAX@2@XZ 0043fbe0 f i CommonPathfindingLib:GraphicsBufferManager.obj
 0002:0001adf0       ?_Buyheadnode@?$_Tree_comp_alloc@V?$_Tmap_traits@V?$basic_string@DU?$char_traits@D@std@@V?$allocator@D@2@@std@@HU?$less@V?$basic_string@DU?$char_traits@D@std@@V?$allocator@D@2@@std@@@2@V?$allocator@U?$pair@$$CBV?$basic_string@DU?$char_traits@D@std@@V?$allocator@D@2@@std@@H@std@@@2@$0A@@std@@@std@@QAEPAU?$_Tree_node@U?$pair@$$CBV?$basic_string@DU?$char_traits@D@std@@V?$allocator@D@2@@std@@H@std@@PAX@2@XZ 0043fdf0 f i CommonPathfindingLib:GraphicsBufferManager.obj
 0002:0001b000       ?_Buynode0@?$_Tree_comp_alloc@V?$_Tmap_traits@HPAVGraphicsBuffer@@U?$less@H@std@@V?$allocator@U?$pair@$$CBHPAVGraphicsBuffer@@@std@@@3@$0A@@std@@@std@@QAEPAU?$_Tree_node@U?$pair@$$CBHPAVGraphicsBuffer@@@std@@PAX@2@XZ 00440000 f i CommonPathfindingLib:GraphicsBufferManager.obj
 0002:0001b1c0       ?_Buynode0@?$_Tree_comp_alloc@V?$_Tmap_traits@V?$basic_string@DU?$char_traits@D@std@@V?$allocator@D@2@@std@@HU?$less@V?$basic_string@DU?$char_traits@D@std@@V?$allocator@D@2@@std@@@2@V?$allocator@U?$pair@$$CBV?$basic_string@DU?$char_traits@D@std@@V?$allocator@D@2@@std@@H@std@@@2@$0A@@std@@@std@@QAEPAU?$_Tree_node@U?$pair@$$CBV?$basic_string@DU?$char_traits@D@std@@V?$allocator@D@2@@std@@H@std@@PAX@2@XZ 004401c0 f i CommonPathfindingLib:GraphicsBufferManager.obj
 0002:0001b380       ?_Clrcont@_Iterator_base12@std@@QAEXXZ 00440380 f i CommonPathfindingLib:GraphicsBufferManager.obj
 0002:0001b3c0       ?_Color@?$_Tree_comp_alloc@V?$_Tmap_traits@HPAVGraphicsBuffer@@U?$less@H@std@@V?$allocator@U?$pair@$$CBHPAVGraphicsBuffer@@@std@@@3@$0A@@std@@@std@@SAAADPAU?$_Tree_node@U?$pair@$$CBHPAVGraphicsBuffer@@@std@@PAX@2@@Z 004403c0 f i CommonPathfindingLib:GraphicsBufferManager.obj
 0002:0001b410       ?_Color@?$_Tree_comp_alloc@V?$_Tmap_traits@V?$basic_string@DU?$char_traits@D@std@@V?$allocator@D@2@@std@@HU?$less@V?$basic_string@DU?$char_traits@D@std@@V?$allocator@D@2@@std@@@2@V?$allocator@U?$pair@$$CBV?$basic_string@DU?$char_traits@D@std@@V?$allocator@D@2@@std@@H@std@@@2@$0A@@std@@@std@@SAAADPAU?$_Tree_node@U?$pair@$$CBV?$basic_string@DU?$char_traits@D@std@@V?$allocator@D@2@@std@@H@std@@PAX@2@@Z 00440410 f i CommonPathfindingLib:GraphicsBufferManager.obj
 0002:0001b460       ?_Color@?$_Tree_val@U?$_Tree_simple_types@U?$pair@$$CBHPAVGraphicsBuffer@@@std@@@std@@@std@@SAAADPAU?$_Tree_node@U?$pair@$$CBHPAVGraphicsBuffer@@@std@@PAX@2@@Z 00440460 f i CommonPathfindingLib:GraphicsBufferManager.obj
 0002:0001b4a0       ?_Color@?$_Tree_val@U?$_Tree_simple_types@U?$pair@$$CBV?$basic_string@DU?$char_traits@D@std@@V?$allocator@D@2@@std@@H@std@@@std@@@std@@SAAADPAU?$_Tree_node@U?$pair@$$CBV?$basic_string@DU?$char_traits@D@std@@V?$allocator@D@2@@std@@H@std@@PAX@2@@Z 004404a0 f i CommonPathfindingLib:GraphicsBufferManager.obj
 0002:0001b4e0       ?_Compare@?$_Tree@V?$_Tmap_traits@HPAVGraphicsBuffer@@U?$less@H@std@@V?$allocator@U?$pair@$$CBHPAVGraphicsBuffer@@@std@@@3@$0A@@std@@@std@@IBE_NABH0@Z 004404e0 f i CommonPathfindingLib:GraphicsBufferManager.obj
 0002:0001b560       ?_Compare@?$_Tree@V?$_Tmap_traits@V?$basic_string@DU?$char_traits@D@std@@V?$allocator@D@2@@std@@HU?$less@V?$basic_string@DU?$char_traits@D@std@@V?$allocator@D@2@@std@@@2@V?$allocator@U?$pair@$$CBV?$basic_string@DU?$char_traits@D@std@@V?$allocator@D@2@@std@@H@std@@@2@$0A@@std@@@std@@IBE_NABV?$basic_string@DU?$char_traits@D@std@@V?$allocator@D@2@@2@0@Z 00440560 f i CommonPathfindingLib:GraphicsBufferManager.obj
 0002:0001b5e0       ?_Construct@?$_Tree_comp_alloc@V?$_Tmap_traits@HPAVGraphicsBuffer@@U?$less@H@std@@V?$allocator@U?$pair@$$CBHPAVGraphicsBuffer@@@std@@@3@$0A@@std@@@std@@QAEXXZ 004405e0 f i CommonPathfindingLib:GraphicsBufferManager.obj
 0002:0001b6d0       ?_Construct@?$_Tree_comp_alloc@V?$_Tmap_traits@V?$basic_string@DU?$char_traits@D@std@@V?$allocator@D@2@@std@@HU?$less@V?$basic_string@DU?$char_traits@D@std@@V?$allocator@D@2@@std@@@2@V?$allocator@U?$pair@$$CBV?$basic_string@DU?$char_traits@D@std@@V?$allocator@D@2@@std@@H@std@@@2@$0A@@std@@@std@@QAEXXZ 004406d0 f i CommonPathfindingLib:GraphicsBufferManager.obj
 0002:0001b7c0       ?_Destroy_if_not_nil@?$_Tree@V?$_Tmap_traits@HPAVGraphicsBuffer@@U?$less@H@std@@V?$allocator@U?$pair@$$CBHPAVGraphicsBuffer@@@std@@@3@$0A@@std@@@std@@IAEXPAU?$_Tree_node@U?$pair@$$CBHPAVGraphicsBuffer@@@std@@PAX@2@@Z 004407c0 f i CommonPathfindingLib:GraphicsBufferManager.obj
 0002:0001b850       ?_Destroy_if_not_nil@?$_Tree@V?$_Tmap_traits@V?$basic_string@DU?$char_traits@D@std@@V?$allocator@D@2@@std@@HU?$less@V?$basic_string@DU?$char_traits@D@std@@V?$allocator@D@2@@std@@@2@V?$allocator@U?$pair@$$CBV?$basic_string@DU?$char_traits@D@std@@V?$allocator@D@2@@std@@H@std@@@2@$0A@@std@@@std@@IAEXPAU?$_Tree_node@U?$pair@$$CBV?$basic_string@DU?$char_traits@D@std@@V?$allocator@D@2@@std@@H@std@@PAX@2@@Z 00440850 f i CommonPathfindingLib:GraphicsBufferManager.obj
 0002:0001b8e0       ?_Erase@?$_Tree@V?$_Tmap_traits@HPAVGraphicsBuffer@@U?$less@H@std@@V?$allocator@U?$pair@$$CBHPAVGraphicsBuffer@@@std@@@3@$0A@@std@@@std@@IAEXPAU?$_Tree_node@U?$pair@$$CBHPAVGraphicsBuffer@@@std@@PAX@2@@Z 004408e0 f i CommonPathfindingLib:GraphicsBufferManager.obj
 0002:0001b9d0       ?_Erase@?$_Tree@V?$_Tmap_traits@V?$basic_string@DU?$char_traits@D@std@@V?$allocator@D@2@@std@@HU?$less@V?$basic_string@DU?$char_traits@D@std@@V?$allocator@D@2@@std@@@2@V?$allocator@U?$pair@$$CBV?$basic_string@DU?$char_traits@D@std@@V?$allocator@D@2@@std@@H@std@@@2@$0A@@std@@@std@@IAEXPAU?$_Tree_node@U?$pair@$$CBV?$basic_string@DU?$char_traits@D@std@@V?$allocator@D@2@@std@@H@std@@PAX@2@@Z 004409d0 f i CommonPathfindingLib:GraphicsBufferManager.obj
 0002:0001bac0       ?_Free_proxy@?$_Tree_comp_alloc@V?$_Tmap_traits@HPAVGraphicsBuffer@@U?$less@H@std@@V?$allocator@U?$pair@$$CBHPAVGraphicsBuffer@@@std@@@3@$0A@@std@@@std@@QAEXXZ 00440ac0 f i CommonPathfindingLib:GraphicsBufferManager.obj
 0002:0001bbb0       ?_Free_proxy@?$_Tree_comp_alloc@V?$_Tmap_traits@V?$basic_string@DU?$char_traits@D@std@@V?$allocator@D@2@@std@@HU?$less@V?$basic_string@DU?$char_traits@D@std@@V?$allocator@D@2@@std@@@2@V?$allocator@U?$pair@$$CBV?$basic_string@DU?$char_traits@D@std@@V?$allocator@D@2@@std@@H@std@@@2@$0A@@std@@@std@@QAEXXZ 00440bb0 f i CommonPathfindingLib:GraphicsBufferManager.obj
 0002:0001bca0       ?_Freeheadnode@?$_Tree_comp_alloc@V?$_Tmap_traits@HPAVGraphicsBuffer@@U?$less@H@std@@V?$allocator@U?$pair@$$CBHPAVGraphicsBuffer@@@std@@@3@$0A@@std@@@std@@QAEXPAU?$_Tree_node@U?$pair@$$CBHPAVGraphicsBuffer@@@std@@PAX@2@@Z 00440ca0 f i CommonPathfindingLib:GraphicsBufferManager.obj
 0002:0001bd90       ?_Freeheadnode@?$_Tree_comp_alloc@V?$_Tmap_traits@V?$basic_string@DU?$char_traits@D@std@@V?$allocator@D@2@@std@@HU?$less@V?$basic_string@DU?$char_traits@D@std@@V?$allocator@D@2@@std@@@2@V?$allocator@U?$pair@$$CBV?$basic_string@DU?$char_traits@D@std@@V?$allocator@D@2@@std@@H@std@@@2@$0A@@std@@@std@@QAEXPAU?$_Tree_node@U?$pair@$$CBV?$basic_string@DU?$char_traits@D@std@@V?$allocator@D@2@@std@@H@std@@PAX@2@@Z 00440d90 f i CommonPathfindingLib:GraphicsBufferManager.obj
 0002:0001be80       ?_Freenode0@?$_Tree_comp_alloc@V?$_Tmap_traits@HPAVGraphicsBuffer@@U?$less@H@std@@V?$allocator@U?$pair@$$CBHPAVGraphicsBuffer@@@std@@@3@$0A@@std@@@std@@QAEXPAU?$_Tree_node@U?$pair@$$CBHPAVGraphicsBuffer@@@std@@PAX@2@@Z 00440e80 f i CommonPathfindingLib:GraphicsBufferManager.obj
 0002:0001bf70       ?_Freenode0@?$_Tree_comp_alloc@V?$_Tmap_traits@V?$basic_string@DU?$char_traits@D@std@@V?$allocator@D@2@@std@@HU?$less@V?$basic_string@DU?$char_traits@D@std@@V?$allocator@D@2@@std@@@2@V?$allocator@U?$pair@$$CBV?$basic_string@DU?$char_traits@D@std@@V?$allocator@D@2@@std@@H@std@@@2@$0A@@std@@@std@@QAEXPAU?$_Tree_node@U?$pair@$$CBV?$basic_string@DU?$char_traits@D@std@@V?$allocator@D@2@@std@@H@std@@PAX@2@@Z 00440f70 f i CommonPathfindingLib:GraphicsBufferManager.obj
 0002:0001c060       ?_Get_data@?$_Tree_comp_alloc@V?$_Tmap_traits@HPAVGraphicsBuffer@@U?$less@H@std@@V?$allocator@U?$pair@$$CBHPAVGraphicsBuffer@@@std@@@3@$0A@@std@@@std@@QAEAAV?$_Tree_val@U?$_Tree_simple_types@U?$pair@$$CBHPAVGraphicsBuffer@@@std@@@std@@@2@XZ 00441060 f i CommonPathfindingLib:GraphicsBufferManager.obj
 0002:0001c0c0       ?_Get_data@?$_Tree_comp_alloc@V?$_Tmap_traits@HPAVGraphicsBuffer@@U?$less@H@std@@V?$allocator@U?$pair@$$CBHPAVGraphicsBuffer@@@std@@@3@$0A@@std@@@std@@QBEABV?$_Tree_val@U?$_Tree_simple_types@U?$pair@$$CBHPAVGraphicsBuffer@@@std@@@std@@@2@XZ 004410c0 f i CommonPathfindingLib:GraphicsBufferManager.obj
 0002:0001c120       ?_Get_data@?$_Tree_comp_alloc@V?$_Tmap_traits@V?$basic_string@DU?$char_traits@D@std@@V?$allocator@D@2@@std@@HU?$less@V?$basic_string@DU?$char_traits@D@std@@V?$allocator@D@2@@std@@@2@V?$allocator@U?$pair@$$CBV?$basic_string@DU?$char_traits@D@std@@V?$allocator@D@2@@std@@H@std@@@2@$0A@@std@@@std@@QAEAAV?$_Tree_val@U?$_Tree_simple_types@U?$pair@$$CBV?$basic_string@DU?$char_traits@D@std@@V?$allocator@D@2@@std@@H@std@@@std@@@2@XZ 00441120 f i CommonPathfindingLib:GraphicsBufferManager.obj
 0002:0001c180       ?_Get_data@?$_Tree_comp_alloc@V?$_Tmap_traits@V?$basic_string@DU?$char_traits@D@std@@V?$allocator@D@2@@std@@HU?$less@V?$basic_string@DU?$char_traits@D@std@@V?$allocator@D@2@@std@@@2@V?$allocator@U?$pair@$$CBV?$basic_string@DU?$char_traits@D@std@@V?$allocator@D@2@@std@@H@std@@@2@$0A@@std@@@std@@QBEABV?$_Tree_val@U?$_Tree_simple_types@U?$pair@$$CBV?$basic_string@DU?$char_traits@D@std@@V?$allocator@D@2@@std@@H@std@@@std@@@2@XZ 00441180 f i CommonPathfindingLib:GraphicsBufferManager.obj
 0002:0001c1e0       ?_Get_first@?$_Compressed_pair@U?$_Wrap_alloc@V?$allocator@U?$_Tree_node@U?$pair@$$CBHPAVGraphicsBuffer@@@std@@PAX@std@@@std@@@std@@V?$_Tree_val@U?$_Tree_simple_types@U?$pair@$$CBHPAVGraphicsBuffer@@@std@@@std@@@2@$00@std@@QAEAAU?$_Wrap_alloc@V?$allocator@U?$_Tree_node@U?$pair@$$CBHPAVGraphicsBuffer@@@std@@PAX@std@@@std@@@2@XZ 004411e0 f i CommonPathfindingLib:GraphicsBufferManager.obj
 0002:0001c220       ?_Get_first@?$_Compressed_pair@U?$_Wrap_alloc@V?$allocator@U?$_Tree_node@U?$pair@$$CBHPAVGraphicsBuffer@@@std@@PAX@std@@@std@@@std@@V?$_Tree_val@U?$_Tree_simple_types@U?$pair@$$CBHPAVGraphicsBuffer@@@std@@@std@@@2@$00@std@@QBEABU?$_Wrap_alloc@V?$allocator@U?$_Tree_node@U?$pair@$$CBHPAVGraphicsBuffer@@@std@@PAX@std@@@std@@@2@XZ 00441220 f i CommonPathfindingLib:GraphicsBufferManager.obj
 0002:0001c260       ?_Get_first@?$_Compressed_pair@U?$_Wrap_alloc@V?$allocator@U?$_Tree_node@U?$pair@$$CBV?$basic_string@DU?$char_traits@D@std@@V?$allocator@D@2@@std@@H@std@@PAX@std@@@std@@@std@@V?$_Tree_val@U?$_Tree_simple_types@U?$pair@$$CBV?$basic_string@DU?$char_traits@D@std@@V?$allocator@D@2@@std@@H@std@@@std@@@2@$00@std@@QAEAAU?$_Wrap_alloc@V?$allocator@U?$_Tree_node@U?$pair@$$CBV?$basic_string@DU?$char_traits@D@std@@V?$allocator@D@2@@std@@H@std@@PAX@std@@@std@@@2@XZ 00441260 f i CommonPathfindingLib:GraphicsBufferManager.obj
 0002:0001c2a0       ?_Get_first@?$_Compressed_pair@U?$_Wrap_alloc@V?$allocator@U?$_Tree_node@U?$pair@$$CBV?$basic_string@DU?$char_traits@D@std@@V?$allocator@D@2@@std@@H@std@@PAX@std@@@std@@@std@@V?$_Tree_val@U?$_Tree_simple_types@U?$pair@$$CBV?$basic_string@DU?$char_traits@D@std@@V?$allocator@D@2@@std@@H@std@@@std@@@2@$00@std@@QBEABU?$_Wrap_alloc@V?$allocator@U?$_Tree_node@U?$pair@$$CBV?$basic_string@DU?$char_traits@D@std@@V?$allocator@D@2@@std@@H@std@@PAX@std@@@std@@@2@XZ 004412a0 f i CommonPathfindingLib:GraphicsBufferManager.obj
 0002:0001c2e0       ?_Get_first@?$_Compressed_pair@U?$less@H@std@@V?$_Compressed_pair@U?$_Wrap_alloc@V?$allocator@U?$_Tree_node@U?$pair@$$CBHPAVGraphicsBuffer@@@std@@PAX@std@@@std@@@std@@V?$_Tree_val@U?$_Tree_simple_types@U?$pair@$$CBHPAVGraphicsBuffer@@@std@@@std@@@2@$00@2@$00@std@@QAEAAU?$less@H@2@XZ 004412e0 f i CommonPathfindingLib:GraphicsBufferManager.obj
 0002:0001c320       ?_Get_first@?$_Compressed_pair@U?$less@H@std@@V?$_Compressed_pair@U?$_Wrap_alloc@V?$allocator@U?$_Tree_node@U?$pair@$$CBHPAVGraphicsBuffer@@@std@@PAX@std@@@std@@@std@@V?$_Tree_val@U?$_Tree_simple_types@U?$pair@$$CBHPAVGraphicsBuffer@@@std@@@std@@@2@$00@2@$00@std@@QBEABU?$less@H@2@XZ 00441320 f i CommonPathfindingLib:GraphicsBufferManager.obj
 0002:0001c360       ?_Get_first@?$_Compressed_pair@U?$less@V?$basic_string@DU?$char_traits@D@std@@V?$allocator@D@2@@std@@@std@@V?$_Compressed_pair@U?$_Wrap_alloc@V?$allocator@U?$_Tree_node@U?$pair@$$CBV?$basic_string@DU?$char_traits@D@std@@V?$allocator@D@2@@std@@H@std@@PAX@std@@@std@@@std@@V?$_Tree_val@U?$_Tree_simple_types@U?$pair@$$CBV?$basic_string@DU?$char_traits@D@std@@V?$allocator@D@2@@std@@H@std@@@std@@@2@$00@2@$00@std@@QAEAAU?$less@V?$basic_string@DU?$char_traits@D@std@@V?$allocator@D@2@@std@@@2@XZ 00441360 f i CommonPathfindingLib:GraphicsBufferManager.obj
 0002:0001c3a0       ?_Get_first@?$_Compressed_pair@U?$less@V?$basic_string@DU?$char_traits@D@std@@V?$allocator@D@2@@std@@@std@@V?$_Compressed_pair@U?$_Wrap_alloc@V?$allocator@U?$_Tree_node@U?$pair@$$CBV?$basic_string@DU?$char_traits@D@std@@V?$allocator@D@2@@std@@H@std@@PAX@std@@@std@@@std@@V?$_Tree_val@U?$_Tree_simple_types@U?$pair@$$CBV?$basic_string@DU?$char_traits@D@std@@V?$allocator@D@2@@std@@H@std@@@std@@@2@$00@2@$00@std@@QBEABU?$less@V?$basic_string@DU?$char_traits@D@std@@V?$allocator@D@2@@std@@@2@XZ 004413a0 f i CommonPathfindingLib:GraphicsBufferManager.obj
 0002:0001c3e0       ?_Get_second@?$_Compressed_pair@U?$_Wrap_alloc@V?$allocator@U?$_Tree_node@U?$pair@$$CBHPAVGraphicsBuffer@@@std@@PAX@std@@@std@@@std@@V?$_Tree_val@U?$_Tree_simple_types@U?$pair@$$CBHPAVGraphicsBuffer@@@std@@@std@@@2@$00@std@@QAEAAV?$_Tree_val@U?$_Tree_simple_types@U?$pair@$$CBHPAVGraphicsBuffer@@@std@@@std@@@2@XZ 004413e0 f i CommonPathfindingLib:GraphicsBufferManager.obj
 0002:0001c420       ?_Get_second@?$_Compressed_pair@U?$_Wrap_alloc@V?$allocator@U?$_Tree_node@U?$pair@$$CBHPAVGraphicsBuffer@@@std@@PAX@std@@@std@@@std@@V?$_Tree_val@U?$_Tree_simple_types@U?$pair@$$CBHPAVGraphicsBuffer@@@std@@@std@@@2@$00@std@@QBEABV?$_Tree_val@U?$_Tree_simple_types@U?$pair@$$CBHPAVGraphicsBuffer@@@std@@@std@@@2@XZ 00441420 f i CommonPathfindingLib:GraphicsBufferManager.obj
 0002:0001c460       ?_Get_second@?$_Compressed_pair@U?$_Wrap_alloc@V?$allocator@U?$_Tree_node@U?$pair@$$CBV?$basic_string@DU?$char_traits@D@std@@V?$allocator@D@2@@std@@H@std@@PAX@std@@@std@@@std@@V?$_Tree_val@U?$_Tree_simple_types@U?$pair@$$CBV?$basic_string@DU?$char_traits@D@std@@V?$allocator@D@2@@std@@H@std@@@std@@@2@$00@std@@QAEAAV?$_Tree_val@U?$_Tree_simple_types@U?$pair@$$CBV?$basic_string@DU?$char_traits@D@std@@V?$allocator@D@2@@std@@H@std@@@std@@@2@XZ 00441460 f i CommonPathfindingLib:GraphicsBufferManager.obj
 0002:0001c4a0       ?_Get_second@?$_Compressed_pair@U?$_Wrap_alloc@V?$allocator@U?$_Tree_node@U?$pair@$$CBV?$basic_string@DU?$char_traits@D@std@@V?$allocator@D@2@@std@@H@std@@PAX@std@@@std@@@std@@V?$_Tree_val@U?$_Tree_simple_types@U?$pair@$$CBV?$basic_string@DU?$char_traits@D@std@@V?$allocator@D@2@@std@@H@std@@@std@@@2@$00@std@@QBEABV?$_Tree_val@U?$_Tree_simple_types@U?$pair@$$CBV?$basic_string@DU?$char_traits@D@std@@V?$allocator@D@2@@std@@H@std@@@std@@@2@XZ 004414a0 f i CommonPathfindingLib:GraphicsBufferManager.obj
 0002:0001c4e0       ?_Get_second@?$_Compressed_pair@U?$less@H@std@@V?$_Compressed_pair@U?$_Wrap_alloc@V?$allocator@U?$_Tree_node@U?$pair@$$CBHPAVGraphicsBuffer@@@std@@PAX@std@@@std@@@std@@V?$_Tree_val@U?$_Tree_simple_types@U?$pair@$$CBHPAVGraphicsBuffer@@@std@@@std@@@2@$00@2@$00@std@@QAEAAV?$_Compressed_pair@U?$_Wrap_alloc@V?$allocator@U?$_Tree_node@U?$pair@$$CBHPAVGraphicsBuffer@@@std@@PAX@std@@@std@@@std@@V?$_Tree_val@U?$_Tree_simple_types@U?$pair@$$CBHPAVGraphicsBuffer@@@std@@@std@@@2@$00@2@XZ 004414e0 f i CommonPathfindingLib:GraphicsBufferManager.obj
 0002:0001c520       ?_Get_second@?$_Compressed_pair@U?$less@H@std@@V?$_Compressed_pair@U?$_Wrap_alloc@V?$allocator@U?$_Tree_node@U?$pair@$$CBHPAVGraphicsBuffer@@@std@@PAX@std@@@std@@@std@@V?$_Tree_val@U?$_Tree_simple_types@U?$pair@$$CBHPAVGraphicsBuffer@@@std@@@std@@@2@$00@2@$00@std@@QBEABV?$_Compressed_pair@U?$_Wrap_alloc@V?$allocator@U?$_Tree_node@U?$pair@$$CBHPAVGraphicsBuffer@@@std@@PAX@std@@@std@@@std@@V?$_Tree_val@U?$_Tree_simple_types@U?$pair@$$CBHPAVGraphicsBuffer@@@std@@@std@@@2@$00@2@XZ 00441520 f i CommonPathfindingLib:GraphicsBufferManager.obj
 0002:0001c560       ?_Get_second@?$_Compressed_pair@U?$less@V?$basic_string@DU?$char_traits@D@std@@V?$allocator@D@2@@std@@@std@@V?$_Compressed_pair@U?$_Wrap_alloc@V?$allocator@U?$_Tree_node@U?$pair@$$CBV?$basic_string@DU?$char_traits@D@std@@V?$allocator@D@2@@std@@H@std@@PAX@std@@@std@@@std@@V?$_Tree_val@U?$_Tree_simple_types@U?$pair@$$CBV?$basic_string@DU?$char_traits@D@std@@V?$allocator@D@2@@std@@H@std@@@std@@@2@$00@2@$00@std@@QAEAAV?$_Compressed_pair@U?$_Wrap_alloc@V?$allocator@U?$_Tree_node@U?$pair@$$CBV?$basic_string@DU?$char_traits@D@std@@V?$allocator@D@2@@std@@H@std@@PAX@std@@@std@@@std@@V?$_Tree_val@U?$_Tree_simple_types@U?$pair@$$CBV?$basic_string@DU?$char_traits@D@std@@V?$allocator@D@2@@std@@H@std@@@std@@@2@$00@2@XZ 00441560 f i CommonPathfindingLib:GraphicsBufferManager.obj
 0002:0001c5a0       ?_Get_second@?$_Compressed_pair@U?$less@V?$basic_string@DU?$char_traits@D@std@@V?$allocator@D@2@@std@@@std@@V?$_Compressed_pair@U?$_Wrap_alloc@V?$allocator@U?$_Tree_node@U?$pair@$$CBV?$basic_string@DU?$char_traits@D@std@@V?$allocator@D@2@@std@@H@std@@PAX@std@@@std@@@std@@V?$_Tree_val@U?$_Tree_simple_types@U?$pair@$$CBV?$basic_string@DU?$char_traits@D@std@@V?$allocator@D@2@@std@@H@std@@@std@@@2@$00@2@$00@std@@QBEABV?$_Compressed_pair@U?$_Wrap_alloc@V?$allocator@U?$_Tree_node@U?$pair@$$CBV?$basic_string@DU?$char_traits@D@std@@V?$allocator@D@2@@std@@H@std@@PAX@std@@@std@@@std@@V?$_Tree_val@U?$_Tree_simple_types@U?$pair@$$CBV?$basic_string@DU?$char_traits@D@std@@V?$allocator@D@2@@std@@H@std@@@std@@@2@$00@2@XZ 004415a0 f i CommonPathfindingLib:GraphicsBufferManager.obj
 0002:0001c5e0       ?_Getal@?$_Tree_comp_alloc@V?$_Tmap_traits@HPAVGraphicsBuffer@@U?$less@H@std@@V?$allocator@U?$pair@$$CBHPAVGraphicsBuffer@@@std@@@3@$0A@@std@@@std@@QAEAAU?$_Wrap_alloc@V?$allocator@U?$_Tree_node@U?$pair@$$CBHPAVGraphicsBuffer@@@std@@PAX@std@@@std@@@2@XZ 004415e0 f i CommonPathfindingLib:GraphicsBufferManager.obj
 0002:0001c640       ?_Getal@?$_Tree_comp_alloc@V?$_Tmap_traits@HPAVGraphicsBuffer@@U?$less@H@std@@V?$allocator@U?$pair@$$CBHPAVGraphicsBuffer@@@std@@@3@$0A@@std@@@std@@QBEABU?$_Wrap_alloc@V?$allocator@U?$_Tree_node@U?$pair@$$CBHPAVGraphicsBuffer@@@std@@PAX@std@@@std@@@2@XZ 00441640 f i CommonPathfindingLib:GraphicsBufferManager.obj
 0002:0001c6a0       ?_Getal@?$_Tree_comp_alloc@V?$_Tmap_traits@V?$basic_string@DU?$char_traits@D@std@@V?$allocator@D@2@@std@@HU?$less@V?$basic_string@DU?$char_traits@D@std@@V?$allocator@D@2@@std@@@2@V?$allocator@U?$pair@$$CBV?$basic_string@DU?$char_traits@D@std@@V?$allocator@D@2@@std@@H@std@@@2@$0A@@std@@@std@@QAEAAU?$_Wrap_alloc@V?$allocator@U?$_Tree_node@U?$pair@$$CBV?$basic_string@DU?$char_traits@D@std@@V?$allocator@D@2@@std@@H@std@@PAX@std@@@std@@@2@XZ 004416a0 f i CommonPathfindingLib:GraphicsBufferManager.obj
 0002:0001c700       ?_Getal@?$_Tree_comp_alloc@V?$_Tmap_traits@V?$basic_string@DU?$char_traits@D@std@@V?$allocator@D@2@@std@@HU?$less@V?$basic_string@DU?$char_traits@D@std@@V?$allocator@D@2@@std@@@2@V?$allocator@U?$pair@$$CBV?$basic_string@DU?$char_traits@D@std@@V?$allocator@D@2@@std@@H@std@@@2@$0A@@std@@@std@@QBEABU?$_Wrap_alloc@V?$allocator@U?$_Tree_node@U?$pair@$$CBV?$basic_string@DU?$char_traits@D@std@@V?$allocator@D@2@@std@@H@std@@PAX@std@@@std@@@2@XZ 00441700 f i CommonPathfindingLib:GraphicsBufferManager.obj
 0002:0001c760       ?_Getcomp@?$_Tree_comp_alloc@V?$_Tmap_traits@HPAVGraphicsBuffer@@U?$less@H@std@@V?$allocator@U?$pair@$$CBHPAVGraphicsBuffer@@@std@@@3@$0A@@std@@@std@@QAEAAU?$less@H@2@XZ 00441760 f i CommonPathfindingLib:GraphicsBufferManager.obj
 0002:0001c7b0       ?_Getcomp@?$_Tree_comp_alloc@V?$_Tmap_traits@HPAVGraphicsBuffer@@U?$less@H@std@@V?$allocator@U?$pair@$$CBHPAVGraphicsBuffer@@@std@@@3@$0A@@std@@@std@@QBEABU?$less@H@2@XZ 004417b0 f i CommonPathfindingLib:GraphicsBufferManager.obj
 0002:0001c800       ?_Getcomp@?$_Tree_comp_alloc@V?$_Tmap_traits@V?$basic_string@DU?$char_traits@D@std@@V?$allocator@D@2@@std@@HU?$less@V?$basic_string@DU?$char_traits@D@std@@V?$allocator@D@2@@std@@@2@V?$allocator@U?$pair@$$CBV?$basic_string@DU?$char_traits@D@std@@V?$allocator@D@2@@std@@H@std@@@2@$0A@@std@@@std@@QAEAAU?$less@V?$basic_string@DU?$char_traits@D@std@@V?$allocator@D@2@@std@@@2@XZ 00441800 f i CommonPathfindingLib:GraphicsBufferManager.obj
 0002:0001c850       ?_Getcomp@?$_Tree_comp_alloc@V?$_Tmap_traits@V?$basic_string@DU?$char_traits@D@std@@V?$allocator@D@2@@std@@HU?$less@V?$basic_string@DU?$char_traits@D@std@@V?$allocator@D@2@@std@@@2@V?$allocator@U?$pair@$$CBV?$basic_string@DU?$char_traits@D@std@@V?$allocator@D@2@@std@@H@std@@@2@$0A@@std@@@std@@QBEABU?$less@V?$basic_string@DU?$char_traits@D@std@@V?$allocator@D@2@@std@@@2@XZ 00441850 f i CommonPathfindingLib:GraphicsBufferManager.obj
 0002:0001c8a0       ?_Getpfirst@?$_Tree_comp_alloc@V?$_Tmap_traits@HPAVGraphicsBuffer@@U?$less@H@std@@V?$allocator@U?$pair@$$CBHPAVGraphicsBuffer@@@std@@@3@$0A@@std@@@std@@QBEPAPAU_Iterator_base12@2@XZ 004418a0 f i CommonPathfindingLib:GraphicsBufferManager.obj
 0002:0001c900       ?_Getpfirst@?$_Tree_comp_alloc@V?$_Tmap_traits@V?$basic_string@DU?$char_traits@D@std@@V?$allocator@D@2@@std@@HU?$less@V?$basic_string@DU?$char_traits@D@std@@V?$allocator@D@2@@std@@@2@V?$allocator@U?$pair@$$CBV?$basic_string@DU?$char_traits@D@std@@V?$allocator@D@2@@std@@H@std@@@2@$0A@@std@@@std@@QBEPAPAU_Iterator_base12@2@XZ 00441900 f i CommonPathfindingLib:GraphicsBufferManager.obj
 0002:0001c960       ?_Getpfirst@_Container_base12@std@@QBEPAPAU_Iterator_base12@2@XZ 00441960 f i CommonPathfindingLib:GraphicsBufferManager.obj
 0002:0001c9d0       ?_Getpnext@_Iterator_base12@std@@QAEPAPAU12@XZ 004419d0 f i CommonPathfindingLib:GraphicsBufferManager.obj
 0002:0001ca10       ?_Isnil@?$_Tree_comp_alloc@V?$_Tmap_traits@HPAVGraphicsBuffer@@U?$less@H@std@@V?$allocator@U?$pair@$$CBHPAVGraphicsBuffer@@@std@@@3@$0A@@std@@@std@@SAAADPAU?$_Tree_node@U?$pair@$$CBHPAVGraphicsBuffer@@@std@@PAX@2@@Z 00441a10 f i CommonPathfindingLib:GraphicsBufferManager.obj
 0002:0001ca60       ?_Isnil@?$_Tree_comp_alloc@V?$_Tmap_traits@V?$basic_string@DU?$char_traits@D@std@@V?$allocator@D@2@@std@@HU?$less@V?$basic_string@DU?$char_traits@D@std@@V?$allocator@D@2@@std@@@2@V?$allocator@U?$pair@$$CBV?$basic_string@DU?$char_traits@D@std@@V?$allocator@D@2@@std@@H@std@@@2@$0A@@std@@@std@@SAAADPAU?$_Tree_node@U?$pair@$$CBV?$basic_string@DU?$char_traits@D@std@@V?$allocator@D@2@@std@@H@std@@PAX@2@@Z 00441a60 f i CommonPathfindingLib:GraphicsBufferManager.obj
 0002:0001cab0       ?_Isnil@?$_Tree_val@U?$_Tree_simple_types@U?$pair@$$CBHPAVGraphicsBuffer@@@std@@@std@@@std@@SAAADPAU?$_Tree_node@U?$pair@$$CBHPAVGraphicsBuffer@@@std@@PAX@2@@Z 00441ab0 f i CommonPathfindingLib:GraphicsBufferManager.obj
 0002:0001caf0       ?_Isnil@?$_Tree_val@U?$_Tree_simple_types@U?$pair@$$CBV?$basic_string@DU?$char_traits@D@std@@V?$allocator@D@2@@std@@H@std@@@std@@@std@@SAAADPAU?$_Tree_node@U?$pair@$$CBV?$basic_string@DU?$char_traits@D@std@@V?$allocator@D@2@@std@@H@std@@PAX@2@@Z 00441af0 f i CommonPathfindingLib:GraphicsBufferManager.obj
 0002:0001cb30       ?_Key@?$_Tree@V?$_Tmap_traits@HPAVGraphicsBuffer@@U?$less@H@std@@V?$allocator@U?$pair@$$CBHPAVGraphicsBuffer@@@std@@@3@$0A@@std@@@std@@IBEABHPAU?$_Tree_node@U?$pair@$$CBHPAVGraphicsBuffer@@@std@@PAX@2@@Z 00441b30 f i CommonPathfindingLib:GraphicsBufferManager.obj
 0002:0001cba0       ?_Key@?$_Tree@V?$_Tmap_traits@V?$basic_string@DU?$char_traits@D@std@@V?$allocator@D@2@@std@@HU?$less@V?$basic_string@DU?$char_traits@D@std@@V?$allocator@D@2@@std@@@2@V?$allocator@U?$pair@$$CBV?$basic_string@DU?$char_traits@D@std@@V?$allocator@D@2@@std@@H@std@@@2@$0A@@std@@@std@@IBEABV?$basic_string@DU?$char_traits@D@std@@V?$allocator@D@2@@2@PAU?$_Tree_node@U?$pair@$$CBV?$basic_string@DU?$char_traits@D@std@@V?$allocator@D@2@@std@@H@std@@PAX@2@@Z 00441ba0 f i CommonPathfindingLib:GraphicsBufferManager.obj
 0002:0001cc10       ?_Kfn@?$_Tree@V?$_Tmap_traits@HPAVGraphicsBuffer@@U?$less@H@std@@V?$allocator@U?$pair@$$CBHPAVGraphicsBuffer@@@std@@@3@$0A@@std@@@std@@IBEABHABU?$pair@$$CBHPAVGraphicsBuffer@@@2@@Z 00441c10 f i CommonPathfindingLib:GraphicsBufferManager.obj
 0002:0001cc70       ?_Kfn@?$_Tree@V?$_Tmap_traits@V?$basic_string@DU?$char_traits@D@std@@V?$allocator@D@2@@std@@HU?$less@V?$basic_string@DU?$char_traits@D@std@@V?$allocator@D@2@@std@@@2@V?$allocator@U?$pair@$$CBV?$basic_string@DU?$char_traits@D@std@@V?$allocator@D@2@@std@@H@std@@@2@$0A@@std@@@std@@IBEABV?$basic_string@DU?$char_traits@D@std@@V?$allocator@D@2@@2@ABU?$pair@$$CBV?$basic_string@DU?$char_traits@D@std@@V?$allocator@D@2@@std@@H@2@@Z 00441c70 f i CommonPathfindingLib:GraphicsBufferManager.obj
 0002:0001ccd0       ?_Left@?$_Tree_comp_alloc@V?$_Tmap_traits@HPAVGraphicsBuffer@@U?$less@H@std@@V?$allocator@U?$pair@$$CBHPAVGraphicsBuffer@@@std@@@3@$0A@@std@@@std@@SAAAPAU?$_Tree_node@U?$pair@$$CBHPAVGraphicsBuffer@@@std@@PAX@2@PAU32@@Z 00441cd0 f i CommonPathfindingLib:GraphicsBufferManager.obj
 0002:0001cd20       ?_Left@?$_Tree_comp_alloc@V?$_Tmap_traits@V?$basic_string@DU?$char_traits@D@std@@V?$allocator@D@2@@std@@HU?$less@V?$basic_string@DU?$char_traits@D@std@@V?$allocator@D@2@@std@@@2@V?$allocator@U?$pair@$$CBV?$basic_string@DU?$char_traits@D@std@@V?$allocator@D@2@@std@@H@std@@@2@$0A@@std@@@std@@SAAAPAU?$_Tree_node@U?$pair@$$CBV?$basic_string@DU?$char_traits@D@std@@V?$allocator@D@2@@std@@H@std@@PAX@2@PAU32@@Z 00441d20 f i CommonPathfindingLib:GraphicsBufferManager.obj
 0002:0001cd70       ?_Left@?$_Tree_val@U?$_Tree_simple_types@U?$pair@$$CBHPAVGraphicsBuffer@@@std@@@std@@@std@@SAAAPAU?$_Tree_node@U?$pair@$$CBHPAVGraphicsBuffer@@@std@@PAX@2@PAU32@@Z 00441d70 f i CommonPathfindingLib:GraphicsBufferManager.obj
 0002:0001cdb0       ?_Left@?$_Tree_val@U?$_Tree_simple_types@U?$pair@$$CBV?$basic_string@DU?$char_traits@D@std@@V?$allocator@D@2@@std@@H@std@@@std@@@std@@SAAAPAU?$_Tree_node@U?$pair@$$CBV?$basic_string@DU?$char_traits@D@std@@V?$allocator@D@2@@std@@H@std@@PAX@2@PAU32@@Z 00441db0 f i CommonPathfindingLib:GraphicsBufferManager.obj
 0002:0001cdf0       ?_Lmost@?$_Tree@V?$_Tmap_traits@HPAVGraphicsBuffer@@U?$less@H@std@@V?$allocator@U?$pair@$$CBHPAVGraphicsBuffer@@@std@@@3@$0A@@std@@@std@@IBEAAPAU?$_Tree_node@U?$pair@$$CBHPAVGraphicsBuffer@@@std@@PAX@2@XZ 00441df0 f i CommonPathfindingLib:GraphicsBufferManager.obj
 0002:0001ce50       ?_Lmost@?$_Tree@V?$_Tmap_traits@V?$basic_string@DU?$char_traits@D@std@@V?$allocator@D@2@@std@@HU?$less@V?$basic_string@DU?$char_traits@D@std@@V?$allocator@D@2@@std@@@2@V?$allocator@U?$pair@$$CBV?$basic_string@DU?$char_traits@D@std@@V?$allocator@D@2@@std@@H@std@@@2@$0A@@std@@@std@@IBEAAPAU?$_Tree_node@U?$pair@$$CBV?$basic_string@DU?$char_traits@D@std@@V?$allocator@D@2@@std@@H@std@@PAX@2@XZ 00441e50 f i CommonPathfindingLib:GraphicsBufferManager.obj
 0002:0001ceb0       ?_Lrotate@?$_Tree@V?$_Tmap_traits@HPAVGraphicsBuffer@@U?$less@H@std@@V?$allocator@U?$pair@$$CBHPAVGraphicsBuffer@@@std@@@3@$0A@@std@@@std@@IAEXPAU?$_Tree_node@U?$pair@$$CBHPAVGraphicsBuffer@@@std@@PAX@2@@Z 00441eb0 f i CommonPathfindingLib:GraphicsBufferManager.obj
 0002:0001d060       ?_Lrotate@?$_Tree@V?$_Tmap_traits@V?$basic_string@DU?$char_traits@D@std@@V?$allocator@D@2@@std@@HU?$less@V?$basic_string@DU?$char_traits@D@std@@V?$allocator@D@2@@std@@@2@V?$allocator@U?$pair@$$CBV?$basic_string@DU?$char_traits@D@std@@V?$allocator@D@2@@std@@H@std@@@2@$0A@@std@@@std@@IAEXPAU?$_Tree_node@U?$pair@$$CBV?$basic_string@DU?$char_traits@D@std@@V?$allocator@D@2@@std@@H@std@@PAX@2@@Z 00442060 f i CommonPathfindingLib:GraphicsBufferManager.obj
 0002:0001d210       ?_Max@?$_Tree_comp_alloc@V?$_Tmap_traits@HPAVGraphicsBuffer@@U?$less@H@std@@V?$allocator@U?$pair@$$CBHPAVGraphicsBuffer@@@std@@@3@$0A@@std@@@std@@SAPAU?$_Tree_node@U?$pair@$$CBHPAVGraphicsBuffer@@@std@@PAX@2@PAU32@@Z 00442210 f i CommonPathfindingLib:GraphicsBufferManager.obj
 0002:0001d260       ?_Max@?$_Tree_comp_alloc@V?$_Tmap_traits@V?$basic_string@DU?$char_traits@D@std@@V?$allocator@D@2@@std@@HU?$less@V?$basic_string@DU?$char_traits@D@std@@V?$allocator@D@2@@std@@@2@V?$allocator@U?$pair@$$CBV?$basic_string@DU?$char_traits@D@std@@V?$allocator@D@2@@std@@H@std@@@2@$0A@@std@@@std@@SAPAU?$_Tree_node@U?$pair@$$CBV?$basic_string@DU?$char_traits@D@std@@V?$allocator@D@2@@std@@H@std@@PAX@2@PAU32@@Z 00442260 f i CommonPathfindingLib:GraphicsBufferManager.obj
 0002:0001d2b0       ?_Max@?$_Tree_val@U?$_Tree_simple_types@U?$pair@$$CBHPAVGraphicsBuffer@@@std@@@std@@@std@@SAPAU?$_Tree_node@U?$pair@$$CBHPAVGraphicsBuffer@@@std@@PAX@2@PAU32@@Z 004422b0 f i CommonPathfindingLib:GraphicsBufferManager.obj
 0002:0001d330       ?_Max@?$_Tree_val@U?$_Tree_simple_types@U?$pair@$$CBV?$basic_string@DU?$char_traits@D@std@@V?$allocator@D@2@@std@@H@std@@@std@@@std@@SAPAU?$_Tree_node@U?$pair@$$CBV?$basic_string@DU?$char_traits@D@std@@V?$allocator@D@2@@std@@H@std@@PAX@2@PAU32@@Z 00442330 f i CommonPathfindingLib:GraphicsBufferManager.obj
 0002:0001d3b0       ?_Min@?$_Tree_comp_alloc@V?$_Tmap_traits@HPAVGraphicsBuffer@@U?$less@H@std@@V?$allocator@U?$pair@$$CBHPAVGraphicsBuffer@@@std@@@3@$0A@@std@@@std@@SAPAU?$_Tree_node@U?$pair@$$CBHPAVGraphicsBuffer@@@std@@PAX@2@PAU32@@Z 004423b0 f i CommonPathfindingLib:GraphicsBufferManager.obj
 0002:0001d400       ?_Min@?$_Tree_comp_alloc@V?$_Tmap_traits@V?$basic_string@DU?$char_traits@D@std@@V?$allocator@D@2@@std@@HU?$less@V?$basic_string@DU?$char_traits@D@std@@V?$allocator@D@2@@std@@@2@V?$allocator@U?$pair@$$CBV?$basic_string@DU?$char_traits@D@std@@V?$allocator@D@2@@std@@H@std@@@2@$0A@@std@@@std@@SAPAU?$_Tree_node@U?$pair@$$CBV?$basic_string@DU?$char_traits@D@std@@V?$allocator@D@2@@std@@H@std@@PAX@2@PAU32@@Z 00442400 f i CommonPathfindingLib:GraphicsBufferManager.obj
 0002:0001d450       ?_Min@?$_Tree_val@U?$_Tree_simple_types@U?$pair@$$CBHPAVGraphicsBuffer@@@std@@@std@@@std@@SAPAU?$_Tree_node@U?$pair@$$CBHPAVGraphicsBuffer@@@std@@PAX@2@PAU32@@Z 00442450 f i CommonPathfindingLib:GraphicsBufferManager.obj
 0002:0001d4d0       ?_Min@?$_Tree_val@U?$_Tree_simple_types@U?$pair@$$CBV?$basic_string@DU?$char_traits@D@std@@V?$allocator@D@2@@std@@H@std@@@std@@@std@@SAPAU?$_Tree_node@U?$pair@$$CBV?$basic_string@DU?$char_traits@D@std@@V?$allocator@D@2@@std@@H@std@@PAX@2@PAU32@@Z 004424d0 f i CommonPathfindingLib:GraphicsBufferManager.obj
 0002:0001d550       ?_Myhead@?$_Tree_comp_alloc@V?$_Tmap_traits@HPAVGraphicsBuffer@@U?$less@H@std@@V?$allocator@U?$pair@$$CBHPAVGraphicsBuffer@@@std@@@3@$0A@@std@@@std@@QAEAAPAU?$_Tree_node@U?$pair@$$CBHPAVGraphicsBuffer@@@std@@PAX@2@XZ 00442550 f i CommonPathfindingLib:GraphicsBufferManager.obj
 0002:0001d5b0       ?_Myhead@?$_Tree_comp_alloc@V?$_Tmap_traits@HPAVGraphicsBuffer@@U?$less@H@std@@V?$allocator@U?$pair@$$CBHPAVGraphicsBuffer@@@std@@@3@$0A@@std@@@std@@QBEABQAU?$_Tree_node@U?$pair@$$CBHPAVGraphicsBuffer@@@std@@PAX@2@XZ 004425b0 f i CommonPathfindingLib:GraphicsBufferManager.obj
 0002:0001d610       ?_Myhead@?$_Tree_comp_alloc@V?$_Tmap_traits@V?$basic_string@DU?$char_traits@D@std@@V?$allocator@D@2@@std@@HU?$less@V?$basic_string@DU?$char_traits@D@std@@V?$allocator@D@2@@std@@@2@V?$allocator@U?$pair@$$CBV?$basic_string@DU?$char_traits@D@std@@V?$allocator@D@2@@std@@H@std@@@2@$0A@@std@@@std@@QAEAAPAU?$_Tree_node@U?$pair@$$CBV?$basic_string@DU?$char_traits@D@std@@V?$allocator@D@2@@std@@H@std@@PAX@2@XZ 00442610 f i CommonPathfindingLib:GraphicsBufferManager.obj
 0002:0001d670       ?_Myhead@?$_Tree_comp_alloc@V?$_Tmap_traits@V?$basic_string@DU?$char_traits@D@std@@V?$allocator@D@2@@std@@HU?$less@V?$basic_string@DU?$char_traits@D@std@@V?$allocator@D@2@@std@@@2@V?$allocator@U?$pair@$$CBV?$basic_string@DU?$char_traits@D@std@@V?$allocator@D@2@@std@@H@std@@@2@$0A@@std@@@std@@QBEABQAU?$_Tree_node@U?$pair@$$CBV?$basic_string@DU?$char_traits@D@std@@V?$allocator@D@2@@std@@H@std@@PAX@2@XZ 00442670 f i CommonPathfindingLib:GraphicsBufferManager.obj
 0002:0001d6d0       ?_Mynode@?$_Tree_unchecked_const_iterator@V?$_Tree_val@U?$_Tree_simple_types@U?$pair@$$CBHPAVGraphicsBuffer@@@std@@@std@@@std@@U_Iterator_base12@2@@std@@QBEPAU?$_Tree_node@U?$pair@$$CBHPAVGraphicsBuffer@@@std@@PAX@2@XZ 004426d0 f i CommonPathfindingLib:GraphicsBufferManager.obj
 0002:0001d710       ?_Mynode@?$_Tree_unchecked_const_iterator@V?$_Tree_val@U?$_Tree_simple_types@U?$pair@$$CBV?$basic_string@DU?$char_traits@D@std@@V?$allocator@D@2@@std@@H@std@@@std@@@std@@U_Iterator_base12@2@@std@@QBEPAU?$_Tree_node@U?$pair@$$CBV?$basic_string@DU?$char_traits@D@std@@V?$allocator@D@2@@std@@H@std@@PAX@2@XZ 00442710 f i CommonPathfindingLib:GraphicsBufferManager.obj
 0002:0001d750       ?_Myproxy@?$_Tree_comp_alloc@V?$_Tmap_traits@HPAVGraphicsBuffer@@U?$less@H@std@@V?$allocator@U?$pair@$$CBHPAVGraphicsBuffer@@@std@@@3@$0A@@std@@@std@@QAEAAPAU_Container_proxy@2@XZ 00442750 f i CommonPathfindingLib:GraphicsBufferManager.obj
 0002:0001d7a0       ?_Myproxy@?$_Tree_comp_alloc@V?$_Tmap_traits@V?$basic_string@DU?$char_traits@D@std@@V?$allocator@D@2@@std@@HU?$less@V?$basic_string@DU?$char_traits@D@std@@V?$allocator@D@2@@std@@@2@V?$allocator@U?$pair@$$CBV?$basic_string@DU?$char_traits@D@std@@V?$allocator@D@2@@std@@H@std@@@2@$0A@@std@@@std@@QAEAAPAU_Container_proxy@2@XZ 004427a0 f i CommonPathfindingLib:GraphicsBufferManager.obj
 0002:0001d7f0       ?_Mysize@?$_Tree_comp_alloc@V?$_Tmap_traits@HPAVGraphicsBuffer@@U?$less@H@std@@V?$allocator@U?$pair@$$CBHPAVGraphicsBuffer@@@std@@@3@$0A@@std@@@std@@QAEAAIXZ 004427f0 f i CommonPathfindingLib:GraphicsBufferManager.obj
 0002:0001d850       ?_Mysize@?$_Tree_comp_alloc@V?$_Tmap_traits@HPAVGraphicsBuffer@@U?$less@H@std@@V?$allocator@U?$pair@$$CBHPAVGraphicsBuffer@@@std@@@3@$0A@@std@@@std@@QBEABIXZ 00442850 f i CommonPathfindingLib:GraphicsBufferManager.obj
 0002:0001d8b0       ?_Mysize@?$_Tree_comp_alloc@V?$_Tmap_traits@V?$basic_string@DU?$char_traits@D@std@@V?$allocator@D@2@@std@@HU?$less@V?$basic_string@DU?$char_traits@D@std@@V?$allocator@D@2@@std@@@2@V?$allocator@U?$pair@$$CBV?$basic_string@DU?$char_traits@D@std@@V?$allocator@D@2@@std@@H@std@@@2@$0A@@std@@@std@@QAEAAIXZ 004428b0 f i CommonPathfindingLib:GraphicsBufferManager.obj
 0002:0001d910       ?_Mysize@?$_Tree_comp_alloc@V?$_Tmap_traits@V?$basic_string@DU?$char_traits@D@std@@V?$allocator@D@2@@std@@HU?$less@V?$basic_string@DU?$char_traits@D@std@@V?$allocator@D@2@@std@@@2@V?$allocator@U?$pair@$$CBV?$basic_string@DU?$char_traits@D@std@@V?$allocator@D@2@@std@@H@std@@@2@$0A@@std@@@std@@QBEABIXZ 00442910 f i CommonPathfindingLib:GraphicsBufferManager.obj
 0002:0001d970       ?_Myval@?$_Tree_comp_alloc@V?$_Tmap_traits@HPAVGraphicsBuffer@@U?$less@H@std@@V?$allocator@U?$pair@$$CBHPAVGraphicsBuffer@@@std@@@3@$0A@@std@@@std@@SAAAU?$pair@$$CBHPAVGraphicsBuffer@@@2@PAU?$_Tree_node@U?$pair@$$CBHPAVGraphicsBuffer@@@std@@PAX@2@@Z 00442970 f i CommonPathfindingLib:GraphicsBufferManager.obj
 0002:0001d9c0       ?_Myval@?$_Tree_comp_alloc@V?$_Tmap_traits@V?$basic_string@DU?$char_traits@D@std@@V?$allocator@D@2@@std@@HU?$less@V?$basic_string@DU?$char_traits@D@std@@V?$allocator@D@2@@std@@@2@V?$allocator@U?$pair@$$CBV?$basic_string@DU?$char_traits@D@std@@V?$allocator@D@2@@std@@H@std@@@2@$0A@@std@@@std@@SAAAU?$pair@$$CBV?$basic_string@DU?$char_traits@D@std@@V?$allocator@D@2@@std@@H@2@PAU?$_Tree_node@U?$pair@$$CBV?$basic_string@DU?$char_traits@D@std@@V?$allocator@D@2@@std@@H@std@@PAX@2@@Z 004429c0 f i CommonPathfindingLib:GraphicsBufferManager.obj
 0002:0001da10       ?_Myval@?$_Tree_val@U?$_Tree_simple_types@U?$pair@$$CBHPAVGraphicsBuffer@@@std@@@std@@@std@@SAAAU?$pair@$$CBHPAVGraphicsBuffer@@@2@PAU?$_Tree_node@U?$pair@$$CBHPAVGraphicsBuffer@@@std@@PAX@2@@Z 00442a10 f i CommonPathfindingLib:GraphicsBufferManager.obj
 0002:0001da50       ?_Myval@?$_Tree_val@U?$_Tree_simple_types@U?$pair@$$CBV?$basic_string@DU?$char_traits@D@std@@V?$allocator@D@2@@std@@H@std@@@std@@@std@@SAAAU?$pair@$$CBV?$basic_string@DU?$char_traits@D@std@@V?$allocator@D@2@@std@@H@2@PAU?$_Tree_node@U?$pair@$$CBV?$basic_string@DU?$char_traits@D@std@@V?$allocator@D@2@@std@@H@std@@PAX@2@@Z 00442a50 f i CommonPathfindingLib:GraphicsBufferManager.obj
 0002:0001da90       ?_Orphan_all@?$_Tree_comp_alloc@V?$_Tmap_traits@HPAVGraphicsBuffer@@U?$less@H@std@@V?$allocator@U?$pair@$$CBHPAVGraphicsBuffer@@@std@@@3@$0A@@std@@@std@@QAEXXZ 00442a90 f i CommonPathfindingLib:GraphicsBufferManager.obj
 0002:0001daf0       ?_Orphan_all@?$_Tree_comp_alloc@V?$_Tmap_traits@V?$basic_string@DU?$char_traits@D@std@@V?$allocator@D@2@@std@@HU?$less@V?$basic_string@DU?$char_traits@D@std@@V?$allocator@D@2@@std@@@2@V?$allocator@U?$pair@$$CBV?$basic_string@DU?$char_traits@D@std@@V?$allocator@D@2@@std@@H@std@@@2@$0A@@std@@@std@@QAEXXZ 00442af0 f i CommonPathfindingLib:GraphicsBufferManager.obj
 0002:0001db50       ?_Orphan_ptr@?$_Tree@V?$_Tmap_traits@HPAVGraphicsBuffer@@U?$less@H@std@@V?$allocator@U?$pair@$$CBHPAVGraphicsBuffer@@@std@@@3@$0A@@std@@@std@@IAEXPAU?$_Tree_node@U?$pair@$$CBHPAVGraphicsBuffer@@@std@@PAX@2@@Z 00442b50 f i CommonPathfindingLib:GraphicsBufferManager.obj
 0002:0001dcd0       ?_Orphan_ptr@?$_Tree@V?$_Tmap_traits@V?$basic_string@DU?$char_traits@D@std@@V?$allocator@D@2@@std@@HU?$less@V?$basic_string@DU?$char_traits@D@std@@V?$allocator@D@2@@std@@@2@V?$allocator@U?$pair@$$CBV?$basic_string@DU?$char_traits@D@std@@V?$allocator@D@2@@std@@H@std@@@2@$0A@@std@@@std@@IAEXPAU?$_Tree_node@U?$pair@$$CBV?$basic_string@DU?$char_traits@D@std@@V?$allocator@D@2@@std@@H@std@@PAX@2@@Z 00442cd0 f i CommonPathfindingLib:GraphicsBufferManager.obj
 0002:0001de50       ?_Parent@?$_Tree_comp_alloc@V?$_Tmap_traits@HPAVGraphicsBuffer@@U?$less@H@std@@V?$allocator@U?$pair@$$CBHPAVGraphicsBuffer@@@std@@@3@$0A@@std@@@std@@SAAAPAU?$_Tree_node@U?$pair@$$CBHPAVGraphicsBuffer@@@std@@PAX@2@PAU32@@Z 00442e50 f i CommonPathfindingLib:GraphicsBufferManager.obj
 0002:0001dea0       ?_Parent@?$_Tree_comp_alloc@V?$_Tmap_traits@V?$basic_string@DU?$char_traits@D@std@@V?$allocator@D@2@@std@@HU?$less@V?$basic_string@DU?$char_traits@D@std@@V?$allocator@D@2@@std@@@2@V?$allocator@U?$pair@$$CBV?$basic_string@DU?$char_traits@D@std@@V?$allocator@D@2@@std@@H@std@@@2@$0A@@std@@@std@@SAAAPAU?$_Tree_node@U?$pair@$$CBV?$basic_string@DU?$char_traits@D@std@@V?$allocator@D@2@@std@@H@std@@PAX@2@PAU32@@Z 00442ea0 f i CommonPathfindingLib:GraphicsBufferManager.obj
 0002:0001def0       ?_Parent@?$_Tree_val@U?$_Tree_simple_types@U?$pair@$$CBHPAVGraphicsBuffer@@@std@@@std@@@std@@SAAAPAU?$_Tree_node@U?$pair@$$CBHPAVGraphicsBuffer@@@std@@PAX@2@PAU32@@Z 00442ef0 f i CommonPathfindingLib:GraphicsBufferManager.obj
 0002:0001df30       ?_Parent@?$_Tree_val@U?$_Tree_simple_types@U?$pair@$$CBV?$basic_string@DU?$char_traits@D@std@@V?$allocator@D@2@@std@@H@std@@@std@@@std@@SAAAPAU?$_Tree_node@U?$pair@$$CBV?$basic_string@DU?$char_traits@D@std@@V?$allocator@D@2@@std@@H@std@@PAX@2@PAU32@@Z 00442f30 f i CommonPathfindingLib:GraphicsBufferManager.obj
 0002:0001df70       ?_Right@?$_Tree_comp_alloc@V?$_Tmap_traits@HPAVGraphicsBuffer@@U?$less@H@std@@V?$allocator@U?$pair@$$CBHPAVGraphicsBuffer@@@std@@@3@$0A@@std@@@std@@SAAAPAU?$_Tree_node@U?$pair@$$CBHPAVGraphicsBuffer@@@std@@PAX@2@PAU32@@Z 00442f70 f i CommonPathfindingLib:GraphicsBufferManager.obj
 0002:0001dfc0       ?_Right@?$_Tree_comp_alloc@V?$_Tmap_traits@V?$basic_string@DU?$char_traits@D@std@@V?$allocator@D@2@@std@@HU?$less@V?$basic_string@DU?$char_traits@D@std@@V?$allocator@D@2@@std@@@2@V?$allocator@U?$pair@$$CBV?$basic_string@DU?$char_traits@D@std@@V?$allocator@D@2@@std@@H@std@@@2@$0A@@std@@@std@@SAAAPAU?$_Tree_node@U?$pair@$$CBV?$basic_string@DU?$char_traits@D@std@@V?$allocator@D@2@@std@@H@std@@PAX@2@PAU32@@Z 00442fc0 f i CommonPathfindingLib:GraphicsBufferManager.obj
 0002:0001e010       ?_Right@?$_Tree_val@U?$_Tree_simple_types@U?$pair@$$CBHPAVGraphicsBuffer@@@std@@@std@@@std@@SAAAPAU?$_Tree_node@U?$pair@$$CBHPAVGraphicsBuffer@@@std@@PAX@2@PAU32@@Z 00443010 f i CommonPathfindingLib:GraphicsBufferManager.obj
 0002:0001e050       ?_Right@?$_Tree_val@U?$_Tree_simple_types@U?$pair@$$CBV?$basic_string@DU?$char_traits@D@std@@V?$allocator@D@2@@std@@H@std@@@std@@@std@@SAAAPAU?$_Tree_node@U?$pair@$$CBV?$basic_string@DU?$char_traits@D@std@@V?$allocator@D@2@@std@@H@std@@PAX@2@PAU32@@Z 00443050 f i CommonPathfindingLib:GraphicsBufferManager.obj
 0002:0001e090       ?_Rmost@?$_Tree@V?$_Tmap_traits@HPAVGraphicsBuffer@@U?$less@H@std@@V?$allocator@U?$pair@$$CBHPAVGraphicsBuffer@@@std@@@3@$0A@@std@@@std@@IBEAAPAU?$_Tree_node@U?$pair@$$CBHPAVGraphicsBuffer@@@std@@PAX@2@XZ 00443090 f i CommonPathfindingLib:GraphicsBufferManager.obj
 0002:0001e0f0       ?_Rmost@?$_Tree@V?$_Tmap_traits@V?$basic_string@DU?$char_traits@D@std@@V?$allocator@D@2@@std@@HU?$less@V?$basic_string@DU?$char_traits@D@std@@V?$allocator@D@2@@std@@@2@V?$allocator@U?$pair@$$CBV?$basic_string@DU?$char_traits@D@std@@V?$allocator@D@2@@std@@H@std@@@2@$0A@@std@@@std@@IBEAAPAU?$_Tree_node@U?$pair@$$CBV?$basic_string@DU?$char_traits@D@std@@V?$allocator@D@2@@std@@H@std@@PAX@2@XZ 004430f0 f i CommonPathfindingLib:GraphicsBufferManager.obj
 0002:0001e150       ?_Root@?$_Tree@V?$_Tmap_traits@HPAVGraphicsBuffer@@U?$less@H@std@@V?$allocator@U?$pair@$$CBHPAVGraphicsBuffer@@@std@@@3@$0A@@std@@@std@@IBEAAPAU?$_Tree_node@U?$pair@$$CBHPAVGraphicsBuffer@@@std@@PAX@2@XZ 00443150 f i CommonPathfindingLib:GraphicsBufferManager.obj
 0002:0001e1b0       ?_Root@?$_Tree@V?$_Tmap_traits@V?$basic_string@DU?$char_traits@D@std@@V?$allocator@D@2@@std@@HU?$less@V?$basic_string@DU?$char_traits@D@std@@V?$allocator@D@2@@std@@@2@V?$allocator@U?$pair@$$CBV?$basic_string@DU?$char_traits@D@std@@V?$allocator@D@2@@std@@H@std@@@2@$0A@@std@@@std@@IBEAAPAU?$_Tree_node@U?$pair@$$CBV?$basic_string@DU?$char_traits@D@std@@V?$allocator@D@2@@std@@H@std@@PAX@2@XZ 004431b0 f i CommonPathfindingLib:GraphicsBufferManager.obj
 0002:0001e210       ?_Rrotate@?$_Tree@V?$_Tmap_traits@HPAVGraphicsBuffer@@U?$less@H@std@@V?$allocator@U?$pair@$$CBHPAVGraphicsBuffer@@@std@@@3@$0A@@std@@@std@@IAEXPAU?$_Tree_node@U?$pair@$$CBHPAVGraphicsBuffer@@@std@@PAX@2@@Z 00443210 f i CommonPathfindingLib:GraphicsBufferManager.obj
 0002:0001e3c0       ?_Rrotate@?$_Tree@V?$_Tmap_traits@V?$basic_string@DU?$char_traits@D@std@@V?$allocator@D@2@@std@@HU?$less@V?$basic_string@DU?$char_traits@D@std@@V?$allocator@D@2@@std@@@2@V?$allocator@U?$pair@$$CBV?$basic_string@DU?$char_traits@D@std@@V?$allocator@D@2@@std@@H@std@@@2@$0A@@std@@@std@@IAEXPAU?$_Tree_node@U?$pair@$$CBV?$basic_string@DU?$char_traits@D@std@@V?$allocator@D@2@@std@@H@std@@PAX@2@@Z 004433c0 f i CommonPathfindingLib:GraphicsBufferManager.obj
 0002:0001e570       ?_Tidy@?$_Tree@V?$_Tmap_traits@HPAVGraphicsBuffer@@U?$less@H@std@@V?$allocator@U?$pair@$$CBHPAVGraphicsBuffer@@@std@@@3@$0A@@std@@@std@@IAEXXZ 00443570 f i CommonPathfindingLib:GraphicsBufferManager.obj
 0002:0001e700       ?_Tidy@?$_Tree@V?$_Tmap_traits@V?$basic_string@DU?$char_traits@D@std@@V?$allocator@D@2@@std@@HU?$less@V?$basic_string@DU?$char_traits@D@std@@V?$allocator@D@2@@std@@@2@V?$allocator@U?$pair@$$CBV?$basic_string@DU?$char_traits@D@std@@V?$allocator@D@2@@std@@H@std@@@2@$0A@@std@@@std@@IAEXXZ 00443700 f i CommonPathfindingLib:GraphicsBufferManager.obj
 0002:0001e890       ?_Traits_compare@?$basic_string@DU?$char_traits@D@std@@V?$allocator@D@2@@std@@SAHQBDI0I@Z 00443890 f i CommonPathfindingLib:GraphicsBufferManager.obj
 0002:0001e950       ?allocate@?$_Wrap_alloc@V?$allocator@U?$_Tree_node@U?$pair@$$CBHPAVGraphicsBuffer@@@std@@PAX@std@@@std@@@std@@QAEPAU?$_Tree_node@U?$pair@$$CBHPAVGraphicsBuffer@@@std@@PAX@2@I@Z 00443950 f i CommonPathfindingLib:GraphicsBufferManager.obj
 0002:0001e9b0       ?allocate@?$_Wrap_alloc@V?$allocator@U?$_Tree_node@U?$pair@$$CBV?$basic_string@DU?$char_traits@D@std@@V?$allocator@D@2@@std@@H@std@@PAX@std@@@std@@@std@@QAEPAU?$_Tree_node@U?$pair@$$CBV?$basic_string@DU?$char_traits@D@std@@V?$allocator@D@2@@std@@H@std@@PAX@2@I@Z 004439b0 f i CommonPathfindingLib:GraphicsBufferManager.obj
 0002:0001ea10       ?allocate@?$allocator@U?$_Tree_node@U?$pair@$$CBHPAVGraphicsBuffer@@@std@@PAX@std@@@std@@QAEPAU?$_Tree_node@U?$pair@$$CBHPAVGraphicsBuffer@@@std@@PAX@2@I@Z 00443a10 f i CommonPathfindingLib:GraphicsBufferManager.obj
 0002:0001ea70       ?allocate@?$allocator@U?$_Tree_node@U?$pair@$$CBV?$basic_string@DU?$char_traits@D@std@@V?$allocator@D@2@@std@@H@std@@PAX@std@@@std@@QAEPAU?$_Tree_node@U?$pair@$$CBV?$basic_string@DU?$char_traits@D@std@@V?$allocator@D@2@@std@@H@std@@PAX@2@I@Z 00443a70 f i CommonPathfindingLib:GraphicsBufferManager.obj
 0002:0001ead0       ?begin@?$_Tree@V?$_Tmap_traits@HPAVGraphicsBuffer@@U?$less@H@std@@V?$allocator@U?$pair@$$CBHPAVGraphicsBuffer@@@std@@@3@$0A@@std@@@std@@QAE?AV?$_Tree_iterator@V?$_Tree_val@U?$_Tree_simple_types@U?$pair@$$CBHPAVGraphicsBuffer@@@std@@@std@@@std@@@2@XZ 00443ad0 f i CommonPathfindingLib:GraphicsBufferManager.obj
 0002:0001eb80       ?begin@?$_Tree@V?$_Tmap_traits@V?$basic_string@DU?$char_traits@D@std@@V?$allocator@D@2@@std@@HU?$less@V?$basic_string@DU?$char_traits@D@std@@V?$allocator@D@2@@std@@@2@V?$allocator@U?$pair@$$CBV?$basic_string@DU?$char_traits@D@std@@V?$allocator@D@2@@std@@H@std@@@2@$0A@@std@@@std@@QAE?AV?$_Tree_iterator@V?$_Tree_val@U?$_Tree_simple_types@U?$pair@$$CBV?$basic_string@DU?$char_traits@D@std@@V?$allocator@D@2@@std@@H@std@@@std@@@std@@@2@XZ 00443b80 f i CommonPathfindingLib:GraphicsBufferManager.obj
 0002:0001ec30       ?clear@?$_Tree@V?$_Tmap_traits@HPAVGraphicsBuffer@@U?$less@H@std@@V?$allocator@U?$pair@$$CBHPAVGraphicsBuffer@@@std@@@3@$0A@@std@@@std@@QAEXXZ 00443c30 f i CommonPathfindingLib:GraphicsBufferManager.obj
 0002:0001ed40       ?clear@?$_Tree@V?$_Tmap_traits@V?$basic_string@DU?$char_traits@D@std@@V?$allocator@D@2@@std@@HU?$less@V?$basic_string@DU?$char_traits@D@std@@V?$allocator@D@2@@std@@@2@V?$allocator@U?$pair@$$CBV?$basic_string@DU?$char_traits@D@std@@V?$allocator@D@2@@std@@H@std@@@2@$0A@@std@@@std@@QAEXXZ 00443d40 f i CommonPathfindingLib:GraphicsBufferManager.obj
 0002:0001ee50       ?clear@GraphicsBufferManager@@QAEXXZ 00443e50 f   CommonPathfindingLib:GraphicsBufferManager.obj
 0002:0001f070       ?compare@?$basic_string@DU?$char_traits@D@std@@V?$allocator@D@2@@std@@QBEHABV12@@Z 00444070 f i CommonPathfindingLib:GraphicsBufferManager.obj
 0002:0001f130       ?compare@?$char_traits@D@std@@SAHPBD0I@Z 00444130 f i CommonPathfindingLib:GraphicsBufferManager.obj
 0002:0001f1b0       ?deallocate@?$_Wrap_alloc@V?$allocator@U?$_Tree_node@U?$pair@$$CBHPAVGraphicsBuffer@@@std@@PAX@std@@@std@@@std@@QAEXPAU?$_Tree_node@U?$pair@$$CBHPAVGraphicsBuffer@@@std@@PAX@2@I@Z 004441b0 f i CommonPathfindingLib:GraphicsBufferManager.obj
 0002:0001f210       ?deallocate@?$_Wrap_alloc@V?$allocator@U?$_Tree_node@U?$pair@$$CBV?$basic_string@DU?$char_traits@D@std@@V?$allocator@D@2@@std@@H@std@@PAX@std@@@std@@@std@@QAEXPAU?$_Tree_node@U?$pair@$$CBV?$basic_string@DU?$char_traits@D@std@@V?$allocator@D@2@@std@@H@std@@PAX@2@I@Z 00444210 f i CommonPathfindingLib:GraphicsBufferManager.obj
 0002:0001f270       ?deallocate@?$allocator@U?$_Tree_node@U?$pair@$$CBHPAVGraphicsBuffer@@@std@@PAX@std@@@std@@QAEXPAU?$_Tree_node@U?$pair@$$CBHPAVGraphicsBuffer@@@std@@PAX@2@I@Z 00444270 f i CommonPathfindingLib:GraphicsBufferManager.obj
 0002:0001f2d0       ?deallocate@?$allocator@U?$_Tree_node@U?$pair@$$CBV?$basic_string@DU?$char_traits@D@std@@V?$allocator@D@2@@std@@H@std@@PAX@std@@@std@@QAEXPAU?$_Tree_node@U?$pair@$$CBV?$basic_string@DU?$char_traits@D@std@@V?$allocator@D@2@@std@@H@std@@PAX@2@I@Z 004442d0 f i CommonPathfindingLib:GraphicsBufferManager.obj
 0002:0001f330       ?deleteBuffer@GraphicsBufferManager@@QAEXABH@Z 00444330 f   CommonPathfindingLib:GraphicsBufferManager.obj
 0002:0001f6b0       ?deleteBufferByDescriptor@GraphicsBufferManager@@QAEXABV?$basic_string@DU?$char_traits@D@std@@V?$allocator@D@2@@std@@@Z 004446b0 f   CommonPathfindingLib:GraphicsBufferManager.obj
 0002:0001f820       ?end@?$_Tree@V?$_Tmap_traits@HPAVGraphicsBuffer@@U?$less@H@std@@V?$allocator@U?$pair@$$CBHPAVGraphicsBuffer@@@std@@@3@$0A@@std@@@std@@QAE?AV?$_Tree_iterator@V?$_Tree_val@U?$_Tree_simple_types@U?$pair@$$CBHPAVGraphicsBuffer@@@std@@@std@@@std@@@2@XZ 00444820 f i CommonPathfindingLib:GraphicsBufferManager.obj
 0002:0001f8d0       ?end@?$_Tree@V?$_Tmap_traits@V?$basic_string@DU?$char_traits@D@std@@V?$allocator@D@2@@std@@HU?$less@V?$basic_string@DU?$char_traits@D@std@@V?$allocator@D@2@@std@@@2@V?$allocator@U?$pair@$$CBV?$basic_string@DU?$char_traits@D@std@@V?$allocator@D@2@@std@@H@std@@@2@$0A@@std@@@std@@QAE?AV?$_Tree_iterator@V?$_Tree_val@U?$_Tree_simple_types@U?$pair@$$CBV?$basic_string@DU?$char_traits@D@std@@V?$allocator@D@2@@std@@H@std@@@std@@@std@@@2@XZ 004448d0 f i CommonPathfindingLib:GraphicsBufferManager.obj
 0002:0001f980       ?erase@?$_Tree@V?$_Tmap_traits@HPAVGraphicsBuffer@@U?$less@H@std@@V?$allocator@U?$pair@$$CBHPAVGraphicsBuffer@@@std@@@3@$0A@@std@@@std@@QAE?AV?$_Tree_iterator@V?$_Tree_val@U?$_Tree_simple_types@U?$pair@$$CBHPAVGraphicsBuffer@@@std@@@std@@@std@@@2@V?$_Tree_const_iterator@V?$_Tree_val@U?$_Tree_simple_types@U?$pair@$$CBHPAVGraphicsBuffer@@@std@@@std@@@std@@@2@0@Z 00444980 f i CommonPathfindingLib:GraphicsBufferManager.obj
 0002:0001fca0       ?erase@?$_Tree@V?$_Tmap_traits@HPAVGraphicsBuffer@@U?$less@H@std@@V?$allocator@U?$pair@$$CBHPAVGraphicsBuffer@@@std@@@3@$0A@@std@@@std@@QAE?AV?$_Tree_iterator@V?$_Tree_val@U?$_Tree_simple_types@U?$pair@$$CBHPAVGraphicsBuffer@@@std@@@std@@@std@@@2@V?$_Tree_const_iterator@V?$_Tree_val@U?$_Tree_simple_types@U?$pair@$$CBHPAVGraphicsBuffer@@@std@@@std@@@std@@@2@@Z 00444ca0 f i CommonPathfindingLib:GraphicsBufferManager.obj
 0002:00020730       ?erase@?$_Tree@V?$_Tmap_traits@V?$basic_string@DU?$char_traits@D@std@@V?$allocator@D@2@@std@@HU?$less@V?$basic_string@DU?$char_traits@D@std@@V?$allocator@D@2@@std@@@2@V?$allocator@U?$pair@$$CBV?$basic_string@DU?$char_traits@D@std@@V?$allocator@D@2@@std@@H@std@@@2@$0A@@std@@@std@@QAE?AV?$_Tree_iterator@V?$_Tree_val@U?$_Tree_simple_types@U?$pair@$$CBV?$basic_string@DU?$char_traits@D@std@@V?$allocator@D@2@@std@@H@std@@@std@@@std@@@2@V?$_Tree_const_iterator@V?$_Tree_val@U?$_Tree_simple_types@U?$pair@$$CBV?$basic_string@DU?$char_traits@D@std@@V?$allocator@D@2@@std@@H@std@@@std@@@std@@@2@0@Z 00445730 f i CommonPathfindingLib:GraphicsBufferManager.obj
 0002:00020a50       ?erase@?$_Tree@V?$_Tmap_traits@V?$basic_string@DU?$char_traits@D@std@@V?$allocator@D@2@@std@@HU?$less@V?$basic_string@DU?$char_traits@D@std@@V?$allocator@D@2@@std@@@2@V?$allocator@U?$pair@$$CBV?$basic_string@DU?$char_traits@D@std@@V?$allocator@D@2@@std@@H@std@@@2@$0A@@std@@@std@@QAE?AV?$_Tree_iterator@V?$_Tree_val@U?$_Tree_simple_types@U?$pair@$$CBV?$basic_string@DU?$char_traits@D@std@@V?$allocator@D@2@@std@@H@std@@@std@@@std@@@2@V?$_Tree_const_iterator@V?$_Tree_val@U?$_Tree_simple_types@U?$pair@$$CBV?$basic_string@DU?$char_traits@D@std@@V?$allocator@D@2@@std@@H@std@@@std@@@std@@@2@@Z 00445a50 f i CommonPathfindingLib:GraphicsBufferManager.obj
 0002:000214e0       ?find@?$_Tree@V?$_Tmap_traits@HPAVGraphicsBuffer@@U?$less@H@std@@V?$allocator@U?$pair@$$CBHPAVGraphicsBuffer@@@std@@@3@$0A@@std@@@std@@QAE?AV?$_Tree_iterator@V?$_Tree_val@U?$_Tree_simple_types@U?$pair@$$CBHPAVGraphicsBuffer@@@std@@@std@@@std@@@2@ABH@Z 004464e0 f i CommonPathfindingLib:GraphicsBufferManager.obj
 0002:000217e0       ?find@?$_Tree@V?$_Tmap_traits@V?$basic_string@DU?$char_traits@D@std@@V?$allocator@D@2@@std@@HU?$less@V?$basic_string@DU?$char_traits@D@std@@V?$allocator@D@2@@std@@@2@V?$allocator@U?$pair@$$CBV?$basic_string@DU?$char_traits@D@std@@V?$allocator@D@2@@std@@H@std@@@2@$0A@@std@@@std@@QAE?AV?$_Tree_iterator@V?$_Tree_val@U?$_Tree_simple_types@U?$pair@$$CBV?$basic_string@DU?$char_traits@D@std@@V?$allocator@D@2@@std@@H@std@@@std@@@std@@@2@ABV?$basic_string@DU?$char_traits@D@std@@V?$allocator@D@2@@2@@Z 004467e0 f i CommonPathfindingLib:GraphicsBufferManager.obj
 0002:00021ae0       ?getBuffer@GraphicsBufferManager@@QAEPAVGraphicsBuffer@@ABH@Z 00446ae0 f   CommonPathfindingLib:GraphicsBufferManager.obj
 0002:00021c60       ?getBufferByDescriptor@GraphicsBufferManager@@QAEPAVGraphicsBuffer@@ABV?$basic_string@DU?$char_traits@D@std@@V?$allocator@D@2@@std@@@Z 00446c60 f   CommonPathfindingLib:GraphicsBufferManager.obj
 0002:00021e10       ?getNextID@GraphicsBufferManager@@AAEHXZ 00446e10 f   CommonPathfindingLib:GraphicsBufferManager.obj
 0002:00021fd0       ?init@GraphicsBufferManager@@QAEXXZ 00446fd0 f   CommonPathfindingLib:GraphicsBufferManager.obj
 0002:00022010       ?isValid@GraphicsBuffer@@QBE_NXZ 00447010 f i CommonPathfindingLib:GraphicsBufferManager.obj
 0002:00022080       ?loadBuffer@GraphicsBufferManager@@QAEHABHABV?$basic_string@DU?$char_traits@D@std@@V?$allocator@D@2@@std@@@Z 00447080 f   CommonPathfindingLib:GraphicsBufferManager.obj
 0002:000222f0       ?loadBuffer@GraphicsBufferManager@@QAEHABV?$basic_string@DU?$char_traits@D@std@@V?$allocator@D@2@@std@@@Z 004472f0 f   CommonPathfindingLib:GraphicsBufferManager.obj
 0002:000223a0       ?lower_bound@?$_Tree@V?$_Tmap_traits@HPAVGraphicsBuffer@@U?$less@H@std@@V?$allocator@U?$pair@$$CBHPAVGraphicsBuffer@@@std@@@3@$0A@@std@@@std@@QAE?AV?$_Tree_iterator@V?$_Tree_val@U?$_Tree_simple_types@U?$pair@$$CBHPAVGraphicsBuffer@@@std@@@std@@@std@@@2@ABH@Z 004473a0 f i CommonPathfindingLib:GraphicsBufferManager.obj
 0002:00022430       ?lower_bound@?$_Tree@V?$_Tmap_traits@V?$basic_string@DU?$char_traits@D@std@@V?$allocator@D@2@@std@@HU?$less@V?$basic_string@DU?$char_traits@D@std@@V?$allocator@D@2@@std@@@2@V?$allocator@U?$pair@$$CBV?$basic_string@DU?$char_traits@D@std@@V?$allocator@D@2@@std@@H@std@@@2@$0A@@std@@@std@@QAE?AV?$_Tree_iterator@V?$_Tree_val@U?$_Tree_simple_types@U?$pair@$$CBV?$basic_string@DU?$char_traits@D@std@@V?$allocator@D@2@@std@@H@std@@@std@@@std@@@2@ABV?$basic_string@DU?$char_traits@D@std@@V?$allocator@D@2@@2@@Z 00447430 f i CommonPathfindingLib:GraphicsBufferManager.obj
 0002:000224c0       ?manageBuffer@GraphicsBufferManager@@QAEHPAVGraphicsBuffer@@ABV?$basic_string@DU?$char_traits@D@std@@V?$allocator@D@2@@std@@@Z 004474c0 f   CommonPathfindingLib:GraphicsBufferManager.obj
 0002:00022680       ?max_size@?$_Tree@V?$_Tmap_traits@HPAVGraphicsBuffer@@U?$less@H@std@@V?$allocator@U?$pair@$$CBHPAVGraphicsBuffer@@@std@@@3@$0A@@std@@@std@@QBEIXZ 00447680 f i CommonPathfindingLib:GraphicsBufferManager.obj
 0002:000226f0       ?max_size@?$_Tree@V?$_Tmap_traits@V?$basic_string@DU?$char_traits@D@std@@V?$allocator@D@2@@std@@HU?$less@V?$basic_string@DU?$char_traits@D@std@@V?$allocator@D@2@@std@@@2@V?$allocator@U?$pair@$$CBV?$basic_string@DU?$char_traits@D@std@@V?$allocator@D@2@@std@@H@std@@@2@$0A@@std@@@std@@QBEIXZ 004476f0 f i CommonPathfindingLib:GraphicsBufferManager.obj
 0002:00022760       ?max_size@?$_Wrap_alloc@V?$allocator@U?$_Tree_node@U?$pair@$$CBHPAVGraphicsBuffer@@@std@@PAX@std@@@std@@@std@@QBEIU_Nil@2@@Z 00447760 f i CommonPathfindingLib:GraphicsBufferManager.obj
 0002:000227c0       ?max_size@?$_Wrap_alloc@V?$allocator@U?$_Tree_node@U?$pair@$$CBV?$basic_string@DU?$char_traits@D@std@@V?$allocator@D@2@@std@@H@std@@PAX@std@@@std@@@std@@QBEIU_Nil@2@@Z 004477c0 f i CommonPathfindingLib:GraphicsBufferManager.obj
 0002:00022820       ?max_size@?$allocator@U?$_Tree_node@U?$pair@$$CBHPAVGraphicsBuffer@@@std@@PAX@std@@@std@@QBEIXZ 00447820 f i CommonPathfindingLib:GraphicsBufferManager.obj
 0002:00022860       ?max_size@?$allocator@U?$_Tree_node@U?$pair@$$CBV?$basic_string@DU?$char_traits@D@std@@V?$allocator@D@2@@std@@H@std@@PAX@std@@@std@@QBEIXZ 00447860 f i CommonPathfindingLib:GraphicsBufferManager.obj
 0002:000228a0       ?max_size@?$allocator_traits@V?$allocator@U?$_Tree_node@U?$pair@$$CBHPAVGraphicsBuffer@@@std@@PAX@std@@@std@@@std@@SAIABV?$allocator@U?$_Tree_node@U?$pair@$$CBHPAVGraphicsBuffer@@@std@@PAX@std@@@2@@Z 004478a0 f i CommonPathfindingLib:GraphicsBufferManager.obj
 0002:000228f0       ?max_size@?$allocator_traits@V?$allocator@U?$_Tree_node@U?$pair@$$CBV?$basic_string@DU?$char_traits@D@std@@V?$allocator@D@2@@std@@H@std@@PAX@std@@@std@@@std@@SAIABV?$allocator@U?$_Tree_node@U?$pair@$$CBV?$basic_string@DU?$char_traits@D@std@@V?$allocator@D@2@@std@@H@std@@PAX@std@@@2@@Z 004478f0 f i CommonPathfindingLib:GraphicsBufferManager.obj
 0002:00022940       ?pointer_to@?$pointer_traits@PAU?$pair@$$CBHPAVGraphicsBuffer@@@std@@@std@@SAPAU?$pair@$$CBHPAVGraphicsBuffer@@@2@AAU32@@Z 00447940 f i CommonPathfindingLib:GraphicsBufferManager.obj
 0002:00022990       ?pointer_to@?$pointer_traits@PAU?$pair@$$CBV?$basic_string@DU?$char_traits@D@std@@V?$allocator@D@2@@std@@H@std@@@std@@SAPAU?$pair@$$CBV?$basic_string@DU?$char_traits@D@std@@V?$allocator@D@2@@std@@H@2@AAU32@@Z 00447990 f i CommonPathfindingLib:GraphicsBufferManager.obj
 0002:000229e0       ?select_on_container_copy_construction@?$_Wrap_alloc@V?$allocator@D@std@@@std@@QBE?AU12@U_Nil@2@@Z 004479e0 f i CommonPathfindingLib:GraphicsBufferManager.obj
 0002:00022a50       ?select_on_container_copy_construction@?$allocator_traits@V?$allocator@D@std@@@std@@SA?AV?$allocator@D@2@ABV32@@Z 00447a50 f i CommonPathfindingLib:GraphicsBufferManager.obj
 0002:00022ab0       ?size@?$_Tree@V?$_Tmap_traits@HPAVGraphicsBuffer@@U?$less@H@std@@V?$allocator@U?$pair@$$CBHPAVGraphicsBuffer@@@std@@@3@$0A@@std@@@std@@QBEIXZ 00447ab0 f i CommonPathfindingLib:GraphicsBufferManager.obj
 0002:00022b10       ?size@?$_Tree@V?$_Tmap_traits@V?$basic_string@DU?$char_traits@D@std@@V?$allocator@D@2@@std@@HU?$less@V?$basic_string@DU?$char_traits@D@std@@V?$allocator@D@2@@std@@@2@V?$allocator@U?$pair@$$CBV?$basic_string@DU?$char_traits@D@std@@V?$allocator@D@2@@std@@H@std@@@2@$0A@@std@@@std@@QBEIXZ 00447b10 f i CommonPathfindingLib:GraphicsBufferManager.obj
 0002:00022b70       ??$?0$$V@?$_Compressed_pair@U?$_Wrap_alloc@V?$allocator@H@std@@@std@@V?$_Vector_val@U?$_Simple_types@H@std@@@2@$00@std@@QAE@U_Zero_then_variadic_args_t@1@@Z 00447b70 f i CommonPathfindingLib:Grid.obj
 0002:00022bd0       ??$?0AAU?$_Wrap_alloc@V?$allocator@H@std@@@std@@@?$_Wrap_alloc@V?$allocator@U_Container_proxy@std@@@std@@@std@@QAE@AAU?$_Wrap_alloc@V?$allocator@H@std@@@1@@Z 00447bd0 f i CommonPathfindingLib:Grid.obj
 0002:00022c40       ??$?0H@?$allocator@U_Container_proxy@std@@@std@@QAE@ABV?$allocator@H@1@@Z 00447c40 f i CommonPathfindingLib:Grid.obj
 0002:00022c80       ??$?0U?$_Wrap_alloc@V?$allocator@H@std@@@std@@$$V@?$_Compressed_pair@U?$_Wrap_alloc@V?$allocator@H@std@@@std@@V?$_Vector_val@U?$_Simple_types@H@std@@@2@$00@std@@QAE@U_One_then_variadic_args_t@1@$$QAU?$_Wrap_alloc@V?$allocator@H@std@@@1@@Z 00447c80 f i CommonPathfindingLib:Grid.obj
 0002:00022cf0       ??$?0U?$_Wrap_alloc@V?$allocator@H@std@@@std@@X@?$_Vector_alloc@U?$_Vec_base_types@HV?$allocator@H@std@@@std@@@std@@QAE@$$QAU?$_Wrap_alloc@V?$allocator@H@std@@@1@@Z 00447cf0 f i CommonPathfindingLib:Grid.obj
 0002:00022db0       ??$_Copy_memmove@PAHPAH@std@@YAPAHPAH00@Z 00447db0 f i CommonPathfindingLib:Grid.obj
 0002:00022e40       ??$_Destroy_range1@V?$allocator@H@std@@PAH@std@@YAXPAH0AAU?$_Wrap_alloc@V?$allocator@H@std@@@0@U?$integral_constant@_N$00@0@@Z 00447e40 f i CommonPathfindingLib:Grid.obj
 0002:00022e70       ??$_Destroy_range@V?$allocator@H@std@@PAH@std@@YAXPAH0AAU?$_Wrap_alloc@V?$allocator@H@std@@@0@@Z 00447e70 f i CommonPathfindingLib:Grid.obj
 0002:00022ee0       ??$_Ptr_move_cat@HH@std@@YA?AU_Really_trivial_ptr_iterator_tag@0@ABQAH0@Z 00447ee0 f i CommonPathfindingLib:Grid.obj
 0002:00022f20       ??$_Rechecked@PAHPAH@std@@YAAAPAHAAPAHPAH@Z 00447f20 f i CommonPathfindingLib:Grid.obj
 0002:00022f60       ??$_Umove@PAH@?$vector@HV?$allocator@H@std@@@std@@IAEPAHPAH00@Z 00447f60 f i CommonPathfindingLib:Grid.obj
 0002:00022fd0       ??$_Unchecked@PAH@std@@YAPAHPAH@Z 00447fd0 f i CommonPathfindingLib:Grid.obj
 0002:00023010       ??$_Unfancy@H@std@@YAPAHPAH@Z 00448010 f i CommonPathfindingLib:Grid.obj
 0002:00023050       ??$_Uninitialized_move@PAHPAHV?$allocator@H@std@@@std@@YAPAHPAH00AAU?$_Wrap_alloc@V?$allocator@H@std@@@0@@Z 00448050 f i CommonPathfindingLib:Grid.obj
 0002:000230f0       ??$_Uninitialized_move_al_unchecked1@HHV?$allocator@H@std@@@std@@YAPAHPAH00AAU?$_Wrap_alloc@V?$allocator@H@std@@@0@U_Really_trivial_ptr_iterator_tag@0@U?$integral_constant@_N$00@0@@Z 004480f0 f i CommonPathfindingLib:Grid.obj
 0002:00023150       ??$_Uninitialized_move_al_unchecked@PAHPAHV?$allocator@H@std@@@std@@YAPAHPAH00AAU?$_Wrap_alloc@V?$allocator@H@std@@@0@@Z 00448150 f i CommonPathfindingLib:Grid.obj
 0002:000231e0       ??$addressof@$$CBH@std@@YAPBHABH@Z 004481e0 f i CommonPathfindingLib:Grid.obj
 0002:00023220       ??$construct@HAAH@?$_Wrap_alloc@V?$allocator@H@std@@@std@@QAEXPAHAAH@Z 00448220 f i CommonPathfindingLib:Grid.obj
 0002:00023290       ??$construct@HAAH@?$allocator@H@std@@QAEXPAHAAH@Z 00448290 f i CommonPathfindingLib:Grid.obj
 0002:00023340       ??$construct@HAAH@?$allocator_traits@V?$allocator@H@std@@@std@@SAXAAV?$allocator@H@1@PAHAAH@Z 00448340 f i CommonPathfindingLib:Grid.obj
 0002:000233a0       ??$construct@HABH@?$_Wrap_alloc@V?$allocator@H@std@@@std@@QAEXPAHABH@Z 004483a0 f i CommonPathfindingLib:Grid.obj
 0002:00023410       ??$construct@HABH@?$allocator@H@std@@QAEXPAHABH@Z 00448410 f i CommonPathfindingLib:Grid.obj
 0002:000234c0       ??$construct@HABH@?$allocator_traits@V?$allocator@H@std@@@std@@SAXAAV?$allocator@H@1@PAHABH@Z 004484c0 f i CommonPathfindingLib:Grid.obj
 0002:00023520       ??$forward@AAH@std@@YAAAHAAH@Z 00448520 f i CommonPathfindingLib:Grid.obj
 0002:00023560       ??$forward@AAU?$_Wrap_alloc@V?$allocator@H@std@@@std@@@std@@YAAAU?$_Wrap_alloc@V?$allocator@H@std@@@0@AAU10@@Z 00448560 f i CommonPathfindingLib:Grid.obj
 0002:000235a0       ??$forward@U?$_Wrap_alloc@V?$allocator@H@std@@@std@@@std@@YA$$QAU?$_Wrap_alloc@V?$allocator@H@std@@@0@AAU10@@Z 004485a0 f i CommonPathfindingLib:Grid.obj
 0002:000235e0       ??$forward@V?$vector@HV?$allocator@H@std@@@std@@@std@@YA$$QAV?$vector@HV?$allocator@H@std@@@0@AAV10@@Z 004485e0 f i CommonPathfindingLib:Grid.obj
 0002:00023620       ??$move@AAU?$_Wrap_alloc@V?$allocator@H@std@@@std@@@std@@YA$$QAU?$_Wrap_alloc@V?$allocator@H@std@@@0@AAU10@@Z 00448620 f i CommonPathfindingLib:Grid.obj
 0002:00023660       ??0?$_Vector_alloc@U?$_Vec_base_types@HV?$allocator@H@std@@@std@@@std@@QAE@XZ 00448660 f i CommonPathfindingLib:Grid.obj
 0002:00023710       ??0?$_Vector_val@U?$_Simple_types@H@std@@@std@@QAE@XZ 00448710 f i CommonPathfindingLib:Grid.obj
 0002:00023790       ??0?$_Wrap_alloc@V?$allocator@H@std@@@std@@QAE@$$QAU01@@Z 00448790 f i CommonPathfindingLib:Grid.obj
 0002:00023800       ??0?$_Wrap_alloc@V?$allocator@H@std@@@std@@QAE@XZ 00448800 f i CommonPathfindingLib:Grid.obj
 0002:00023860       ??0?$allocator@H@std@@QAE@ABV01@@Z 00448860 f i CommonPathfindingLib:Grid.obj
 0002:000238a0       ??0?$allocator@H@std@@QAE@XZ 004488a0 f i CommonPathfindingLib:Grid.obj
 0002:000238e0       ??0?$vector@HV?$allocator@H@std@@@std@@QAE@$$QAV01@@Z 004488e0 f i CommonPathfindingLib:Grid.obj
 0002:000239b0       ??0?$vector@HV?$allocator@H@std@@@std@@QAE@XZ 004489b0 f i CommonPathfindingLib:Grid.obj
 0002:00023a40       ??0Grid@@QAE@HHH@Z         00448a40 f   CommonPathfindingLib:Grid.obj
 0002:00023b40       ??1?$_Compressed_pair@U?$_Wrap_alloc@V?$allocator@H@std@@@std@@V?$_Vector_val@U?$_Simple_types@H@std@@@2@$00@std@@QAE@XZ 00448b40 f i CommonPathfindingLib:Grid.obj
 0002:00023b90       ??1?$_Vector_alloc@U?$_Vec_base_types@HV?$allocator@H@std@@@std@@@std@@QAE@XZ 00448b90 f i CommonPathfindingLib:Grid.obj
 0002:00023c20       ??1?$_Vector_val@U?$_Simple_types@H@std@@@std@@QAE@XZ 00448c20 f i CommonPathfindingLib:Grid.obj
 0002:00023c70       ??1?$vector@HV?$allocator@H@std@@@std@@QAE@XZ 00448c70 f i CommonPathfindingLib:Grid.obj
 0002:00023d00       ??1Grid@@QAE@XZ            00448d00 f   CommonPathfindingLib:Grid.obj
 0002:00023d70       ?_Alloc_proxy@?$_Vector_alloc@U?$_Vec_base_types@HV?$allocator@H@std@@@std@@@std@@QAEXXZ 00448d70 f i CommonPathfindingLib:Grid.obj
 0002:00023e70       ?_Assign_rv@?$vector@HV?$allocator@H@std@@@std@@QAEX$$QAV12@U?$integral_constant@_N$00@2@@Z 00448e70 f i CommonPathfindingLib:Grid.obj
 0002:00023f50       ?_Destroy@?$vector@HV?$allocator@H@std@@@std@@IAEXPAH0@Z 00448f50 f i CommonPathfindingLib:Grid.obj
 0002:00023fc0       ?_Free_proxy@?$_Vector_alloc@U?$_Vec_base_types@HV?$allocator@H@std@@@std@@@std@@QAEXXZ 00448fc0 f i CommonPathfindingLib:Grid.obj
 0002:000240b0       ?_Get_data@?$_Vector_alloc@U?$_Vec_base_types@HV?$allocator@H@std@@@std@@@std@@QAEAAV?$_Vector_val@U?$_Simple_types@H@std@@@2@XZ 004490b0 f i CommonPathfindingLib:Grid.obj
 0002:00024100       ?_Get_data@?$_Vector_alloc@U?$_Vec_base_types@HV?$allocator@H@std@@@std@@@std@@QBEABV?$_Vector_val@U?$_Simple_types@H@std@@@2@XZ 00449100 f i CommonPathfindingLib:Grid.obj
 0002:00024150       ?_Get_first@?$_Compressed_pair@U?$_Wrap_alloc@V?$allocator@H@std@@@std@@V?$_Vector_val@U?$_Simple_types@H@std@@@2@$00@std@@QAEAAU?$_Wrap_alloc@V?$allocator@H@std@@@2@XZ 00449150 f i CommonPathfindingLib:Grid.obj
 0002:00024190       ?_Get_first@?$_Compressed_pair@U?$_Wrap_alloc@V?$allocator@H@std@@@std@@V?$_Vector_val@U?$_Simple_types@H@std@@@2@$00@std@@QBEABU?$_Wrap_alloc@V?$allocator@H@std@@@2@XZ 00449190 f i CommonPathfindingLib:Grid.obj
 0002:000241d0       ?_Get_second@?$_Compressed_pair@U?$_Wrap_alloc@V?$allocator@H@std@@@std@@V?$_Vector_val@U?$_Simple_types@H@std@@@2@$00@std@@QAEAAV?$_Vector_val@U?$_Simple_types@H@std@@@2@XZ 004491d0 f i CommonPathfindingLib:Grid.obj
 0002:00024210       ?_Get_second@?$_Compressed_pair@U?$_Wrap_alloc@V?$allocator@H@std@@@std@@V?$_Vector_val@U?$_Simple_types@H@std@@@2@$00@std@@QBEABV?$_Vector_val@U?$_Simple_types@H@std@@@2@XZ 00449210 f i CommonPathfindingLib:Grid.obj
 0002:00024250       ?_Getal@?$_Vector_alloc@U?$_Vec_base_types@HV?$allocator@H@std@@@std@@@std@@QAEAAU?$_Wrap_alloc@V?$allocator@H@std@@@2@XZ 00449250 f i CommonPathfindingLib:Grid.obj
 0002:000242a0       ?_Getal@?$_Vector_alloc@U?$_Vec_base_types@HV?$allocator@H@std@@@std@@@std@@QBEABU?$_Wrap_alloc@V?$allocator@H@std@@@2@XZ 004492a0 f i CommonPathfindingLib:Grid.obj
 0002:000242f0       ?_Getpfirst@?$_Vector_alloc@U?$_Vec_base_types@HV?$allocator@H@std@@@std@@@std@@QBEPAPAU_Iterator_base12@2@XZ 004492f0 f i CommonPathfindingLib:Grid.obj
 0002:00024350       ?_Grow_to@?$vector@HV?$allocator@H@std@@@std@@IBEII@Z 00449350 f i CommonPathfindingLib:Grid.obj
 0002:00024400       ?_Inside@?$vector@HV?$allocator@H@std@@@std@@IBE_NPBH@Z 00449400 f i CommonPathfindingLib:Grid.obj
 0002:000244b0       ?_Myend@?$_Vector_alloc@U?$_Vec_base_types@HV?$allocator@H@std@@@std@@@std@@QAEAAPAHXZ 004494b0 f i CommonPathfindingLib:Grid.obj
 0002:00024510       ?_Myend@?$_Vector_alloc@U?$_Vec_base_types@HV?$allocator@H@std@@@std@@@std@@QBEABQAHXZ 00449510 f i CommonPathfindingLib:Grid.obj
 0002:00024570       ?_Myfirst@?$_Vector_alloc@U?$_Vec_base_types@HV?$allocator@H@std@@@std@@@std@@QAEAAPAHXZ 00449570 f i CommonPathfindingLib:Grid.obj
 0002:000245d0       ?_Myfirst@?$_Vector_alloc@U?$_Vec_base_types@HV?$allocator@H@std@@@std@@@std@@QBEABQAHXZ 004495d0 f i CommonPathfindingLib:Grid.obj
 0002:00024630       ?_Mylast@?$_Vector_alloc@U?$_Vec_base_types@HV?$allocator@H@std@@@std@@@std@@QAEAAPAHXZ 00449630 f i CommonPathfindingLib:Grid.obj
 0002:00024690       ?_Mylast@?$_Vector_alloc@U?$_Vec_base_types@HV?$allocator@H@std@@@std@@@std@@QBEABQAHXZ 00449690 f i CommonPathfindingLib:Grid.obj
 0002:000246f0       ?_Myproxy@?$_Vector_alloc@U?$_Vec_base_types@HV?$allocator@H@std@@@std@@@std@@QAEAAPAU_Container_proxy@2@XZ 004496f0 f i CommonPathfindingLib:Grid.obj
 0002:00024740       ?_Orphan_all@?$_Vector_alloc@U?$_Vec_base_types@HV?$allocator@H@std@@@std@@@std@@QAEXXZ 00449740 f i CommonPathfindingLib:Grid.obj
 0002:000247a0       ?_Orphan_range@?$vector@HV?$allocator@H@std@@@std@@IBEXPAH0@Z 004497a0 f i CommonPathfindingLib:Grid.obj
 0002:00024910       ?_Reallocate@?$vector@HV?$allocator@H@std@@@std@@IAEXI@Z 00449910 f i CommonPathfindingLib:Grid.obj
 0002:00024b00       ?_Reserve@?$vector@HV?$allocator@H@std@@@std@@IAEXI@Z 00449b00 f i CommonPathfindingLib:Grid.obj
 0002:00024bb0       ?_Swap_all@?$_Vector_alloc@U?$_Vec_base_types@HV?$allocator@H@std@@@std@@@std@@QAEXAAV12@@Z 00449bb0 f i CommonPathfindingLib:Grid.obj
 0002:00024c20       ?_Swap_all@_Container_base12@std@@QAEXAAU12@@Z 00449c20 f i CommonPathfindingLib:Grid.obj
 0002:00024d20       ?_Tidy@?$vector@HV?$allocator@H@std@@@std@@IAEXXZ 00449d20 f i CommonPathfindingLib:Grid.obj
 0002:00024e20       ?_Unused_capacity@?$vector@HV?$allocator@H@std@@@std@@QBEIXZ 00449e20 f i CommonPathfindingLib:Grid.obj
 0002:00024e90       ?_Xlen@?$vector@HV?$allocator@H@std@@@std@@IBEXXZ 00449e90 f i CommonPathfindingLib:Grid.obj
 0002:00024ef0       ?allocate@?$_Wrap_alloc@V?$allocator@H@std@@@std@@QAEPAHI@Z 00449ef0 f i CommonPathfindingLib:Grid.obj
 0002:00024f50       ?allocate@?$allocator@H@std@@QAEPAHI@Z 00449f50 f i CommonPathfindingLib:Grid.obj
 0002:00024fb0       ?capacity@?$vector@HV?$allocator@H@std@@@std@@QBEIXZ 00449fb0 f i CommonPathfindingLib:Grid.obj
 0002:00025020       ?deallocate@?$_Wrap_alloc@V?$allocator@H@std@@@std@@QAEXPAHI@Z 0044a020 f i CommonPathfindingLib:Grid.obj
 0002:00025080       ?deallocate@?$allocator@H@std@@QAEXPAHI@Z 0044a080 f i CommonPathfindingLib:Grid.obj
 0002:000250e0       ?getAdjacentIndices@Grid@@QBE?AV?$vector@HV?$allocator@H@std@@@std@@H@Z 0044a0e0 f   CommonPathfindingLib:Grid.obj
 0002:000252c0       ?getSquareIndexFromPixelXY@Grid@@QBEHHH@Z 0044a2c0 f   CommonPathfindingLib:Grid.obj
 0002:00025330       ?getULCornerOfSquare@Grid@@QBE?AVVector2D@@H@Z 0044a330 f   CommonPathfindingLib:Grid.obj
 0002:00025490       ?getValueAtIndex@Grid@@QBEHH@Z 0044a490 f   CommonPathfindingLib:Grid.obj
 0002:00025500       ?getValueAtPixelXY@Grid@@QBEHHH@Z 0044a500 f   CommonPathfindingLib:Grid.obj
 0002:00025570       ?load@Grid@@QAEXAAV?$basic_ifstream@DU?$char_traits@D@std@@@std@@@Z 0044a570 f   CommonPathfindingLib:Grid.obj
 0002:00025620       ?max_size@?$_Wrap_alloc@V?$allocator@H@std@@@std@@QBEIU_Nil@2@@Z 0044a620 f i CommonPathfindingLib:Grid.obj
 0002:00025680       ?max_size@?$allocator@H@std@@QBEIXZ 0044a680 f i CommonPathfindingLib:Grid.obj
 0002:000256c0       ?max_size@?$allocator_traits@V?$allocator@H@std@@@std@@SAIABV?$allocator@H@2@@Z 0044a6c0 f i CommonPathfindingLib:Grid.obj
 0002:00025710       ?max_size@?$vector@HV?$allocator@H@std@@@std@@QBEIXZ 0044a710 f i CommonPathfindingLib:Grid.obj
 0002:00025780       ?push_back@?$vector@HV?$allocator@H@std@@@std@@QAEXABH@Z 0044a780 f i CommonPathfindingLib:Grid.obj
 0002:00025990       ?save@Grid@@QAEXAAV?$basic_ofstream@DU?$char_traits@D@std@@@std@@@Z 0044a990 f   CommonPathfindingLib:Grid.obj
 0002:00025a50       ?setValueAtIndex@Grid@@QAEXHH@Z 0044aa50 f   CommonPathfindingLib:Grid.obj
 0002:00025ac0       ?setValueAtPixelXY@Grid@@QAEXHHH@Z 0044aac0 f   CommonPathfindingLib:Grid.obj
 0002:00025b40       ?size@?$vector@HV?$allocator@H@std@@@std@@QBEIXZ 0044ab40 f i CommonPathfindingLib:Grid.obj
 0002:00025bb0       ??$?0$$V@?$_Compressed_pair@U?$_Wrap_alloc@V?$allocator@U?$_Tree_node@U?$pair@$$CBUALLEGRO_COLOR@@V?$vector@HV?$allocator@H@std@@@std@@@std@@PAX@std@@@std@@@std@@V?$_Tree_val@U?$_Tree_simple_types@U?$pair@$$CBUALLEGRO_COLOR@@V?$vector@HV?$allocator@H@std@@@std@@@std@@@std@@@2@$00@std@@QAE@U_Zero_then_variadic_args_t@1@@Z 0044abb0 f i CommonPathfindingLib:GridVisualizer.obj
 0002:00025c10       ??$?0AAU?$_Wrap_alloc@V?$allocator@U?$_Tree_node@U?$pair@$$CBUALLEGRO_COLOR@@V?$vector@HV?$allocator@H@std@@@std@@@std@@PAX@std@@@std@@@std@@@?$_Wrap_alloc@V?$allocator@U_Container_proxy@std@@@std@@@std@@QAE@AAU?$_Wrap_alloc@V?$allocator@U?$_Tree_node@U?$pair@$$CBUALLEGRO_COLOR@@V?$vector@HV?$allocator@H@std@@@std@@@std@@PAX@std@@@std@@@1@@Z 0044ac10 f i CommonPathfindingLib:GridVisualizer.obj
 0002:00025c80       ??$?0AAV?$_Tree_iterator@V?$_Tree_val@U?$_Tree_simple_types@U?$pair@$$CBUALLEGRO_COLOR@@V?$vector@HV?$allocator@H@std@@@std@@@std@@@std@@@std@@@std@@_NX$0A@@?$pair@V?$_Tree_iterator@V?$_Tree_val@U?$_Tree_simple_types@U?$pair@$$CBUALLEGRO_COLOR@@V?$vector@HV?$allocator@H@std@@@std@@@std@@@std@@@std@@@std@@_N@std@@QAE@AAV?$_Tree_iterator@V?$_Tree_val@U?$_Tree_simple_types@U?$pair@$$CBUALLEGRO_COLOR@@V?$vector@HV?$allocator@H@std@@@std@@@std@@@std@@@std@@@1@$$QA_N@Z 0044ac80 f i CommonPathfindingLib:GridVisualizer.obj
 0002:00025d00       ??$?0ABUALLEGRO_COLOR@@$$Z$$V@?$pair@$$CBUALLEGRO_COLOR@@V?$vector@HV?$allocator@H@std@@@std@@@std@@QAE@Upiecewise_construct_t@1@V?$tuple@ABUALLEGRO_COLOR@@@1@V?$tuple@$$V@1@@Z 0044ad00 f i CommonPathfindingLib:GridVisualizer.obj
 0002:00025d80       ??$?0ABUALLEGRO_COLOR@@$0A@@?$tuple@ABUALLEGRO_COLOR@@@std@@QAE@ABUALLEGRO_COLOR@@@Z 0044ad80 f i CommonPathfindingLib:GridVisualizer.obj
 0002:00025e00       ??$?0ABUALLEGRO_COLOR@@@?$_Tuple_val@ABUALLEGRO_COLOR@@@std@@QAE@ABUALLEGRO_COLOR@@@Z 0044ae00 f i CommonPathfindingLib:GridVisualizer.obj
 0002:00025e60       ??$?0ABVAllegroColorCompare@@U_Zero_then_variadic_args_t@std@@@?$_Compressed_pair@VAllegroColorCompare@@V?$_Compressed_pair@U?$_Wrap_alloc@V?$allocator@U?$_Tree_node@U?$pair@$$CBUALLEGRO_COLOR@@V?$vector@HV?$allocator@H@std@@@std@@@std@@PAX@std@@@std@@@std@@V?$_Tree_val@U?$_Tree_simple_types@U?$pair@$$CBUALLEGRO_COLOR@@V?$vector@HV?$allocator@H@std@@@std@@@std@@@std@@@2@$00@std@@$00@std@@QAE@U_One_then_variadic_args_t@1@ABVAllegroColorCompare@@$$QAU_Zero_then_variadic_args_t@1@@Z 0044ae60 f i CommonPathfindingLib:GridVisualizer.obj
 0002:00025ee0       ??$?0U?$_Tree_node@U?$pair@$$CBUALLEGRO_COLOR@@V?$vector@HV?$allocator@H@std@@@std@@@std@@PAX@std@@@?$allocator@U_Container_proxy@std@@@std@@QAE@ABV?$allocator@U?$_Tree_node@U?$pair@$$CBUALLEGRO_COLOR@@V?$vector@HV?$allocator@H@std@@@std@@@std@@PAX@std@@@1@@Z 0044aee0 f i CommonPathfindingLib:GridVisualizer.obj
 0002:00025f20       ??$?0V?$_Tree_iterator@V?$_Tree_val@U?$_Tree_simple_types@U?$pair@$$CBUALLEGRO_COLOR@@V?$vector@HV?$allocator@H@std@@@std@@@std@@@std@@@std@@@std@@_NX$0A@@?$pair@V?$_Tree_iterator@V?$_Tree_val@U?$_Tree_simple_types@U?$pair@$$CBUALLEGRO_COLOR@@V?$vector@HV?$allocator@H@std@@@std@@@std@@@std@@@std@@@std@@_N@std@@QAE@$$QAV?$_Tree_iterator@V?$_Tree_val@U?$_Tree_simple_types@U?$pair@$$CBUALLEGRO_COLOR@@V?$vector@HV?$allocator@H@std@@@std@@@std@@@std@@@std@@@1@$$QA_N@Z 0044af20 f i CommonPathfindingLib:GridVisualizer.obj
 0002:00025fa0       ??$?0V?$allocator@H@std@@@?$_Wrap_alloc@V?$allocator@H@std@@@std@@QAE@$$QAV?$allocator@H@1@@Z 0044afa0 f i CommonPathfindingLib:GridVisualizer.obj
 0002:00026010       ??$?0V?$tuple@ABUALLEGRO_COLOR@@@std@@V?$tuple@$$V@1@$0A@$$Z$S@?$pair@$$CBUALLEGRO_COLOR@@V?$vector@HV?$allocator@H@std@@@std@@@std@@QAE@AAV?$tuple@ABUALLEGRO_COLOR@@@1@AAV?$tuple@$$V@1@U?$integer_sequence@I$0A@@1@U?$integer_sequence@I$S@1@@Z 0044b010 f i CommonPathfindingLib:GridVisualizer.obj
 0002:000260b0       ??$?8HH@std@@YA_NABV?$allocator@H@0@0@Z 0044b0b0 f i CommonPathfindingLib:GridVisualizer.obj
 0002:000260e0       ??$?8V?$allocator@H@std@@V01@@std@@YA_NABU?$_Wrap_alloc@V?$allocator@H@std@@@0@0@Z 0044b0e0 f i CommonPathfindingLib:GridVisualizer.obj
 0002:00026140       ??$?9V?$allocator@H@std@@V01@@std@@YA_NABU?$_Wrap_alloc@V?$allocator@H@std@@@0@0@Z 0044b140 f i CommonPathfindingLib:GridVisualizer.obj
 0002:000261c0       ??$_Buynode@ABUpiecewise_construct_t@std@@V?$tuple@ABUALLEGRO_COLOR@@@2@V?$tuple@$$V@2@@?$_Tree_comp_alloc@V?$_Tmap_traits@UALLEGRO_COLOR@@V?$vector@HV?$allocator@H@std@@@std@@VAllegroColorCompare@@V?$allocator@U?$pair@$$CBUALLEGRO_COLOR@@V?$vector@HV?$allocator@H@std@@@std@@@std@@@3@$0A@@std@@@std@@QAEPAU?$_Tree_node@U?$pair@$$CBUALLEGRO_COLOR@@V?$vector@HV?$allocator@H@std@@@std@@@std@@PAX@1@ABUpiecewise_construct_t@1@$$QAV?$tuple@ABUALLEGRO_COLOR@@@1@$$QAV?$tuple@$$V@1@@Z 0044b1c0 f i CommonPathfindingLib:GridVisualizer.obj
 0002:00026330       ??$_Buynode_if_nil@AAU?$pair@$$CBUALLEGRO_COLOR@@V?$vector@HV?$allocator@H@std@@@std@@@std@@@?$_Tree@V?$_Tmap_traits@UALLEGRO_COLOR@@V?$vector@HV?$allocator@H@std@@@std@@VAllegroColorCompare@@V?$allocator@U?$pair@$$CBUALLEGRO_COLOR@@V?$vector@HV?$allocator@H@std@@@std@@@std@@@3@$0A@@std@@@std@@IAEPAU?$_Tree_node@U?$pair@$$CBUALLEGRO_COLOR@@V?$vector@HV?$allocator@H@std@@@std@@@std@@PAX@1@PAU21@AAU?$pair@$$CBUALLEGRO_COLOR@@V?$vector@HV?$allocator@H@std@@@std@@@1@@Z 0044b330 f i CommonPathfindingLib:GridVisualizer.obj
 0002:00026370       ??$_Copy_memmove@PBHPAH@std@@YAPAHPBH0PAH@Z 0044b370 f i CommonPathfindingLib:GridVisualizer.obj
 0002:00026400       ??$_Copy_unchecked1@PAHPAH@std@@YAPAHPAH00U_Trivially_copyable_ptr_iterator_tag@0@@Z 0044b400 f i CommonPathfindingLib:GridVisualizer.obj
 0002:00026460       ??$_Copy_unchecked@PAHPAH@std@@YAPAHPAH00@Z 0044b460 f i CommonPathfindingLib:GridVisualizer.obj
 0002:000264e0       ??$_Debug_lt_pred@AAVAllegroColorCompare@@ABUALLEGRO_COLOR@@ABU2@@std@@YA_NAAVAllegroColorCompare@@ABUALLEGRO_COLOR@@1PB_WI@Z 0044b4e0 f i CommonPathfindingLib:GridVisualizer.obj
 0002:000265c0       ??$_Debug_lt_pred@ABVAllegroColorCompare@@ABUALLEGRO_COLOR@@ABU2@@std@@YA_NABVAllegroColorCompare@@ABUALLEGRO_COLOR@@1PB_WI@Z 0044b5c0 f i CommonPathfindingLib:GridVisualizer.obj
 0002:000266a0       ??$_Insert_at@AAU?$pair@$$CBUALLEGRO_COLOR@@V?$vector@HV?$allocator@H@std@@@std@@@std@@PAU?$_Tree_node@U?$pair@$$CBUALLEGRO_COLOR@@V?$vector@HV?$allocator@H@std@@@std@@@std@@PAX@2@@?$_Tree@V?$_Tmap_traits@UALLEGRO_COLOR@@V?$vector@HV?$allocator@H@std@@@std@@VAllegroColorCompare@@V?$allocator@U?$pair@$$CBUALLEGRO_COLOR@@V?$vector@HV?$allocator@H@std@@@std@@@std@@@3@$0A@@std@@@std@@IAE?AV?$_Tree_iterator@V?$_Tree_val@U?$_Tree_simple_types@U?$pair@$$CBUALLEGRO_COLOR@@V?$vector@HV?$allocator@H@std@@@std@@@std@@@std@@@std@@@1@_NPAU?$_Tree_node@U?$pair@$$CBUALLEGRO_COLOR@@V?$vector@HV?$allocator@H@std@@@std@@@std@@PAX@1@AAU?$pair@$$CBUALLEGRO_COLOR@@V?$vector@HV?$allocator@H@std@@@std@@@1@1@Z 0044b6a0 f i CommonPathfindingLib:GridVisualizer.obj
 0002:00026c60       ??$_Insert_hint@AAU?$pair@$$CBUALLEGRO_COLOR@@V?$vector@HV?$allocator@H@std@@@std@@@std@@PAU?$_Tree_node@U?$pair@$$CBUALLEGRO_COLOR@@V?$vector@HV?$allocator@H@std@@@std@@@std@@PAX@2@@?$_Tree@V?$_Tmap_traits@UALLEGRO_COLOR@@V?$vector@HV?$allocator@H@std@@@std@@VAllegroColorCompare@@V?$allocator@U?$pair@$$CBUALLEGRO_COLOR@@V?$vector@HV?$allocator@H@std@@@std@@@std@@@3@$0A@@std@@@std@@IAE?AV?$_Tree_iterator@V?$_Tree_val@U?$_Tree_simple_types@U?$pair@$$CBUALLEGRO_COLOR@@V?$vector@HV?$allocator@H@std@@@std@@@std@@@std@@@std@@@1@V?$_Tree_const_iterator@V?$_Tree_val@U?$_Tree_simple_types@U?$pair@$$CBUALLEGRO_COLOR@@V?$vector@HV?$allocator@H@std@@@std@@@std@@@std@@@std@@@1@AAU?$pair@$$CBUALLEGRO_COLOR@@V?$vector@HV?$allocator@H@std@@@std@@@1@PAU?$_Tree_node@U?$pair@$$CBUALLEGRO_COLOR@@V?$vector@HV?$allocator@H@std@@@std@@@std@@PAX@1@@Z 0044bc60 f i CommonPathfindingLib:GridVisualizer.obj
 0002:000281b0       ??$_Insert_nohint@AAU?$pair@$$CBUALLEGRO_COLOR@@V?$vector@HV?$allocator@H@std@@@std@@@std@@PAU?$_Tree_node@U?$pair@$$CBUALLEGRO_COLOR@@V?$vector@HV?$allocator@H@std@@@std@@@std@@PAX@2@@?$_Tree@V?$_Tmap_traits@UALLEGRO_COLOR@@V?$vector@HV?$allocator@H@std@@@std@@VAllegroColorCompare@@V?$allocator@U?$pair@$$CBUALLEGRO_COLOR@@V?$vector@HV?$allocator@H@std@@@std@@@std@@@3@$0A@@std@@@std@@IAE?AU?$pair@V?$_Tree_iterator@V?$_Tree_val@U?$_Tree_simple_types@U?$pair@$$CBUALLEGRO_COLOR@@V?$vector@HV?$allocator@H@std@@@std@@@std@@@std@@@std@@@std@@_N@1@_NAAU?$pair@$$CBUALLEGRO_COLOR@@V?$vector@HV?$allocator@H@std@@@std@@@1@PAU?$_Tree_node@U?$pair@$$CBUALLEGRO_COLOR@@V?$vector@HV?$allocator@H@std@@@std@@@std@@PAX@1@@Z 0044d1b0 f i CommonPathfindingLib:GridVisualizer.obj
 0002:00028880       ??$_Kfn@$$CBUALLEGRO_COLOR@@V?$vector@HV?$allocator@H@std@@@std@@@?$_Tmap_traits@UALLEGRO_COLOR@@V?$vector@HV?$allocator@H@std@@@std@@VAllegroColorCompare@@V?$allocator@U?$pair@$$CBUALLEGRO_COLOR@@V?$vector@HV?$allocator@H@std@@@std@@@std@@@3@$0A@@std@@SAABUALLEGRO_COLOR@@ABU?$pair@$$CBUALLEGRO_COLOR@@V?$vector@HV?$allocator@H@std@@@std@@@1@@Z 0044d880 f i CommonPathfindingLib:GridVisualizer.obj
 0002:000288c0       ??$_Lbound@UALLEGRO_COLOR@@@?$_Tree@V?$_Tmap_traits@UALLEGRO_COLOR@@V?$vector@HV?$allocator@H@std@@@std@@VAllegroColorCompare@@V?$allocator@U?$pair@$$CBUALLEGRO_COLOR@@V?$vector@HV?$allocator@H@std@@@std@@@std@@@3@$0A@@std@@@std@@IBEPAU?$_Tree_node@U?$pair@$$CBUALLEGRO_COLOR@@V?$vector@HV?$allocator@H@std@@@std@@@std@@PAX@1@ABUALLEGRO_COLOR@@@Z 0044d8c0 f i CommonPathfindingLib:GridVisualizer.obj
 0002:000289b0       ??$_Pocca@U?$_Wrap_alloc@V?$allocator@H@std@@@std@@@std@@YAXAAU?$_Wrap_alloc@V?$allocator@H@std@@@0@ABU10@@Z 0044d9b0 f i CommonPathfindingLib:GridVisualizer.obj
 0002:00028a40       ??$_Pocca@U?$_Wrap_alloc@V?$allocator@H@std@@@std@@@std@@YAXAAU?$_Wrap_alloc@V?$allocator@H@std@@@0@ABU10@U?$integral_constant@_N$0A@@0@@Z 0044da40 f i CommonPathfindingLib:GridVisualizer.obj
 0002:00028a70       ??$_Ptr_copy_cat@$$CBHH@std@@YA?AU_Really_trivial_ptr_iterator_tag@0@ABQBHABQAH@Z 0044da70 f i CommonPathfindingLib:GridVisualizer.obj
 0002:00028ab0       ??$_Ptr_copy_cat@HH@std@@YA?AU_Really_trivial_ptr_iterator_tag@0@ABQAH0@Z 0044dab0 f i CommonPathfindingLib:GridVisualizer.obj
 0002:00028af0       ??$_Try_emplace@ABUALLEGRO_COLOR@@$$V@?$map@UALLEGRO_COLOR@@V?$vector@HV?$allocator@H@std@@@std@@VAllegroColorCompare@@V?$allocator@U?$pair@$$CBUALLEGRO_COLOR@@V?$vector@HV?$allocator@H@std@@@std@@@std@@@3@@std@@QAE?AU?$pair@V?$_Tree_iterator@V?$_Tree_val@U?$_Tree_simple_types@U?$pair@$$CBUALLEGRO_COLOR@@V?$vector@HV?$allocator@H@std@@@std@@@std@@@std@@@std@@@std@@_N@1@ABUALLEGRO_COLOR@@@Z 0044daf0 f i CommonPathfindingLib:GridVisualizer.obj
 0002:00028e40       ??$_Ucopy@PAH@?$vector@HV?$allocator@H@std@@@std@@IAEPAHPAH00@Z 0044de40 f i CommonPathfindingLib:GridVisualizer.obj
 0002:00028eb0       ??$_Ucopy@V?$_Vector_const_iterator@V?$_Vector_val@U?$_Simple_types@H@std@@@std@@@std@@@?$vector@HV?$allocator@H@std@@@std@@IAEPAHV?$_Vector_const_iterator@V?$_Vector_val@U?$_Simple_types@H@std@@@std@@@1@0PAH@Z 0044deb0 f i CommonPathfindingLib:GridVisualizer.obj
 0002:00028ff0       ??$_Unchecked@V?$_Vector_val@U?$_Simple_types@H@std@@@std@@@std@@YAPBHV?$_Vector_const_iterator@V?$_Vector_val@U?$_Simple_types@H@std@@@std@@@0@@Z 0044dff0 f i CommonPathfindingLib:GridVisualizer.obj
 0002:000290a0       ??$_Uninitialized_copy@PAHPAHV?$allocator@H@std@@@std@@YAPAHPAH00AAU?$_Wrap_alloc@V?$allocator@H@std@@@0@@Z 0044e0a0 f i CommonPathfindingLib:GridVisualizer.obj
 0002:00029140       ??$_Uninitialized_copy@V?$_Vector_const_iterator@V?$_Vector_val@U?$_Simple_types@H@std@@@std@@@std@@PAHV?$allocator@H@2@@std@@YAPAHV?$_Vector_const_iterator@V?$_Vector_val@U?$_Simple_types@H@std@@@std@@@0@0PAHAAU?$_Wrap_alloc@V?$allocator@H@std@@@0@@Z 0044e140 f i CommonPathfindingLib:GridVisualizer.obj
 0002:000292b0       ??$_Uninitialized_copy_al_unchecked1@$$CBHHV?$allocator@H@std@@@std@@YAPAHPBH0PAHAAU?$_Wrap_alloc@V?$allocator@H@std@@@0@U_Really_trivial_ptr_iterator_tag@0@U?$integral_constant@_N$00@0@@Z 0044e2b0 f i CommonPathfindingLib:GridVisualizer.obj
 0002:00029310       ??$_Uninitialized_copy_al_unchecked1@HHV?$allocator@H@std@@@std@@YAPAHPAH00AAU?$_Wrap_alloc@V?$allocator@H@std@@@0@U_Really_trivial_ptr_iterator_tag@0@U?$integral_constant@_N$00@0@@Z 0044e310 f i CommonPathfindingLib:GridVisualizer.obj
 0002:00029370       ??$_Uninitialized_copy_al_unchecked@PAHPAHV?$allocator@H@std@@@std@@YAPAHPAH00AAU?$_Wrap_alloc@V?$allocator@H@std@@@0@@Z 0044e370 f i CommonPathfindingLib:GridVisualizer.obj
 0002:00029400       ??$_Uninitialized_copy_al_unchecked@PBHPAHV?$allocator@H@std@@@std@@YAPAHPBH0PAHAAU?$_Wrap_alloc@V?$allocator@H@std@@@0@@Z 0044e400 f i CommonPathfindingLib:GridVisualizer.obj
 0002:00029490       ??$addressof@PAU?$_Tree_node@U?$pair@$$CBUALLEGRO_COLOR@@V?$vector@HV?$allocator@H@std@@@std@@@std@@PAX@std@@@std@@YAPAPAU?$_Tree_node@U?$pair@$$CBUALLEGRO_COLOR@@V?$vector@HV?$allocator@H@std@@@std@@@std@@PAX@0@AAPAU10@@Z 0044e490 f i CommonPathfindingLib:GridVisualizer.obj
 0002:000294d0       ??$addressof@U?$pair@$$CBUALLEGRO_COLOR@@V?$vector@HV?$allocator@H@std@@@std@@@std@@@std@@YAPAU?$pair@$$CBUALLEGRO_COLOR@@V?$vector@HV?$allocator@H@std@@@std@@@0@AAU10@@Z 0044e4d0 f i CommonPathfindingLib:GridVisualizer.obj
 0002:00029510       ??$construct@PAU?$_Tree_node@U?$pair@$$CBUALLEGRO_COLOR@@V?$vector@HV?$allocator@H@std@@@std@@@std@@PAX@std@@AAPAU12@@?$_Wrap_alloc@V?$allocator@U?$_Tree_node@U?$pair@$$CBUALLEGRO_COLOR@@V?$vector@HV?$allocator@H@std@@@std@@@std@@PAX@std@@@std@@@std@@QAEXPAPAU?$_Tree_node@U?$pair@$$CBUALLEGRO_COLOR@@V?$vector@HV?$allocator@H@std@@@std@@@std@@PAX@1@AAPAU21@@Z 0044e510 f i CommonPathfindingLib:GridVisualizer.obj
 0002:00029580       ??$construct@PAU?$_Tree_node@U?$pair@$$CBUALLEGRO_COLOR@@V?$vector@HV?$allocator@H@std@@@std@@@std@@PAX@std@@AAPAU12@@?$allocator@U?$_Tree_node@U?$pair@$$CBUALLEGRO_COLOR@@V?$vector@HV?$allocator@H@std@@@std@@@std@@PAX@std@@@std@@QAEXPAPAU?$_Tree_node@U?$pair@$$CBUALLEGRO_COLOR@@V?$vector@HV?$allocator@H@std@@@std@@@std@@PAX@1@AAPAU21@@Z 0044e580 f i CommonPathfindingLib:GridVisualizer.obj
 0002:00029630       ??$construct@PAU?$_Tree_node@U?$pair@$$CBUALLEGRO_COLOR@@V?$vector@HV?$allocator@H@std@@@std@@@std@@PAX@std@@AAPAU12@@?$allocator_traits@V?$allocator@U?$_Tree_node@U?$pair@$$CBUALLEGRO_COLOR@@V?$vector@HV?$allocator@H@std@@@std@@@std@@PAX@std@@@std@@@std@@SAXAAV?$allocator@U?$_Tree_node@U?$pair@$$CBUALLEGRO_COLOR@@V?$vector@HV?$allocator@H@std@@@std@@@std@@PAX@std@@@1@PAPAU?$_Tree_node@U?$pair@$$CBUALLEGRO_COLOR@@V?$vector@HV?$allocator@H@std@@@std@@@std@@PAX@1@AAPAU31@@Z 0044e630 f i CommonPathfindingLib:GridVisualizer.obj
 0002:00029690       ??$construct@U?$pair@$$CBUALLEGRO_COLOR@@V?$vector@HV?$allocator@H@std@@@std@@@std@@ABUpiecewise_construct_t@2@V?$tuple@ABUALLEGRO_COLOR@@@2@V?$tuple@$$V@2@@?$_Wrap_alloc@V?$allocator@U?$_Tree_node@U?$pair@$$CBUALLEGRO_COLOR@@V?$vector@HV?$allocator@H@std@@@std@@@std@@PAX@std@@@std@@@std@@QAEXPAU?$pair@$$CBUALLEGRO_COLOR@@V?$vector@HV?$allocator@H@std@@@std@@@1@ABUpiecewise_construct_t@1@$$QAV?$tuple@ABUALLEGRO_COLOR@@@1@$$QAV?$tuple@$$V@1@@Z 0044e690 f i CommonPathfindingLib:GridVisualizer.obj
 0002:00029720       ??$construct@U?$pair@$$CBUALLEGRO_COLOR@@V?$vector@HV?$allocator@H@std@@@std@@@std@@ABUpiecewise_construct_t@2@V?$tuple@ABUALLEGRO_COLOR@@@2@V?$tuple@$$V@2@@?$allocator@U?$_Tree_node@U?$pair@$$CBUALLEGRO_COLOR@@V?$vector@HV?$allocator@H@std@@@std@@@std@@PAX@std@@@std@@QAEXPAU?$pair@$$CBUALLEGRO_COLOR@@V?$vector@HV?$allocator@H@std@@@std@@@1@ABUpiecewise_construct_t@1@$$QAV?$tuple@ABUALLEGRO_COLOR@@@1@$$QAV?$tuple@$$V@1@@Z 0044e720 f i CommonPathfindingLib:GridVisualizer.obj
 0002:00029860       ??$construct@U?$pair@$$CBUALLEGRO_COLOR@@V?$vector@HV?$allocator@H@std@@@std@@@std@@ABUpiecewise_construct_t@2@V?$tuple@ABUALLEGRO_COLOR@@@2@V?$tuple@$$V@2@@?$allocator_traits@V?$allocator@U?$_Tree_node@U?$pair@$$CBUALLEGRO_COLOR@@V?$vector@HV?$allocator@H@std@@@std@@@std@@PAX@std@@@std@@@std@@SAXAAV?$allocator@U?$_Tree_node@U?$pair@$$CBUALLEGRO_COLOR@@V?$vector@HV?$allocator@H@std@@@std@@@std@@PAX@std@@@1@PAU?$pair@$$CBUALLEGRO_COLOR@@V?$vector@HV?$allocator@H@std@@@std@@@1@ABUpiecewise_construct_t@1@$$QAV?$tuple@ABUALLEGRO_COLOR@@@1@$$QAV?$tuple@$$V@1@@Z 0044e860 f i CommonPathfindingLib:GridVisualizer.obj
 0002:000298e0       ??$destroy@PAU?$_Tree_node@U?$pair@$$CBUALLEGRO_COLOR@@V?$vector@HV?$allocator@H@std@@@std@@@std@@PAX@std@@@?$_Wrap_alloc@V?$allocator@U?$_Tree_node@U?$pair@$$CBUALLEGRO_COLOR@@V?$vector@HV?$allocator@H@std@@@std@@@std@@PAX@std@@@std@@@std@@QAEXPAPAU?$_Tree_node@U?$pair@$$CBUALLEGRO_COLOR@@V?$vector@HV?$allocator@H@std@@@std@@@std@@PAX@1@@Z 0044e8e0 f i CommonPathfindingLib:GridVisualizer.obj
 0002:00029940       ??$destroy@PAU?$_Tree_node@U?$pair@$$CBUALLEGRO_COLOR@@V?$vector@HV?$allocator@H@std@@@std@@@std@@PAX@std@@@?$allocator@U?$_Tree_node@U?$pair@$$CBUALLEGRO_COLOR@@V?$vector@HV?$allocator@H@std@@@std@@@std@@PAX@std@@@std@@QAEXPAPAU?$_Tree_node@U?$pair@$$CBUALLEGRO_COLOR@@V?$vector@HV?$allocator@H@std@@@std@@@std@@PAX@1@@Z 0044e940 f i CommonPathfindingLib:GridVisualizer.obj
 0002:00029980       ??$destroy@PAU?$_Tree_node@U?$pair@$$CBUALLEGRO_COLOR@@V?$vector@HV?$allocator@H@std@@@std@@@std@@PAX@std@@@?$allocator_traits@V?$allocator@U?$_Tree_node@U?$pair@$$CBUALLEGRO_COLOR@@V?$vector@HV?$allocator@H@std@@@std@@@std@@PAX@std@@@std@@@std@@SAXAAV?$allocator@U?$_Tree_node@U?$pair@$$CBUALLEGRO_COLOR@@V?$vector@HV?$allocator@H@std@@@std@@@std@@PAX@std@@@1@PAPAU?$_Tree_node@U?$pair@$$CBUALLEGRO_COLOR@@V?$vector@HV?$allocator@H@std@@@std@@@std@@PAX@1@@Z 0044e980 f i CommonPathfindingLib:GridVisualizer.obj
 0002:000299d0       ??$destroy@U?$pair@$$CBUALLEGRO_COLOR@@V?$vector@HV?$allocator@H@std@@@std@@@std@@@?$_Wrap_alloc@V?$allocator@U?$_Tree_node@U?$pair@$$CBUALLEGRO_COLOR@@V?$vector@HV?$allocator@H@std@@@std@@@std@@PAX@std@@@std@@@std@@QAEXPAU?$pair@$$CBUALLEGRO_COLOR@@V?$vector@HV?$allocator@H@std@@@std@@@1@@Z 0044e9d0 f i CommonPathfindingLib:GridVisualizer.obj
 0002:00029a30       ??$destroy@U?$pair@$$CBUALLEGRO_COLOR@@V?$vector@HV?$allocator@H@std@@@std@@@std@@@?$allocator@U?$_Tree_node@U?$pair@$$CBUALLEGRO_COLOR@@V?$vector@HV?$allocator@H@std@@@std@@@std@@PAX@std@@@std@@QAEXPAU?$pair@$$CBUALLEGRO_COLOR@@V?$vector@HV?$allocator@H@std@@@std@@@1@@Z 0044ea30 f i CommonPathfindingLib:GridVisualizer.obj
 0002:00029a90       ??$destroy@U?$pair@$$CBUALLEGRO_COLOR@@V?$vector@HV?$allocator@H@std@@@std@@@std@@@?$allocator_traits@V?$allocator@U?$_Tree_node@U?$pair@$$CBUALLEGRO_COLOR@@V?$vector@HV?$allocator@H@std@@@std@@@std@@PAX@std@@@std@@@std@@SAXAAV?$allocator@U?$_Tree_node@U?$pair@$$CBUALLEGRO_COLOR@@V?$vector@HV?$allocator@H@std@@@std@@@std@@PAX@std@@@1@PAU?$pair@$$CBUALLEGRO_COLOR@@V?$vector@HV?$allocator@H@std@@@std@@@1@@Z 0044ea90 f i CommonPathfindingLib:GridVisualizer.obj
 0002:00029ae0       ??$emplace_hint@ABUpiecewise_construct_t@std@@V?$tuple@ABUALLEGRO_COLOR@@@2@V?$tuple@$$V@2@@?$_Tree@V?$_Tmap_traits@UALLEGRO_COLOR@@V?$vector@HV?$allocator@H@std@@@std@@VAllegroColorCompare@@V?$allocator@U?$pair@$$CBUALLEGRO_COLOR@@V?$vector@HV?$allocator@H@std@@@std@@@std@@@3@$0A@@std@@@std@@QAE?AV?$_Tree_iterator@V?$_Tree_val@U?$_Tree_simple_types@U?$pair@$$CBUALLEGRO_COLOR@@V?$vector@HV?$allocator@H@std@@@std@@@std@@@std@@@std@@@1@V?$_Tree_const_iterator@V?$_Tree_val@U?$_Tree_simple_types@U?$pair@$$CBUALLEGRO_COLOR@@V?$vector@HV?$allocator@H@std@@@std@@@std@@@std@@@std@@@1@ABUpiecewise_construct_t@1@$$QAV?$tuple@ABUALLEGRO_COLOR@@@1@$$QAV?$tuple@$$V@1@@Z 0044eae0 f i CommonPathfindingLib:GridVisualizer.obj
 0002:00029c30       ??$forward@AAPAU?$_Tree_node@U?$pair@$$CBUALLEGRO_COLOR@@V?$vector@HV?$allocator@H@std@@@std@@@std@@PAX@std@@@std@@YAAAPAU?$_Tree_node@U?$pair@$$CBUALLEGRO_COLOR@@V?$vector@HV?$allocator@H@std@@@std@@@std@@PAX@0@AAPAU10@@Z 0044ec30 f i CommonPathfindingLib:GridVisualizer.obj
 0002:00029c70       ??$forward@AAU?$_Wrap_alloc@V?$allocator@U?$_Tree_node@U?$pair@$$CBUALLEGRO_COLOR@@V?$vector@HV?$allocator@H@std@@@std@@@std@@PAX@std@@@std@@@std@@@std@@YAAAU?$_Wrap_alloc@V?$allocator@U?$_Tree_node@U?$pair@$$CBUALLEGRO_COLOR@@V?$vector@HV?$allocator@H@std@@@std@@@std@@PAX@std@@@std@@@0@AAU10@@Z 0044ec70 f i CommonPathfindingLib:GridVisualizer.obj
 0002:00029cb0       ??$forward@AAU?$pair@$$CBUALLEGRO_COLOR@@V?$vector@HV?$allocator@H@std@@@std@@@std@@@std@@YAAAU?$pair@$$CBUALLEGRO_COLOR@@V?$vector@HV?$allocator@H@std@@@std@@@0@AAU10@@Z 0044ecb0 f i CommonPathfindingLib:GridVisualizer.obj
 0002:00029cf0       ??$forward@AAV?$_Tree_iterator@V?$_Tree_val@U?$_Tree_simple_types@U?$pair@$$CBUALLEGRO_COLOR@@V?$vector@HV?$allocator@H@std@@@std@@@std@@@std@@@std@@@std@@@std@@YAAAV?$_Tree_iterator@V?$_Tree_val@U?$_Tree_simple_types@U?$pair@$$CBUALLEGRO_COLOR@@V?$vector@HV?$allocator@H@std@@@std@@@std@@@std@@@std@@@0@AAV10@@Z 0044ecf0 f i CommonPathfindingLib:GridVisualizer.obj
 0002:00029d30       ??$forward@ABUALLEGRO_COLOR@@@std@@YAABUALLEGRO_COLOR@@ABU1@@Z 0044ed30 f i CommonPathfindingLib:GridVisualizer.obj
 0002:00029d70       ??$forward@ABVAllegroColorCompare@@@std@@YAABVAllegroColorCompare@@ABV1@@Z 0044ed70 f i CommonPathfindingLib:GridVisualizer.obj
 0002:00029db0       ??$forward@V?$_Tree_iterator@V?$_Tree_val@U?$_Tree_simple_types@U?$pair@$$CBUALLEGRO_COLOR@@V?$vector@HV?$allocator@H@std@@@std@@@std@@@std@@@std@@@std@@@std@@YA$$QAV?$_Tree_iterator@V?$_Tree_val@U?$_Tree_simple_types@U?$pair@$$CBUALLEGRO_COLOR@@V?$vector@HV?$allocator@H@std@@@std@@@std@@@std@@@std@@@0@AAV10@@Z 0044edb0 f i CommonPathfindingLib:GridVisualizer.obj
 0002:00029df0       ??$forward@V?$allocator@H@std@@@std@@YA$$QAV?$allocator@H@0@AAV10@@Z 0044edf0 f i CommonPathfindingLib:GridVisualizer.obj
 0002:00029e30       ??$forward@V?$tuple@ABUALLEGRO_COLOR@@@std@@@std@@YA$$QAV?$tuple@ABUALLEGRO_COLOR@@@0@AAV10@@Z 0044ee30 f i CommonPathfindingLib:GridVisualizer.obj
 0002:00029e70       ??$forward_as_tuple@ABUALLEGRO_COLOR@@@std@@YA?AV?$tuple@ABUALLEGRO_COLOR@@@0@ABUALLEGRO_COLOR@@@Z 0044ee70 f i CommonPathfindingLib:GridVisualizer.obj
 0002:00029f10       ??$get@$0A@ABUALLEGRO_COLOR@@@std@@YAABUALLEGRO_COLOR@@$$QAV?$tuple@ABUALLEGRO_COLOR@@@0@@Z 0044ef10 f i CommonPathfindingLib:GridVisualizer.obj
 0002:00029f60       ??$move@AAV?$tuple@ABUALLEGRO_COLOR@@@std@@@std@@YA$$QAV?$tuple@ABUALLEGRO_COLOR@@@0@AAV10@@Z 0044ef60 f i CommonPathfindingLib:GridVisualizer.obj
 0002:00029fa0       ??$try_emplace@$$V@?$map@UALLEGRO_COLOR@@V?$vector@HV?$allocator@H@std@@@std@@VAllegroColorCompare@@V?$allocator@U?$pair@$$CBUALLEGRO_COLOR@@V?$vector@HV?$allocator@H@std@@@std@@@std@@@3@@std@@QAE?AU?$pair@V?$_Tree_iterator@V?$_Tree_val@U?$_Tree_simple_types@U?$pair@$$CBUALLEGRO_COLOR@@V?$vector@HV?$allocator@H@std@@@std@@@std@@@std@@@std@@@std@@_N@1@ABUALLEGRO_COLOR@@@Z 0044efa0 f i CommonPathfindingLib:GridVisualizer.obj
 0002:0002a020       ??0?$_Iterator012@Ubidirectional_iterator_tag@std@@U?$pair@$$CBUALLEGRO_COLOR@@V?$vector@HV?$allocator@H@std@@@std@@@2@HPBU32@ABU32@U_Iterator_base12@2@@std@@QAE@$$QAU01@@Z 0044f020 f i CommonPathfindingLib:GridVisualizer.obj
 0002:0002a080       ??0?$_Iterator012@Ubidirectional_iterator_tag@std@@U?$pair@$$CBUALLEGRO_COLOR@@V?$vector@HV?$allocator@H@std@@@std@@@2@HPBU32@ABU32@U_Iterator_base12@2@@std@@QAE@ABU01@@Z 0044f080 f i CommonPathfindingLib:GridVisualizer.obj
 0002:0002a0e0       ??0?$_Iterator012@Ubidirectional_iterator_tag@std@@U?$pair@$$CBUALLEGRO_COLOR@@V?$vector@HV?$allocator@H@std@@@std@@@2@HPBU32@ABU32@U_Iterator_base12@2@@std@@QAE@XZ 0044f0e0 f i CommonPathfindingLib:GridVisualizer.obj
 0002:0002a140       ??0?$_Iterator012@Urandom_access_iterator_tag@std@@HHPBHABHU_Iterator_base12@2@@std@@QAE@ABU01@@Z 0044f140 f i CommonPathfindingLib:GridVisualizer.obj
 0002:0002a1a0       ??0?$_Iterator012@Urandom_access_iterator_tag@std@@HHPBHABHU_Iterator_base12@2@@std@@QAE@XZ 0044f1a0 f i CommonPathfindingLib:GridVisualizer.obj
 0002:0002a200       ??0?$_Tree@V?$_Tmap_traits@UALLEGRO_COLOR@@V?$vector@HV?$allocator@H@std@@@std@@VAllegroColorCompare@@V?$allocator@U?$pair@$$CBUALLEGRO_COLOR@@V?$vector@HV?$allocator@H@std@@@std@@@std@@@3@$0A@@std@@@std@@QAE@ABVAllegroColorCompare@@@Z 0044f200 f i CommonPathfindingLib:GridVisualizer.obj
 0002:0002a260       ??0?$_Tree_comp_alloc@V?$_Tmap_traits@UALLEGRO_COLOR@@V?$vector@HV?$allocator@H@std@@@std@@VAllegroColorCompare@@V?$allocator@U?$pair@$$CBUALLEGRO_COLOR@@V?$vector@HV?$allocator@H@std@@@std@@@std@@@3@$0A@@std@@@std@@QAE@ABVAllegroColorCompare@@@Z 0044f260 f i CommonPathfindingLib:GridVisualizer.obj
 0002:0002a320       ??0?$_Tree_const_iterator@V?$_Tree_val@U?$_Tree_simple_types@U?$pair@$$CBUALLEGRO_COLOR@@V?$vector@HV?$allocator@H@std@@@std@@@std@@@std@@@std@@@std@@QAE@$$QAV01@@Z 0044f320 f i CommonPathfindingLib:GridVisualizer.obj
 0002:0002a380       ??0?$_Tree_const_iterator@V?$_Tree_val@U?$_Tree_simple_types@U?$pair@$$CBUALLEGRO_COLOR@@V?$vector@HV?$allocator@H@std@@@std@@@std@@@std@@@std@@@std@@QAE@ABV01@@Z 0044f380 f i CommonPathfindingLib:GridVisualizer.obj
 0002:0002a3e0       ??0?$_Tree_const_iterator@V?$_Tree_val@U?$_Tree_simple_types@U?$pair@$$CBUALLEGRO_COLOR@@V?$vector@HV?$allocator@H@std@@@std@@@std@@@std@@@std@@@std@@QAE@PAU?$_Tree_node@U?$pair@$$CBUALLEGRO_COLOR@@V?$vector@HV?$allocator@H@std@@@std@@@std@@PAX@1@PBV?$_Tree_val@U?$_Tree_simple_types@U?$pair@$$CBUALLEGRO_COLOR@@V?$vector@HV?$allocator@H@std@@@std@@@std@@@std@@@1@@Z 0044f3e0 f i CommonPathfindingLib:GridVisualizer.obj
 0002:0002a440       ??0?$_Tree_const_iterator@V?$_Tree_val@U?$_Tree_simple_types@U?$pair@$$CBUALLEGRO_COLOR@@V?$vector@HV?$allocator@H@std@@@std@@@std@@@std@@@std@@@std@@QAE@XZ 0044f440 f i CommonPathfindingLib:GridVisualizer.obj
 0002:0002a4a0       ??0?$_Tree_iterator@V?$_Tree_val@U?$_Tree_simple_types@U?$pair@$$CBUALLEGRO_COLOR@@V?$vector@HV?$allocator@H@std@@@std@@@std@@@std@@@std@@@std@@QAE@$$QAV01@@Z 0044f4a0 f i CommonPathfindingLib:GridVisualizer.obj
 0002:0002a500       ??0?$_Tree_iterator@V?$_Tree_val@U?$_Tree_simple_types@U?$pair@$$CBUALLEGRO_COLOR@@V?$vector@HV?$allocator@H@std@@@std@@@std@@@std@@@std@@@std@@QAE@ABV01@@Z 0044f500 f i CommonPathfindingLib:GridVisualizer.obj
 0002:0002a560       ??0?$_Tree_iterator@V?$_Tree_val@U?$_Tree_simple_types@U?$pair@$$CBUALLEGRO_COLOR@@V?$vector@HV?$allocator@H@std@@@std@@@std@@@std@@@std@@@std@@QAE@PAU?$_Tree_node@U?$pair@$$CBUALLEGRO_COLOR@@V?$vector@HV?$allocator@H@std@@@std@@@std@@PAX@1@PBV?$_Tree_val@U?$_Tree_simple_types@U?$pair@$$CBUALLEGRO_COLOR@@V?$vector@HV?$allocator@H@std@@@std@@@std@@@std@@@1@@Z 0044f560 f i CommonPathfindingLib:GridVisualizer.obj
 0002:0002a5c0       ??0?$_Tree_iterator@V?$_Tree_val@U?$_Tree_simple_types@U?$pair@$$CBUALLEGRO_COLOR@@V?$vector@HV?$allocator@H@std@@@std@@@std@@@std@@@std@@@std@@QAE@XZ 0044f5c0 f i CommonPathfindingLib:GridVisualizer.obj
 0002:0002a620       ??0?$_Tree_unchecked_const_iterator@V?$_Tree_val@U?$_Tree_simple_types@U?$pair@$$CBUALLEGRO_COLOR@@V?$vector@HV?$allocator@H@std@@@std@@@std@@@std@@@std@@U_Iterator_base12@2@@std@@QAE@$$QAV01@@Z 0044f620 f i CommonPathfindingLib:GridVisualizer.obj
 0002:0002a690       ??0?$_Tree_unchecked_const_iterator@V?$_Tree_val@U?$_Tree_simple_types@U?$pair@$$CBUALLEGRO_COLOR@@V?$vector@HV?$allocator@H@std@@@std@@@std@@@std@@@std@@U_Iterator_base12@2@@std@@QAE@ABV01@@Z 0044f690 f i CommonPathfindingLib:GridVisualizer.obj
 0002:0002a700       ??0?$_Tree_unchecked_const_iterator@V?$_Tree_val@U?$_Tree_simple_types@U?$pair@$$CBUALLEGRO_COLOR@@V?$vector@HV?$allocator@H@std@@@std@@@std@@@std@@@std@@U_Iterator_base12@2@@std@@QAE@PAU?$_Tree_node@U?$pair@$$CBUALLEGRO_COLOR@@V?$vector@HV?$allocator@H@std@@@std@@@std@@PAX@1@PBV?$_Tree_val@U?$_Tree_simple_types@U?$pair@$$CBUALLEGRO_COLOR@@V?$vector@HV?$allocator@H@std@@@std@@@std@@@std@@@1@@Z 0044f700 f i CommonPathfindingLib:GridVisualizer.obj
 0002:0002a7c0       ??0?$_Tree_unchecked_const_iterator@V?$_Tree_val@U?$_Tree_simple_types@U?$pair@$$CBUALLEGRO_COLOR@@V?$vector@HV?$allocator@H@std@@@std@@@std@@@std@@@std@@U_Iterator_base12@2@@std@@QAE@XZ 0044f7c0 f i CommonPathfindingLib:GridVisualizer.obj
 0002:0002a820       ??0?$_Tree_val@U?$_Tree_simple_types@U?$pair@$$CBUALLEGRO_COLOR@@V?$vector@HV?$allocator@H@std@@@std@@@std@@@std@@@std@@QAE@XZ 0044f820 f i CommonPathfindingLib:GridVisualizer.obj
 0002:0002a890       ??0?$_Vector_const_iterator@V?$_Vector_val@U?$_Simple_types@H@std@@@std@@@std@@QAE@ABV01@@Z 0044f890 f i CommonPathfindingLib:GridVisualizer.obj
 0002:0002a900       ??0?$_Vector_const_iterator@V?$_Vector_val@U?$_Simple_types@H@std@@@std@@@std@@QAE@PAHPBU_Container_base12@1@@Z 0044f900 f i CommonPathfindingLib:GridVisualizer.obj
 0002:0002a9c0       ??0?$_Wrap_alloc@V?$allocator@U?$_Tree_node@U?$pair@$$CBUALLEGRO_COLOR@@V?$vector@HV?$allocator@H@std@@@std@@@std@@PAX@std@@@std@@@std@@QAE@XZ 0044f9c0 f i CommonPathfindingLib:GridVisualizer.obj
 0002:0002aa20       ??0?$allocator@U?$_Tree_node@U?$pair@$$CBUALLEGRO_COLOR@@V?$vector@HV?$allocator@H@std@@@std@@@std@@PAX@std@@@std@@QAE@XZ 0044fa20 f i CommonPathfindingLib:GridVisualizer.obj
 0002:0002aa60       ??0?$map@UALLEGRO_COLOR@@V?$vector@HV?$allocator@H@std@@@std@@VAllegroColorCompare@@V?$allocator@U?$pair@$$CBUALLEGRO_COLOR@@V?$vector@HV?$allocator@H@std@@@std@@@std@@@3@@std@@QAE@XZ 0044fa60 f i CommonPathfindingLib:GridVisualizer.obj
 0002:0002aac0       ??0?$tuple@ABUALLEGRO_COLOR@@@std@@QAE@$$QAV01@@Z 0044fac0 f i CommonPathfindingLib:GridVisualizer.obj
 0002:0002ab30       ??0?$vector@HV?$allocator@H@std@@@std@@QAE@ABV01@@Z 0044fb30 f i CommonPathfindingLib:GridVisualizer.obj
 0002:0002acd0       ??0GridVisualizer@@QAE@PAVGrid@@@Z 0044fcd0 f   CommonPathfindingLib:GridVisualizer.obj
 0002:0002ad40       ??1?$_Compressed_pair@U?$_Wrap_alloc@V?$allocator@U?$_Tree_node@U?$pair@$$CBUALLEGRO_COLOR@@V?$vector@HV?$allocator@H@std@@@std@@@std@@PAX@std@@@std@@@std@@V?$_Tree_val@U?$_Tree_simple_types@U?$pair@$$CBUALLEGRO_COLOR@@V?$vector@HV?$allocator@H@std@@@std@@@std@@@std@@@2@$00@std@@QAE@XZ 0044fd40 f i CommonPathfindingLib:GridVisualizer.obj
 0002:0002ad90       ??1?$_Compressed_pair@VAllegroColorCompare@@V?$_Compressed_pair@U?$_Wrap_alloc@V?$allocator@U?$_Tree_node@U?$pair@$$CBUALLEGRO_COLOR@@V?$vector@HV?$allocator@H@std@@@std@@@std@@PAX@std@@@std@@@std@@V?$_Tree_val@U?$_Tree_simple_types@U?$pair@$$CBUALLEGRO_COLOR@@V?$vector@HV?$allocator@H@std@@@std@@@std@@@std@@@2@$00@std@@$00@std@@QAE@XZ 0044fd90 f i CommonPathfindingLib:GridVisualizer.obj
 0002:0002ade0       ??1?$_Iterator012@Ubidirectional_iterator_tag@std@@U?$pair@$$CBUALLEGRO_COLOR@@V?$vector@HV?$allocator@H@std@@@std@@@2@HPBU32@ABU32@U_Iterator_base12@2@@std@@QAE@XZ 0044fde0 f i CommonPathfindingLib:GridVisualizer.obj
 0002:0002ae30       ??1?$_Iterator012@Urandom_access_iterator_tag@std@@HHPBHABHU_Iterator_base12@2@@std@@QAE@XZ 0044fe30 f i CommonPathfindingLib:GridVisualizer.obj
 0002:0002ae80       ??1?$_Tree@V?$_Tmap_traits@UALLEGRO_COLOR@@V?$vector@HV?$allocator@H@std@@@std@@VAllegroColorCompare@@V?$allocator@U?$pair@$$CBUALLEGRO_COLOR@@V?$vector@HV?$allocator@H@std@@@std@@@std@@@3@$0A@@std@@@std@@QAE@XZ 0044fe80 f i CommonPathfindingLib:GridVisualizer.obj
 0002:0002af10       ??1?$_Tree_comp_alloc@V?$_Tmap_traits@UALLEGRO_COLOR@@V?$vector@HV?$allocator@H@std@@@std@@VAllegroColorCompare@@V?$allocator@U?$pair@$$CBUALLEGRO_COLOR@@V?$vector@HV?$allocator@H@std@@@std@@@std@@@3@$0A@@std@@@std@@QAE@XZ 0044ff10 f i CommonPathfindingLib:GridVisualizer.obj
 0002:0002afc0       ??1?$_Tree_const_iterator@V?$_Tree_val@U?$_Tree_simple_types@U?$pair@$$CBUALLEGRO_COLOR@@V?$vector@HV?$allocator@H@std@@@std@@@std@@@std@@@std@@@std@@QAE@XZ 0044ffc0 f i CommonPathfindingLib:GridVisualizer.obj
 0002:0002b010       ??1?$_Tree_iterator@V?$_Tree_val@U?$_Tree_simple_types@U?$pair@$$CBUALLEGRO_COLOR@@V?$vector@HV?$allocator@H@std@@@std@@@std@@@std@@@std@@@std@@QAE@XZ 00450010 f i CommonPathfindingLib:GridVisualizer.obj
 0002:0002b060       ??1?$_Tree_unchecked_const_iterator@V?$_Tree_val@U?$_Tree_simple_types@U?$pair@$$CBUALLEGRO_COLOR@@V?$vector@HV?$allocator@H@std@@@std@@@std@@@std@@@std@@U_Iterator_base12@2@@std@@QAE@XZ 00450060 f i CommonPathfindingLib:GridVisualizer.obj
 0002:0002b0b0       ??1?$_Tree_val@U?$_Tree_simple_types@U?$pair@$$CBUALLEGRO_COLOR@@V?$vector@HV?$allocator@H@std@@@std@@@std@@@std@@@std@@QAE@XZ 004500b0 f i CommonPathfindingLib:GridVisualizer.obj
 0002:0002b100       ??1?$_Vector_const_iterator@V?$_Vector_val@U?$_Simple_types@H@std@@@std@@@std@@QAE@XZ 00450100 f i CommonPathfindingLib:GridVisualizer.obj
 0002:0002b150       ??1?$map@UALLEGRO_COLOR@@V?$vector@HV?$allocator@H@std@@@std@@VAllegroColorCompare@@V?$allocator@U?$pair@$$CBUALLEGRO_COLOR@@V?$vector@HV?$allocator@H@std@@@std@@@std@@@3@@std@@QAE@XZ 00450150 f i CommonPathfindingLib:GridVisualizer.obj
 0002:0002b1a0       ??1?$pair@$$CBUALLEGRO_COLOR@@V?$vector@HV?$allocator@H@std@@@std@@@std@@QAE@XZ 004501a0 f i CommonPathfindingLib:GridVisualizer.obj
 0002:0002b200       ??1?$pair@V?$_Tree_iterator@V?$_Tree_val@U?$_Tree_simple_types@U?$pair@$$CBUALLEGRO_COLOR@@V?$vector@HV?$allocator@H@std@@@std@@@std@@@std@@@std@@@std@@_N@std@@QAE@XZ 00450200 f i CommonPathfindingLib:GridVisualizer.obj
 0002:0002b250       ??1GridVisualizer@@QAE@XZ  00450250 f   CommonPathfindingLib:GridVisualizer.obj
 0002:0002b2b0       ??4?$_Iterator012@Ubidirectional_iterator_tag@std@@U?$pair@$$CBUALLEGRO_COLOR@@V?$vector@HV?$allocator@H@std@@@std@@@2@HPBU32@ABU32@U_Iterator_base12@2@@std@@QAEAAU01@$$QAU01@@Z 004502b0 f i CommonPathfindingLib:GridVisualizer.obj
 0002:0002b310       ??4?$_Iterator012@Ubidirectional_iterator_tag@std@@U?$pair@$$CBUALLEGRO_COLOR@@V?$vector@HV?$allocator@H@std@@@std@@@2@HPBU32@ABU32@U_Iterator_base12@2@@std@@QAEAAU01@ABU01@@Z 00450310 f i CommonPathfindingLib:GridVisualizer.obj
 0002:0002b370       ??4?$_Tree_const_iterator@V?$_Tree_val@U?$_Tree_simple_types@U?$pair@$$CBUALLEGRO_COLOR@@V?$vector@HV?$allocator@H@std@@@std@@@std@@@std@@@std@@@std@@QAEAAV01@$$QAV01@@Z 00450370 f i CommonPathfindingLib:GridVisualizer.obj
 0002:0002b3d0       ??4?$_Tree_const_iterator@V?$_Tree_val@U?$_Tree_simple_types@U?$pair@$$CBUALLEGRO_COLOR@@V?$vector@HV?$allocator@H@std@@@std@@@std@@@std@@@std@@@std@@QAEAAV01@ABV01@@Z 004503d0 f i CommonPathfindingLib:GridVisualizer.obj
 0002:0002b430       ??4?$_Tree_iterator@V?$_Tree_val@U?$_Tree_simple_types@U?$pair@$$CBUALLEGRO_COLOR@@V?$vector@HV?$allocator@H@std@@@std@@@std@@@std@@@std@@@std@@QAEAAV01@$$QAV01@@Z 00450430 f i CommonPathfindingLib:GridVisualizer.obj
 0002:0002b490       ??4?$_Tree_unchecked_const_iterator@V?$_Tree_val@U?$_Tree_simple_types@U?$pair@$$CBUALLEGRO_COLOR@@V?$vector@HV?$allocator@H@std@@@std@@@std@@@std@@@std@@U_Iterator_base12@2@@std@@QAEAAV01@$$QAV01@@Z 00450490 f i CommonPathfindingLib:GridVisualizer.obj
 0002:0002b500       ??4?$_Tree_unchecked_const_iterator@V?$_Tree_val@U?$_Tree_simple_types@U?$pair@$$CBUALLEGRO_COLOR@@V?$vector@HV?$allocator@H@std@@@std@@@std@@@std@@@std@@U_Iterator_base12@2@@std@@QAEAAV01@ABV01@@Z 00450500 f i CommonPathfindingLib:GridVisualizer.obj
 0002:0002b570       ??4?$vector@HV?$allocator@H@std@@@std@@QAEAAV01@ABV01@@Z 00450570 f i CommonPathfindingLib:GridVisualizer.obj
 0002:0002b8f0       ??8?$_Tree_const_iterator@V?$_Tree_val@U?$_Tree_simple_types@U?$pair@$$CBUALLEGRO_COLOR@@V?$vector@HV?$allocator@H@std@@@std@@@std@@@std@@@std@@@std@@QBE_NABV01@@Z 004508f0 f i CommonPathfindingLib:GridVisualizer.obj
 0002:0002ba40       ??9?$_Tree_const_iterator@V?$_Tree_val@U?$_Tree_simple_types@U?$pair@$$CBUALLEGRO_COLOR@@V?$vector@HV?$allocator@H@std@@@std@@@std@@@std@@@std@@@std@@QBE_NABV01@@Z 00450a40 f i CommonPathfindingLib:GridVisualizer.obj
 0002:0002bad0       ??A?$map@UALLEGRO_COLOR@@V?$vector@HV?$allocator@H@std@@@std@@VAllegroColorCompare@@V?$allocator@U?$pair@$$CBUALLEGRO_COLOR@@V?$vector@HV?$allocator@H@std@@@std@@@std@@@3@@std@@QAEAAV?$vector@HV?$allocator@H@std@@@1@ABUALLEGRO_COLOR@@@Z 00450ad0 f i CommonPathfindingLib:GridVisualizer.obj
 0002:0002bbc0       ??A?$vector@HV?$allocator@H@std@@@std@@QAEAAHI@Z 00450bc0 f i CommonPathfindingLib:GridVisualizer.obj
 0002:0002bce0       ??C?$_Tree_iterator@V?$_Tree_val@U?$_Tree_simple_types@U?$pair@$$CBUALLEGRO_COLOR@@V?$vector@HV?$allocator@H@std@@@std@@@std@@@std@@@std@@@std@@QBEPAU?$pair@$$CBUALLEGRO_COLOR@@V?$vector@HV?$allocator@H@std@@@std@@@1@XZ 00450ce0 f i CommonPathfindingLib:GridVisualizer.obj
 0002:0002bd40       ??D?$_Tree_const_iterator@V?$_Tree_val@U?$_Tree_simple_types@U?$pair@$$CBUALLEGRO_COLOR@@V?$vector@HV?$allocator@H@std@@@std@@@std@@@std@@@std@@@std@@QBEABU?$pair@$$CBUALLEGRO_COLOR@@V?$vector@HV?$allocator@H@std@@@std@@@1@XZ 00450d40 f i CommonPathfindingLib:GridVisualizer.obj
 0002:0002be80       ??D?$_Tree_iterator@V?$_Tree_val@U?$_Tree_simple_types@U?$pair@$$CBUALLEGRO_COLOR@@V?$vector@HV?$allocator@H@std@@@std@@@std@@@std@@@std@@@std@@QBEAAU?$pair@$$CBUALLEGRO_COLOR@@V?$vector@HV?$allocator@H@std@@@std@@@1@XZ 00450e80 f i CommonPathfindingLib:GridVisualizer.obj
 0002:0002bed0       ??E?$_Tree_const_iterator@V?$_Tree_val@U?$_Tree_simple_types@U?$pair@$$CBUALLEGRO_COLOR@@V?$vector@HV?$allocator@H@std@@@std@@@std@@@std@@@std@@@std@@QAE?AV01@H@Z 00450ed0 f i CommonPathfindingLib:GridVisualizer.obj
 0002:0002bff0       ??E?$_Tree_const_iterator@V?$_Tree_val@U?$_Tree_simple_types@U?$pair@$$CBUALLEGRO_COLOR@@V?$vector@HV?$allocator@H@std@@@std@@@std@@@std@@@std@@@std@@QAEAAV01@XZ 00450ff0 f i CommonPathfindingLib:GridVisualizer.obj
 0002:0002c130       ??E?$_Tree_iterator@V?$_Tree_val@U?$_Tree_simple_types@U?$pair@$$CBUALLEGRO_COLOR@@V?$vector@HV?$allocator@H@std@@@std@@@std@@@std@@@std@@@std@@QAEAAV01@XZ 00451130 f i CommonPathfindingLib:GridVisualizer.obj
 0002:0002c190       ??E?$_Tree_unchecked_const_iterator@V?$_Tree_val@U?$_Tree_simple_types@U?$pair@$$CBUALLEGRO_COLOR@@V?$vector@HV?$allocator@H@std@@@std@@@std@@@std@@@std@@U_Iterator_base12@2@@std@@QAEAAV01@XZ 00451190 f i CommonPathfindingLib:GridVisualizer.obj
 0002:0002c2c0       ??F?$_Tree_const_iterator@V?$_Tree_val@U?$_Tree_simple_types@U?$pair@$$CBUALLEGRO_COLOR@@V?$vector@HV?$allocator@H@std@@@std@@@std@@@std@@@std@@@std@@QAEAAV01@XZ 004512c0 f i CommonPathfindingLib:GridVisualizer.obj
 0002:0002c4a0       ??F?$_Tree_iterator@V?$_Tree_val@U?$_Tree_simple_types@U?$pair@$$CBUALLEGRO_COLOR@@V?$vector@HV?$allocator@H@std@@@std@@@std@@@std@@@std@@@std@@QAEAAV01@XZ 004514a0 f i CommonPathfindingLib:GridVisualizer.obj
 0002:0002c500       ??F?$_Tree_unchecked_const_iterator@V?$_Tree_val@U?$_Tree_simple_types@U?$pair@$$CBUALLEGRO_COLOR@@V?$vector@HV?$allocator@H@std@@@std@@@std@@@std@@@std@@U_Iterator_base12@2@@std@@QAEAAV01@XZ 00451500 f i CommonPathfindingLib:GridVisualizer.obj
 0002:0002c660       ??_G?$pair@$$CBUALLEGRO_COLOR@@V?$vector@HV?$allocator@H@std@@@std@@@std@@QAEPAXI@Z 00451660 f i CommonPathfindingLib:GridVisualizer.obj
 0002:0002c6d0       ?_Alloc_proxy@?$_Tree_comp_alloc@V?$_Tmap_traits@UALLEGRO_COLOR@@V?$vector@HV?$allocator@H@std@@@std@@VAllegroColorCompare@@V?$allocator@U?$pair@$$CBUALLEGRO_COLOR@@V?$vector@HV?$allocator@H@std@@@std@@@std@@@3@$0A@@std@@@std@@QAEXXZ 004516d0 f i CommonPathfindingLib:GridVisualizer.obj
 0002:0002c7d0       ?_Buy@?$vector@HV?$allocator@H@std@@@std@@IAE_NI@Z 004517d0 f i CommonPathfindingLib:GridVisualizer.obj
 0002:0002c8e0       ?_Buyheadnode@?$_Tree_comp_alloc@V?$_Tmap_traits@UALLEGRO_COLOR@@V?$vector@HV?$allocator@H@std@@@std@@VAllegroColorCompare@@V?$allocator@U?$pair@$$CBUALLEGRO_COLOR@@V?$vector@HV?$allocator@H@std@@@std@@@std@@@3@$0A@@std@@@std@@QAEPAU?$_Tree_node@U?$pair@$$CBUALLEGRO_COLOR@@V?$vector@HV?$allocator@H@std@@@std@@@std@@PAX@2@XZ 004518e0 f i CommonPathfindingLib:GridVisualizer.obj
 0002:0002caf0       ?_Buynode0@?$_Tree_comp_alloc@V?$_Tmap_traits@UALLEGRO_COLOR@@V?$vector@HV?$allocator@H@std@@@std@@VAllegroColorCompare@@V?$allocator@U?$pair@$$CBUALLEGRO_COLOR@@V?$vector@HV?$allocator@H@std@@@std@@@std@@@3@$0A@@std@@@std@@QAEPAU?$_Tree_node@U?$pair@$$CBUALLEGRO_COLOR@@V?$vector@HV?$allocator@H@std@@@std@@@std@@PAX@2@XZ 00451af0 f i CommonPathfindingLib:GridVisualizer.obj
 0002:0002ccb0       ?_Color@?$_Tree_comp_alloc@V?$_Tmap_traits@UALLEGRO_COLOR@@V?$vector@HV?$allocator@H@std@@@std@@VAllegroColorCompare@@V?$allocator@U?$pair@$$CBUALLEGRO_COLOR@@V?$vector@HV?$allocator@H@std@@@std@@@std@@@3@$0A@@std@@@std@@SAAADPAU?$_Tree_node@U?$pair@$$CBUALLEGRO_COLOR@@V?$vector@HV?$allocator@H@std@@@std@@@std@@PAX@2@@Z 00451cb0 f i CommonPathfindingLib:GridVisualizer.obj
 0002:0002cd00       ?_Color@?$_Tree_val@U?$_Tree_simple_types@U?$pair@$$CBUALLEGRO_COLOR@@V?$vector@HV?$allocator@H@std@@@std@@@std@@@std@@@std@@SAAADPAU?$_Tree_node@U?$pair@$$CBUALLEGRO_COLOR@@V?$vector@HV?$allocator@H@std@@@std@@@std@@PAX@2@@Z 00451d00 f i CommonPathfindingLib:GridVisualizer.obj
 0002:0002cd40       ?_Compare@?$_Tree@V?$_Tmap_traits@UALLEGRO_COLOR@@V?$vector@HV?$allocator@H@std@@@std@@VAllegroColorCompare@@V?$allocator@U?$pair@$$CBUALLEGRO_COLOR@@V?$vector@HV?$allocator@H@std@@@std@@@std@@@3@$0A@@std@@@std@@IBE_NABUALLEGRO_COLOR@@0@Z 00451d40 f i CommonPathfindingLib:GridVisualizer.obj
 0002:0002cdc0       ?_Construct@?$_Tree_comp_alloc@V?$_Tmap_traits@UALLEGRO_COLOR@@V?$vector@HV?$allocator@H@std@@@std@@VAllegroColorCompare@@V?$allocator@U?$pair@$$CBUALLEGRO_COLOR@@V?$vector@HV?$allocator@H@std@@@std@@@std@@@3@$0A@@std@@@std@@QAEXXZ 00451dc0 f i CommonPathfindingLib:GridVisualizer.obj
 0002:0002ceb0       ?_Copy_alloc@?$_Vector_alloc@U?$_Vec_base_types@HV?$allocator@H@std@@@std@@@std@@QAEXABU?$_Wrap_alloc@V?$allocator@H@std@@@2@@Z 00451eb0 f i CommonPathfindingLib:GridVisualizer.obj
 0002:0002cf30       ?_Destroy_if_not_nil@?$_Tree@V?$_Tmap_traits@UALLEGRO_COLOR@@V?$vector@HV?$allocator@H@std@@@std@@VAllegroColorCompare@@V?$allocator@U?$pair@$$CBUALLEGRO_COLOR@@V?$vector@HV?$allocator@H@std@@@std@@@std@@@3@$0A@@std@@@std@@IAEXPAU?$_Tree_node@U?$pair@$$CBUALLEGRO_COLOR@@V?$vector@HV?$allocator@H@std@@@std@@@std@@PAX@2@@Z 00451f30 f i CommonPathfindingLib:GridVisualizer.obj
 0002:0002cfc0       ?_Erase@?$_Tree@V?$_Tmap_traits@UALLEGRO_COLOR@@V?$vector@HV?$allocator@H@std@@@std@@VAllegroColorCompare@@V?$allocator@U?$pair@$$CBUALLEGRO_COLOR@@V?$vector@HV?$allocator@H@std@@@std@@@std@@@3@$0A@@std@@@std@@IAEXPAU?$_Tree_node@U?$pair@$$CBUALLEGRO_COLOR@@V?$vector@HV?$allocator@H@std@@@std@@@std@@PAX@2@@Z 00451fc0 f i CommonPathfindingLib:GridVisualizer.obj
 0002:0002d0b0       ?_Free_proxy@?$_Tree_comp_alloc@V?$_Tmap_traits@UALLEGRO_COLOR@@V?$vector@HV?$allocator@H@std@@@std@@VAllegroColorCompare@@V?$allocator@U?$pair@$$CBUALLEGRO_COLOR@@V?$vector@HV?$allocator@H@std@@@std@@@std@@@3@$0A@@std@@@std@@QAEXXZ 004520b0 f i CommonPathfindingLib:GridVisualizer.obj
 0002:0002d1a0       ?_Freeheadnode@?$_Tree_comp_alloc@V?$_Tmap_traits@UALLEGRO_COLOR@@V?$vector@HV?$allocator@H@std@@@std@@VAllegroColorCompare@@V?$allocator@U?$pair@$$CBUALLEGRO_COLOR@@V?$vector@HV?$allocator@H@std@@@std@@@std@@@3@$0A@@std@@@std@@QAEXPAU?$_Tree_node@U?$pair@$$CBUALLEGRO_COLOR@@V?$vector@HV?$allocator@H@std@@@std@@@std@@PAX@2@@Z 004521a0 f i CommonPathfindingLib:GridVisualizer.obj
 0002:0002d290       ?_Freenode0@?$_Tree_comp_alloc@V?$_Tmap_traits@UALLEGRO_COLOR@@V?$vector@HV?$allocator@H@std@@@std@@VAllegroColorCompare@@V?$allocator@U?$pair@$$CBUALLEGRO_COLOR@@V?$vector@HV?$allocator@H@std@@@std@@@std@@@3@$0A@@std@@@std@@QAEXPAU?$_Tree_node@U?$pair@$$CBUALLEGRO_COLOR@@V?$vector@HV?$allocator@H@std@@@std@@@std@@PAX@2@@Z 00452290 f i CommonPathfindingLib:GridVisualizer.obj
 0002:0002d380       ?_Get_data@?$_Tree_comp_alloc@V?$_Tmap_traits@UALLEGRO_COLOR@@V?$vector@HV?$allocator@H@std@@@std@@VAllegroColorCompare@@V?$allocator@U?$pair@$$CBUALLEGRO_COLOR@@V?$vector@HV?$allocator@H@std@@@std@@@std@@@3@$0A@@std@@@std@@QAEAAV?$_Tree_val@U?$_Tree_simple_types@U?$pair@$$CBUALLEGRO_COLOR@@V?$vector@HV?$allocator@H@std@@@std@@@std@@@std@@@2@XZ 00452380 f i CommonPathfindingLib:GridVisualizer.obj
 0002:0002d3e0       ?_Get_data@?$_Tree_comp_alloc@V?$_Tmap_traits@UALLEGRO_COLOR@@V?$vector@HV?$allocator@H@std@@@std@@VAllegroColorCompare@@V?$allocator@U?$pair@$$CBUALLEGRO_COLOR@@V?$vector@HV?$allocator@H@std@@@std@@@std@@@3@$0A@@std@@@std@@QBEABV?$_Tree_val@U?$_Tree_simple_types@U?$pair@$$CBUALLEGRO_COLOR@@V?$vector@HV?$allocator@H@std@@@std@@@std@@@std@@@2@XZ 004523e0 f i CommonPathfindingLib:GridVisualizer.obj
 0002:0002d440       ?_Get_first@?$_Compressed_pair@U?$_Wrap_alloc@V?$allocator@U?$_Tree_node@U?$pair@$$CBUALLEGRO_COLOR@@V?$vector@HV?$allocator@H@std@@@std@@@std@@PAX@std@@@std@@@std@@V?$_Tree_val@U?$_Tree_simple_types@U?$pair@$$CBUALLEGRO_COLOR@@V?$vector@HV?$allocator@H@std@@@std@@@std@@@std@@@2@$00@std@@QAEAAU?$_Wrap_alloc@V?$allocator@U?$_Tree_node@U?$pair@$$CBUALLEGRO_COLOR@@V?$vector@HV?$allocator@H@std@@@std@@@std@@PAX@std@@@std@@@2@XZ 00452440 f i CommonPathfindingLib:GridVisualizer.obj
 0002:0002d480       ?_Get_first@?$_Compressed_pair@U?$_Wrap_alloc@V?$allocator@U?$_Tree_node@U?$pair@$$CBUALLEGRO_COLOR@@V?$vector@HV?$allocator@H@std@@@std@@@std@@PAX@std@@@std@@@std@@V?$_Tree_val@U?$_Tree_simple_types@U?$pair@$$CBUALLEGRO_COLOR@@V?$vector@HV?$allocator@H@std@@@std@@@std@@@std@@@2@$00@std@@QBEABU?$_Wrap_alloc@V?$allocator@U?$_Tree_node@U?$pair@$$CBUALLEGRO_COLOR@@V?$vector@HV?$allocator@H@std@@@std@@@std@@PAX@std@@@std@@@2@XZ 00452480 f i CommonPathfindingLib:GridVisualizer.obj
 0002:0002d4c0       ?_Get_first@?$_Compressed_pair@VAllegroColorCompare@@V?$_Compressed_pair@U?$_Wrap_alloc@V?$allocator@U?$_Tree_node@U?$pair@$$CBUALLEGRO_COLOR@@V?$vector@HV?$allocator@H@std@@@std@@@std@@PAX@std@@@std@@@std@@V?$_Tree_val@U?$_Tree_simple_types@U?$pair@$$CBUALLEGRO_COLOR@@V?$vector@HV?$allocator@H@std@@@std@@@std@@@std@@@2@$00@std@@$00@std@@QAEAAVAllegroColorCompare@@XZ 004524c0 f i CommonPathfindingLib:GridVisualizer.obj
 0002:0002d500       ?_Get_first@?$_Compressed_pair@VAllegroColorCompare@@V?$_Compressed_pair@U?$_Wrap_alloc@V?$allocator@U?$_Tree_node@U?$pair@$$CBUALLEGRO_COLOR@@V?$vector@HV?$allocator@H@std@@@std@@@std@@PAX@std@@@std@@@std@@V?$_Tree_val@U?$_Tree_simple_types@U?$pair@$$CBUALLEGRO_COLOR@@V?$vector@HV?$allocator@H@std@@@std@@@std@@@std@@@2@$00@std@@$00@std@@QBEABVAllegroColorCompare@@XZ 00452500 f i CommonPathfindingLib:GridVisualizer.obj
 0002:0002d540       ?_Get_second@?$_Compressed_pair@U?$_Wrap_alloc@V?$allocator@U?$_Tree_node@U?$pair@$$CBUALLEGRO_COLOR@@V?$vector@HV?$allocator@H@std@@@std@@@std@@PAX@std@@@std@@@std@@V?$_Tree_val@U?$_Tree_simple_types@U?$pair@$$CBUALLEGRO_COLOR@@V?$vector@HV?$allocator@H@std@@@std@@@std@@@std@@@2@$00@std@@QAEAAV?$_Tree_val@U?$_Tree_simple_types@U?$pair@$$CBUALLEGRO_COLOR@@V?$vector@HV?$allocator@H@std@@@std@@@std@@@std@@@2@XZ 00452540 f i CommonPathfindingLib:GridVisualizer.obj
 0002:0002d580       ?_Get_second@?$_Compressed_pair@U?$_Wrap_alloc@V?$allocator@U?$_Tree_node@U?$pair@$$CBUALLEGRO_COLOR@@V?$vector@HV?$allocator@H@std@@@std@@@std@@PAX@std@@@std@@@std@@V?$_Tree_val@U?$_Tree_simple_types@U?$pair@$$CBUALLEGRO_COLOR@@V?$vector@HV?$allocator@H@std@@@std@@@std@@@std@@@2@$00@std@@QBEABV?$_Tree_val@U?$_Tree_simple_types@U?$pair@$$CBUALLEGRO_COLOR@@V?$vector@HV?$allocator@H@std@@@std@@@std@@@std@@@2@XZ 00452580 f i CommonPathfindingLib:GridVisualizer.obj
 0002:0002d5c0       ?_Get_second@?$_Compressed_pair@VAllegroColorCompare@@V?$_Compressed_pair@U?$_Wrap_alloc@V?$allocator@U?$_Tree_node@U?$pair@$$CBUALLEGRO_COLOR@@V?$vector@HV?$allocator@H@std@@@std@@@std@@PAX@std@@@std@@@std@@V?$_Tree_val@U?$_Tree_simple_types@U?$pair@$$CBUALLEGRO_COLOR@@V?$vector@HV?$allocator@H@std@@@std@@@std@@@std@@@2@$00@std@@$00@std@@QAEAAV?$_Compressed_pair@U?$_Wrap_alloc@V?$allocator@U?$_Tree_node@U?$pair@$$CBUALLEGRO_COLOR@@V?$vector@HV?$allocator@H@std@@@std@@@std@@PAX@std@@@std@@@std@@V?$_Tree_val@U?$_Tree_simple_types@U?$pair@$$CBUALLEGRO_COLOR@@V?$vector@HV?$allocator@H@std@@@std@@@std@@@std@@@2@$00@2@XZ 004525c0 f i CommonPathfindingLib:GridVisualizer.obj
 0002:0002d600       ?_Get_second@?$_Compressed_pair@VAllegroColorCompare@@V?$_Compressed_pair@U?$_Wrap_alloc@V?$allocator@U?$_Tree_node@U?$pair@$$CBUALLEGRO_COLOR@@V?$vector@HV?$allocator@H@std@@@std@@@std@@PAX@std@@@std@@@std@@V?$_Tree_val@U?$_Tree_simple_types@U?$pair@$$CBUALLEGRO_COLOR@@V?$vector@HV?$allocator@H@std@@@std@@@std@@@std@@@2@$00@std@@$00@std@@QBEABV?$_Compressed_pair@U?$_Wrap_alloc@V?$allocator@U?$_Tree_node@U?$pair@$$CBUALLEGRO_COLOR@@V?$vector@HV?$allocator@H@std@@@std@@@std@@PAX@std@@@std@@@std@@V?$_Tree_val@U?$_Tree_simple_types@U?$pair@$$CBUALLEGRO_COLOR@@V?$vector@HV?$allocator@H@std@@@std@@@std@@@std@@@2@$00@2@XZ 00452600 f i CommonPathfindingLib:GridVisualizer.obj
 0002:0002d640       ?_Getal@?$_Tree_comp_alloc@V?$_Tmap_traits@UALLEGRO_COLOR@@V?$vector@HV?$allocator@H@std@@@std@@VAllegroColorCompare@@V?$allocator@U?$pair@$$CBUALLEGRO_COLOR@@V?$vector@HV?$allocator@H@std@@@std@@@std@@@3@$0A@@std@@@std@@QAEAAU?$_Wrap_alloc@V?$allocator@U?$_Tree_node@U?$pair@$$CBUALLEGRO_COLOR@@V?$vector@HV?$allocator@H@std@@@std@@@std@@PAX@std@@@std@@@2@XZ 00452640 f i CommonPathfindingLib:GridVisualizer.obj
 0002:0002d6a0       ?_Getal@?$_Tree_comp_alloc@V?$_Tmap_traits@UALLEGRO_COLOR@@V?$vector@HV?$allocator@H@std@@@std@@VAllegroColorCompare@@V?$allocator@U?$pair@$$CBUALLEGRO_COLOR@@V?$vector@HV?$allocator@H@std@@@std@@@std@@@3@$0A@@std@@@std@@QBEABU?$_Wrap_alloc@V?$allocator@U?$_Tree_node@U?$pair@$$CBUALLEGRO_COLOR@@V?$vector@HV?$allocator@H@std@@@std@@@std@@PAX@std@@@std@@@2@XZ 004526a0 f i CommonPathfindingLib:GridVisualizer.obj
 0002:0002d700       ?_Getcomp@?$_Tree_comp_alloc@V?$_Tmap_traits@UALLEGRO_COLOR@@V?$vector@HV?$allocator@H@std@@@std@@VAllegroColorCompare@@V?$allocator@U?$pair@$$CBUALLEGRO_COLOR@@V?$vector@HV?$allocator@H@std@@@std@@@std@@@3@$0A@@std@@@std@@QAEAAVAllegroColorCompare@@XZ 00452700 f i CommonPathfindingLib:GridVisualizer.obj
 0002:0002d750       ?_Getcomp@?$_Tree_comp_alloc@V?$_Tmap_traits@UALLEGRO_COLOR@@V?$vector@HV?$allocator@H@std@@@std@@VAllegroColorCompare@@V?$allocator@U?$pair@$$CBUALLEGRO_COLOR@@V?$vector@HV?$allocator@H@std@@@std@@@std@@@3@$0A@@std@@@std@@QBEABVAllegroColorCompare@@XZ 00452750 f i CommonPathfindingLib:GridVisualizer.obj
 0002:0002d7a0       ?_Getpfirst@?$_Tree_comp_alloc@V?$_Tmap_traits@UALLEGRO_COLOR@@V?$vector@HV?$allocator@H@std@@@std@@VAllegroColorCompare@@V?$allocator@U?$pair@$$CBUALLEGRO_COLOR@@V?$vector@HV?$allocator@H@std@@@std@@@std@@@3@$0A@@std@@@std@@QBEPAPAU_Iterator_base12@2@XZ 004527a0 f i CommonPathfindingLib:GridVisualizer.obj
 0002:0002d800       ?_Isnil@?$_Tree_comp_alloc@V?$_Tmap_traits@UALLEGRO_COLOR@@V?$vector@HV?$allocator@H@std@@@std@@VAllegroColorCompare@@V?$allocator@U?$pair@$$CBUALLEGRO_COLOR@@V?$vector@HV?$allocator@H@std@@@std@@@std@@@3@$0A@@std@@@std@@SAAADPAU?$_Tree_node@U?$pair@$$CBUALLEGRO_COLOR@@V?$vector@HV?$allocator@H@std@@@std@@@std@@PAX@2@@Z 00452800 f i CommonPathfindingLib:GridVisualizer.obj
 0002:0002d850       ?_Isnil@?$_Tree_val@U?$_Tree_simple_types@U?$pair@$$CBUALLEGRO_COLOR@@V?$vector@HV?$allocator@H@std@@@std@@@std@@@std@@@std@@SAAADPAU?$_Tree_node@U?$pair@$$CBUALLEGRO_COLOR@@V?$vector@HV?$allocator@H@std@@@std@@@std@@PAX@2@@Z 00452850 f i CommonPathfindingLib:GridVisualizer.obj
 0002:0002d890       ?_Key@?$_Tree@V?$_Tmap_traits@UALLEGRO_COLOR@@V?$vector@HV?$allocator@H@std@@@std@@VAllegroColorCompare@@V?$allocator@U?$pair@$$CBUALLEGRO_COLOR@@V?$vector@HV?$allocator@H@std@@@std@@@std@@@3@$0A@@std@@@std@@IBEABUALLEGRO_COLOR@@PAU?$_Tree_node@U?$pair@$$CBUALLEGRO_COLOR@@V?$vector@HV?$allocator@H@std@@@std@@@std@@PAX@2@@Z 00452890 f i CommonPathfindingLib:GridVisualizer.obj
 0002:0002d900       ?_Kfn@?$_Tree@V?$_Tmap_traits@UALLEGRO_COLOR@@V?$vector@HV?$allocator@H@std@@@std@@VAllegroColorCompare@@V?$allocator@U?$pair@$$CBUALLEGRO_COLOR@@V?$vector@HV?$allocator@H@std@@@std@@@std@@@3@$0A@@std@@@std@@IBEABUALLEGRO_COLOR@@ABU?$pair@$$CBUALLEGRO_COLOR@@V?$vector@HV?$allocator@H@std@@@std@@@2@@Z 00452900 f i CommonPathfindingLib:GridVisualizer.obj
 0002:0002d960       ?_Left@?$_Tree_comp_alloc@V?$_Tmap_traits@UALLEGRO_COLOR@@V?$vector@HV?$allocator@H@std@@@std@@VAllegroColorCompare@@V?$allocator@U?$pair@$$CBUALLEGRO_COLOR@@V?$vector@HV?$allocator@H@std@@@std@@@std@@@3@$0A@@std@@@std@@SAAAPAU?$_Tree_node@U?$pair@$$CBUALLEGRO_COLOR@@V?$vector@HV?$allocator@H@std@@@std@@@std@@PAX@2@PAU32@@Z 00452960 f i CommonPathfindingLib:GridVisualizer.obj
 0002:0002d9b0       ?_Left@?$_Tree_val@U?$_Tree_simple_types@U?$pair@$$CBUALLEGRO_COLOR@@V?$vector@HV?$allocator@H@std@@@std@@@std@@@std@@@std@@SAAAPAU?$_Tree_node@U?$pair@$$CBUALLEGRO_COLOR@@V?$vector@HV?$allocator@H@std@@@std@@@std@@PAX@2@PAU32@@Z 004529b0 f i CommonPathfindingLib:GridVisualizer.obj
 0002:0002d9f0       ?_Lmost@?$_Tree@V?$_Tmap_traits@UALLEGRO_COLOR@@V?$vector@HV?$allocator@H@std@@@std@@VAllegroColorCompare@@V?$allocator@U?$pair@$$CBUALLEGRO_COLOR@@V?$vector@HV?$allocator@H@std@@@std@@@std@@@3@$0A@@std@@@std@@IBEAAPAU?$_Tree_node@U?$pair@$$CBUALLEGRO_COLOR@@V?$vector@HV?$allocator@H@std@@@std@@@std@@PAX@2@XZ 004529f0 f i CommonPathfindingLib:GridVisualizer.obj
 0002:0002da50       ?_Lrotate@?$_Tree@V?$_Tmap_traits@UALLEGRO_COLOR@@V?$vector@HV?$allocator@H@std@@@std@@VAllegroColorCompare@@V?$allocator@U?$pair@$$CBUALLEGRO_COLOR@@V?$vector@HV?$allocator@H@std@@@std@@@std@@@3@$0A@@std@@@std@@IAEXPAU?$_Tree_node@U?$pair@$$CBUALLEGRO_COLOR@@V?$vector@HV?$allocator@H@std@@@std@@@std@@PAX@2@@Z 00452a50 f i CommonPathfindingLib:GridVisualizer.obj
 0002:0002dc00       ?_Max@?$_Tree_comp_alloc@V?$_Tmap_traits@UALLEGRO_COLOR@@V?$vector@HV?$allocator@H@std@@@std@@VAllegroColorCompare@@V?$allocator@U?$pair@$$CBUALLEGRO_COLOR@@V?$vector@HV?$allocator@H@std@@@std@@@std@@@3@$0A@@std@@@std@@SAPAU?$_Tree_node@U?$pair@$$CBUALLEGRO_COLOR@@V?$vector@HV?$allocator@H@std@@@std@@@std@@PAX@2@PAU32@@Z 00452c00 f i CommonPathfindingLib:GridVisualizer.obj
 0002:0002dc50       ?_Max@?$_Tree_val@U?$_Tree_simple_types@U?$pair@$$CBUALLEGRO_COLOR@@V?$vector@HV?$allocator@H@std@@@std@@@std@@@std@@@std@@SAPAU?$_Tree_node@U?$pair@$$CBUALLEGRO_COLOR@@V?$vector@HV?$allocator@H@std@@@std@@@std@@PAX@2@PAU32@@Z 00452c50 f i CommonPathfindingLib:GridVisualizer.obj
 0002:0002dcd0       ?_Min@?$_Tree_comp_alloc@V?$_Tmap_traits@UALLEGRO_COLOR@@V?$vector@HV?$allocator@H@std@@@std@@VAllegroColorCompare@@V?$allocator@U?$pair@$$CBUALLEGRO_COLOR@@V?$vector@HV?$allocator@H@std@@@std@@@std@@@3@$0A@@std@@@std@@SAPAU?$_Tree_node@U?$pair@$$CBUALLEGRO_COLOR@@V?$vector@HV?$allocator@H@std@@@std@@@std@@PAX@2@PAU32@@Z 00452cd0 f i CommonPathfindingLib:GridVisualizer.obj
 0002:0002dd20       ?_Min@?$_Tree_val@U?$_Tree_simple_types@U?$pair@$$CBUALLEGRO_COLOR@@V?$vector@HV?$allocator@H@std@@@std@@@std@@@std@@@std@@SAPAU?$_Tree_node@U?$pair@$$CBUALLEGRO_COLOR@@V?$vector@HV?$allocator@H@std@@@std@@@std@@PAX@2@PAU32@@Z 00452d20 f i CommonPathfindingLib:GridVisualizer.obj
 0002:0002dda0       ?_Myhead@?$_Tree_comp_alloc@V?$_Tmap_traits@UALLEGRO_COLOR@@V?$vector@HV?$allocator@H@std@@@std@@VAllegroColorCompare@@V?$allocator@U?$pair@$$CBUALLEGRO_COLOR@@V?$vector@HV?$allocator@H@std@@@std@@@std@@@3@$0A@@std@@@std@@QAEAAPAU?$_Tree_node@U?$pair@$$CBUALLEGRO_COLOR@@V?$vector@HV?$allocator@H@std@@@std@@@std@@PAX@2@XZ 00452da0 f i CommonPathfindingLib:GridVisualizer.obj
 0002:0002de00       ?_Myhead@?$_Tree_comp_alloc@V?$_Tmap_traits@UALLEGRO_COLOR@@V?$vector@HV?$allocator@H@std@@@std@@VAllegroColorCompare@@V?$allocator@U?$pair@$$CBUALLEGRO_COLOR@@V?$vector@HV?$allocator@H@std@@@std@@@std@@@3@$0A@@std@@@std@@QBEABQAU?$_Tree_node@U?$pair@$$CBUALLEGRO_COLOR@@V?$vector@HV?$allocator@H@std@@@std@@@std@@PAX@2@XZ 00452e00 f i CommonPathfindingLib:GridVisualizer.obj
 0002:0002de60       ?_Mynode@?$_Tree_unchecked_const_iterator@V?$_Tree_val@U?$_Tree_simple_types@U?$pair@$$CBUALLEGRO_COLOR@@V?$vector@HV?$allocator@H@std@@@std@@@std@@@std@@@std@@U_Iterator_base12@2@@std@@QBEPAU?$_Tree_node@U?$pair@$$CBUALLEGRO_COLOR@@V?$vector@HV?$allocator@H@std@@@std@@@std@@PAX@2@XZ 00452e60 f i CommonPathfindingLib:GridVisualizer.obj
 0002:0002dea0       ?_Myproxy@?$_Tree_comp_alloc@V?$_Tmap_traits@UALLEGRO_COLOR@@V?$vector@HV?$allocator@H@std@@@std@@VAllegroColorCompare@@V?$allocator@U?$pair@$$CBUALLEGRO_COLOR@@V?$vector@HV?$allocator@H@std@@@std@@@std@@@3@$0A@@std@@@std@@QAEAAPAU_Container_proxy@2@XZ 00452ea0 f i CommonPathfindingLib:GridVisualizer.obj
 0002:0002def0       ?_Mysize@?$_Tree_comp_alloc@V?$_Tmap_traits@UALLEGRO_COLOR@@V?$vector@HV?$allocator@H@std@@@std@@VAllegroColorCompare@@V?$allocator@U?$pair@$$CBUALLEGRO_COLOR@@V?$vector@HV?$allocator@H@std@@@std@@@std@@@3@$0A@@std@@@std@@QAEAAIXZ 00452ef0 f i CommonPathfindingLib:GridVisualizer.obj
 0002:0002df50       ?_Mysize@?$_Tree_comp_alloc@V?$_Tmap_traits@UALLEGRO_COLOR@@V?$vector@HV?$allocator@H@std@@@std@@VAllegroColorCompare@@V?$allocator@U?$pair@$$CBUALLEGRO_COLOR@@V?$vector@HV?$allocator@H@std@@@std@@@std@@@3@$0A@@std@@@std@@QBEABIXZ 00452f50 f i CommonPathfindingLib:GridVisualizer.obj
 0002:0002dfb0       ?_Myval@?$_Tree_comp_alloc@V?$_Tmap_traits@UALLEGRO_COLOR@@V?$vector@HV?$allocator@H@std@@@std@@VAllegroColorCompare@@V?$allocator@U?$pair@$$CBUALLEGRO_COLOR@@V?$vector@HV?$allocator@H@std@@@std@@@std@@@3@$0A@@std@@@std@@SAAAU?$pair@$$CBUALLEGRO_COLOR@@V?$vector@HV?$allocator@H@std@@@std@@@2@PAU?$_Tree_node@U?$pair@$$CBUALLEGRO_COLOR@@V?$vector@HV?$allocator@H@std@@@std@@@std@@PAX@2@@Z 00452fb0 f i CommonPathfindingLib:GridVisualizer.obj
 0002:0002e000       ?_Myval@?$_Tree_val@U?$_Tree_simple_types@U?$pair@$$CBUALLEGRO_COLOR@@V?$vector@HV?$allocator@H@std@@@std@@@std@@@std@@@std@@SAAAU?$pair@$$CBUALLEGRO_COLOR@@V?$vector@HV?$allocator@H@std@@@std@@@2@PAU?$_Tree_node@U?$pair@$$CBUALLEGRO_COLOR@@V?$vector@HV?$allocator@H@std@@@std@@@std@@PAX@2@@Z 00453000 f i CommonPathfindingLib:GridVisualizer.obj
 0002:0002e040       ?_Orphan_all@?$_Tree_comp_alloc@V?$_Tmap_traits@UALLEGRO_COLOR@@V?$vector@HV?$allocator@H@std@@@std@@VAllegroColorCompare@@V?$allocator@U?$pair@$$CBUALLEGRO_COLOR@@V?$vector@HV?$allocator@H@std@@@std@@@std@@@3@$0A@@std@@@std@@QAEXXZ 00453040 f i CommonPathfindingLib:GridVisualizer.obj
 0002:0002e0a0       ?_Orphan_ptr@?$_Tree@V?$_Tmap_traits@UALLEGRO_COLOR@@V?$vector@HV?$allocator@H@std@@@std@@VAllegroColorCompare@@V?$allocator@U?$pair@$$CBUALLEGRO_COLOR@@V?$vector@HV?$allocator@H@std@@@std@@@std@@@3@$0A@@std@@@std@@IAEXPAU?$_Tree_node@U?$pair@$$CBUALLEGRO_COLOR@@V?$vector@HV?$allocator@H@std@@@std@@@std@@PAX@2@@Z 004530a0 f i CommonPathfindingLib:GridVisualizer.obj
 0002:0002e220       ?_Parent@?$_Tree_comp_alloc@V?$_Tmap_traits@UALLEGRO_COLOR@@V?$vector@HV?$allocator@H@std@@@std@@VAllegroColorCompare@@V?$allocator@U?$pair@$$CBUALLEGRO_COLOR@@V?$vector@HV?$allocator@H@std@@@std@@@std@@@3@$0A@@std@@@std@@SAAAPAU?$_Tree_node@U?$pair@$$CBUALLEGRO_COLOR@@V?$vector@HV?$allocator@H@std@@@std@@@std@@PAX@2@PAU32@@Z 00453220 f i CommonPathfindingLib:GridVisualizer.obj
 0002:0002e270       ?_Parent@?$_Tree_val@U?$_Tree_simple_types@U?$pair@$$CBUALLEGRO_COLOR@@V?$vector@HV?$allocator@H@std@@@std@@@std@@@std@@@std@@SAAAPAU?$_Tree_node@U?$pair@$$CBUALLEGRO_COLOR@@V?$vector@HV?$allocator@H@std@@@std@@@std@@PAX@2@PAU32@@Z 00453270 f i CommonPathfindingLib:GridVisualizer.obj
 0002:0002e2b0       ?_Right@?$_Tree_comp_alloc@V?$_Tmap_traits@UALLEGRO_COLOR@@V?$vector@HV?$allocator@H@std@@@std@@VAllegroColorCompare@@V?$allocator@U?$pair@$$CBUALLEGRO_COLOR@@V?$vector@HV?$allocator@H@std@@@std@@@std@@@3@$0A@@std@@@std@@SAAAPAU?$_Tree_node@U?$pair@$$CBUALLEGRO_COLOR@@V?$vector@HV?$allocator@H@std@@@std@@@std@@PAX@2@PAU32@@Z 004532b0 f i CommonPathfindingLib:GridVisualizer.obj
 0002:0002e300       ?_Right@?$_Tree_val@U?$_Tree_simple_types@U?$pair@$$CBUALLEGRO_COLOR@@V?$vector@HV?$allocator@H@std@@@std@@@std@@@std@@@std@@SAAAPAU?$_Tree_node@U?$pair@$$CBUALLEGRO_COLOR@@V?$vector@HV?$allocator@H@std@@@std@@@std@@PAX@2@PAU32@@Z 00453300 f i CommonPathfindingLib:GridVisualizer.obj
 0002:0002e340       ?_Rmost@?$_Tree@V?$_Tmap_traits@UALLEGRO_COLOR@@V?$vector@HV?$allocator@H@std@@@std@@VAllegroColorCompare@@V?$allocator@U?$pair@$$CBUALLEGRO_COLOR@@V?$vector@HV?$allocator@H@std@@@std@@@std@@@3@$0A@@std@@@std@@IBEAAPAU?$_Tree_node@U?$pair@$$CBUALLEGRO_COLOR@@V?$vector@HV?$allocator@H@std@@@std@@@std@@PAX@2@XZ 00453340 f i CommonPathfindingLib:GridVisualizer.obj
 0002:0002e3a0       ?_Root@?$_Tree@V?$_Tmap_traits@UALLEGRO_COLOR@@V?$vector@HV?$allocator@H@std@@@std@@VAllegroColorCompare@@V?$allocator@U?$pair@$$CBUALLEGRO_COLOR@@V?$vector@HV?$allocator@H@std@@@std@@@std@@@3@$0A@@std@@@std@@IBEAAPAU?$_Tree_node@U?$pair@$$CBUALLEGRO_COLOR@@V?$vector@HV?$allocator@H@std@@@std@@@std@@PAX@2@XZ 004533a0 f i CommonPathfindingLib:GridVisualizer.obj
 0002:0002e400       ?_Rrotate@?$_Tree@V?$_Tmap_traits@UALLEGRO_COLOR@@V?$vector@HV?$allocator@H@std@@@std@@VAllegroColorCompare@@V?$allocator@U?$pair@$$CBUALLEGRO_COLOR@@V?$vector@HV?$allocator@H@std@@@std@@@std@@@3@$0A@@std@@@std@@IAEXPAU?$_Tree_node@U?$pair@$$CBUALLEGRO_COLOR@@V?$vector@HV?$allocator@H@std@@@std@@@std@@PAX@2@@Z 00453400 f i CommonPathfindingLib:GridVisualizer.obj
 0002:0002e5b0       ?_Tidy@?$_Tree@V?$_Tmap_traits@UALLEGRO_COLOR@@V?$vector@HV?$allocator@H@std@@@std@@VAllegroColorCompare@@V?$allocator@U?$pair@$$CBUALLEGRO_COLOR@@V?$vector@HV?$allocator@H@std@@@std@@@std@@@3@$0A@@std@@@std@@IAEXXZ 004535b0 f i CommonPathfindingLib:GridVisualizer.obj
 0002:0002e740       ?_Unchecked@?$_Vector_const_iterator@V?$_Vector_val@U?$_Simple_types@H@std@@@std@@@std@@QBEPBHXZ 00453740 f i CommonPathfindingLib:GridVisualizer.obj
 0002:0002e780       ?addColor@GridVisualizer@@QAEXHABUALLEGRO_COLOR@@@Z 00453780 f   CommonPathfindingLib:GridVisualizer.obj
 0002:0002e970       ?allocate@?$_Wrap_alloc@V?$allocator@U?$_Tree_node@U?$pair@$$CBUALLEGRO_COLOR@@V?$vector@HV?$allocator@H@std@@@std@@@std@@PAX@std@@@std@@@std@@QAEPAU?$_Tree_node@U?$pair@$$CBUALLEGRO_COLOR@@V?$vector@HV?$allocator@H@std@@@std@@@std@@PAX@2@I@Z 00453970 f i CommonPathfindingLib:GridVisualizer.obj
 0002:0002e9d0       ?allocate@?$allocator@U?$_Tree_node@U?$pair@$$CBUALLEGRO_COLOR@@V?$vector@HV?$allocator@H@std@@@std@@@std@@PAX@std@@@std@@QAEPAU?$_Tree_node@U?$pair@$$CBUALLEGRO_COLOR@@V?$vector@HV?$allocator@H@std@@@std@@@std@@PAX@2@I@Z 004539d0 f i CommonPathfindingLib:GridVisualizer.obj
 0002:0002ea30       ?begin@?$_Tree@V?$_Tmap_traits@UALLEGRO_COLOR@@V?$vector@HV?$allocator@H@std@@@std@@VAllegroColorCompare@@V?$allocator@U?$pair@$$CBUALLEGRO_COLOR@@V?$vector@HV?$allocator@H@std@@@std@@@std@@@3@$0A@@std@@@std@@QAE?AV?$_Tree_iterator@V?$_Tree_val@U?$_Tree_simple_types@U?$pair@$$CBUALLEGRO_COLOR@@V?$vector@HV?$allocator@H@std@@@std@@@std@@@std@@@std@@@2@XZ 00453a30 f i CommonPathfindingLib:GridVisualizer.obj
 0002:0002eae0       ?begin@?$vector@HV?$allocator@H@std@@@std@@QBE?AV?$_Vector_const_iterator@V?$_Vector_val@U?$_Simple_types@H@std@@@std@@@2@XZ 00453ae0 f i CommonPathfindingLib:GridVisualizer.obj
 0002:0002eb90       ?clear@?$_Tree@V?$_Tmap_traits@UALLEGRO_COLOR@@V?$vector@HV?$allocator@H@std@@@std@@VAllegroColorCompare@@V?$allocator@U?$pair@$$CBUALLEGRO_COLOR@@V?$vector@HV?$allocator@H@std@@@std@@@std@@@3@$0A@@std@@@std@@QAEXXZ 00453b90 f i CommonPathfindingLib:GridVisualizer.obj
 0002:0002eca0       ?clear@?$vector@HV?$allocator@H@std@@@std@@QAEXXZ 00453ca0 f i CommonPathfindingLib:GridVisualizer.obj
 0002:0002ed70       ?clear@GridVisualizer@@QAEXXZ 00453d70 f   CommonPathfindingLib:GridVisualizer.obj
 0002:0002edd0       ?deallocate@?$_Wrap_alloc@V?$allocator@U?$_Tree_node@U?$pair@$$CBUALLEGRO_COLOR@@V?$vector@HV?$allocator@H@std@@@std@@@std@@PAX@std@@@std@@@std@@QAEXPAU?$_Tree_node@U?$pair@$$CBUALLEGRO_COLOR@@V?$vector@HV?$allocator@H@std@@@std@@@std@@PAX@2@I@Z 00453dd0 f i CommonPathfindingLib:GridVisualizer.obj
 0002:0002ee30       ?deallocate@?$allocator@U?$_Tree_node@U?$pair@$$CBUALLEGRO_COLOR@@V?$vector@HV?$allocator@H@std@@@std@@@std@@PAX@std@@@std@@QAEXPAU?$_Tree_node@U?$pair@$$CBUALLEGRO_COLOR@@V?$vector@HV?$allocator@H@std@@@std@@@std@@PAX@2@I@Z 00453e30 f i CommonPathfindingLib:GridVisualizer.obj
 0002:0002ee90       ?draw@GridVisualizer@@QAEXAAVGraphicsBuffer@@@Z 00453e90 f   CommonPathfindingLib:GridVisualizer.obj
 0002:0002f5a0       ?empty@?$vector@HV?$allocator@H@std@@@std@@QBE_NXZ 004545a0 f i CommonPathfindingLib:GridVisualizer.obj
 0002:0002f630       ?end@?$_Tree@V?$_Tmap_traits@UALLEGRO_COLOR@@V?$vector@HV?$allocator@H@std@@@std@@VAllegroColorCompare@@V?$allocator@U?$pair@$$CBUALLEGRO_COLOR@@V?$vector@HV?$allocator@H@std@@@std@@@std@@@3@$0A@@std@@@std@@QAE?AV?$_Tree_iterator@V?$_Tree_val@U?$_Tree_simple_types@U?$pair@$$CBUALLEGRO_COLOR@@V?$vector@HV?$allocator@H@std@@@std@@@std@@@std@@@std@@@2@XZ 00454630 f i CommonPathfindingLib:GridVisualizer.obj
 0002:0002f6e0       ?end@?$vector@HV?$allocator@H@std@@@std@@QBE?AV?$_Vector_const_iterator@V?$_Vector_val@U?$_Simple_types@H@std@@@std@@@2@XZ 004546e0 f i CommonPathfindingLib:GridVisualizer.obj
 0002:0002f790       ?erase@?$_Tree@V?$_Tmap_traits@UALLEGRO_COLOR@@V?$vector@HV?$allocator@H@std@@@std@@VAllegroColorCompare@@V?$allocator@U?$pair@$$CBUALLEGRO_COLOR@@V?$vector@HV?$allocator@H@std@@@std@@@std@@@3@$0A@@std@@@std@@QAE?AV?$_Tree_iterator@V?$_Tree_val@U?$_Tree_simple_types@U?$pair@$$CBUALLEGRO_COLOR@@V?$vector@HV?$allocator@H@std@@@std@@@std@@@std@@@std@@@2@V?$_Tree_const_iterator@V?$_Tree_val@U?$_Tree_simple_types@U?$pair@$$CBUALLEGRO_COLOR@@V?$vector@HV?$allocator@H@std@@@std@@@std@@@std@@@std@@@2@0@Z 00454790 f i CommonPathfindingLib:GridVisualizer.obj
 0002:0002fab0       ?erase@?$_Tree@V?$_Tmap_traits@UALLEGRO_COLOR@@V?$vector@HV?$allocator@H@std@@@std@@VAllegroColorCompare@@V?$allocator@U?$pair@$$CBUALLEGRO_COLOR@@V?$vector@HV?$allocator@H@std@@@std@@@std@@@3@$0A@@std@@@std@@QAE?AV?$_Tree_iterator@V?$_Tree_val@U?$_Tree_simple_types@U?$pair@$$CBUALLEGRO_COLOR@@V?$vector@HV?$allocator@H@std@@@std@@@std@@@std@@@std@@@2@V?$_Tree_const_iterator@V?$_Tree_val@U?$_Tree_simple_types@U?$pair@$$CBUALLEGRO_COLOR@@V?$vector@HV?$allocator@H@std@@@std@@@std@@@std@@@std@@@2@@Z 00454ab0 f i CommonPathfindingLib:GridVisualizer.obj
 0002:00030540       ?find@?$_Tree@V?$_Tmap_traits@UALLEGRO_COLOR@@V?$vector@HV?$allocator@H@std@@@std@@VAllegroColorCompare@@V?$allocator@U?$pair@$$CBUALLEGRO_COLOR@@V?$vector@HV?$allocator@H@std@@@std@@@std@@@3@$0A@@std@@@std@@QAE?AV?$_Tree_iterator@V?$_Tree_val@U?$_Tree_simple_types@U?$pair@$$CBUALLEGRO_COLOR@@V?$vector@HV?$allocator@H@std@@@std@@@std@@@std@@@std@@@2@ABUALLEGRO_COLOR@@@Z 00455540 f i CommonPathfindingLib:GridVisualizer.obj
 0002:00030840       ?getBitmap@GraphicsBuffer@@QBEPAUALLEGRO_BITMAP@@XZ 00455840 f i CommonPathfindingLib:GridVisualizer.obj
 0002:00030880       ?getFont@Game@@QBEPAUALLEGRO_FONT@@XZ 00455880 f i CommonPathfindingLib:GridVisualizer.obj
 0002:000308c0       ?getGridHeight@Grid@@QBEHXZ 004558c0 f i CommonPathfindingLib:GridVisualizer.obj
 0002:00030900       ?getGridWidth@Grid@@QBEHXZ 00455900 f i CommonPathfindingLib:GridVisualizer.obj
 0002:00030940       ?getSquareSize@Grid@@QBEHXZ 00455940 f i CommonPathfindingLib:GridVisualizer.obj
 0002:00030980       ?getX@Vector2D@@QBEMXZ     00455980 f i CommonPathfindingLib:GridVisualizer.obj
 0002:000309c0       ?getY@Vector2D@@QBEMXZ     004559c0 f i CommonPathfindingLib:GridVisualizer.obj
 0002:00030a00       ?lower_bound@?$_Tree@V?$_Tmap_traits@UALLEGRO_COLOR@@V?$vector@HV?$allocator@H@std@@@std@@VAllegroColorCompare@@V?$allocator@U?$pair@$$CBUALLEGRO_COLOR@@V?$vector@HV?$allocator@H@std@@@std@@@std@@@3@$0A@@std@@@std@@QAE?AV?$_Tree_iterator@V?$_Tree_val@U?$_Tree_simple_types@U?$pair@$$CBUALLEGRO_COLOR@@V?$vector@HV?$allocator@H@std@@@std@@@std@@@std@@@std@@@2@ABUALLEGRO_COLOR@@@Z 00455a00 f i CommonPathfindingLib:GridVisualizer.obj
 0002:00030a90       ?max_size@?$_Tree@V?$_Tmap_traits@UALLEGRO_COLOR@@V?$vector@HV?$allocator@H@std@@@std@@VAllegroColorCompare@@V?$allocator@U?$pair@$$CBUALLEGRO_COLOR@@V?$vector@HV?$allocator@H@std@@@std@@@std@@@3@$0A@@std@@@std@@QBEIXZ 00455a90 f i CommonPathfindingLib:GridVisualizer.obj
 0002:00030b00       ?max_size@?$_Wrap_alloc@V?$allocator@U?$_Tree_node@U?$pair@$$CBUALLEGRO_COLOR@@V?$vector@HV?$allocator@H@std@@@std@@@std@@PAX@std@@@std@@@std@@QBEIU_Nil@2@@Z 00455b00 f i CommonPathfindingLib:GridVisualizer.obj
 0002:00030b60       ?max_size@?$allocator@U?$_Tree_node@U?$pair@$$CBUALLEGRO_COLOR@@V?$vector@HV?$allocator@H@std@@@std@@@std@@PAX@std@@@std@@QBEIXZ 00455b60 f i CommonPathfindingLib:GridVisualizer.obj
 0002:00030ba0       ?max_size@?$allocator_traits@V?$allocator@U?$_Tree_node@U?$pair@$$CBUALLEGRO_COLOR@@V?$vector@HV?$allocator@H@std@@@std@@@std@@PAX@std@@@std@@@std@@SAIABV?$allocator@U?$_Tree_node@U?$pair@$$CBUALLEGRO_COLOR@@V?$vector@HV?$allocator@H@std@@@std@@@std@@PAX@std@@@2@@Z 00455ba0 f i CommonPathfindingLib:GridVisualizer.obj
 0002:00030bf0       ?pointer_to@?$pointer_traits@PAU?$pair@$$CBUALLEGRO_COLOR@@V?$vector@HV?$allocator@H@std@@@std@@@std@@@std@@SAPAU?$pair@$$CBUALLEGRO_COLOR@@V?$vector@HV?$allocator@H@std@@@std@@@2@AAU32@@Z 00455bf0 f i CommonPathfindingLib:GridVisualizer.obj
 0002:00030c40       ?refresh@GridVisualizer@@AAEXXZ 00455c40 f   CommonPathfindingLib:GridVisualizer.obj
 0002:00030d30       ?removeAllEntriesOfColor@GridVisualizer@@QAEXABUALLEGRO_COLOR@@@Z 00455d30 f   CommonPathfindingLib:GridVisualizer.obj
 0002:00030ed0       ?select_on_container_copy_construction@?$_Wrap_alloc@V?$allocator@H@std@@@std@@QBE?AU12@U_Nil@2@@Z 00455ed0 f i CommonPathfindingLib:GridVisualizer.obj
 0002:00030f40       ?select_on_container_copy_construction@?$allocator_traits@V?$allocator@H@std@@@std@@SA?AV?$allocator@H@2@ABV32@@Z 00455f40 f i CommonPathfindingLib:GridVisualizer.obj
 0002:00030fa0       ?size@?$_Tree@V?$_Tmap_traits@UALLEGRO_COLOR@@V?$vector@HV?$allocator@H@std@@@std@@VAllegroColorCompare@@V?$allocator@U?$pair@$$CBUALLEGRO_COLOR@@V?$vector@HV?$allocator@H@std@@@std@@@std@@@3@$0A@@std@@@std@@QBEIXZ 00455fa0 f i CommonPathfindingLib:GridVisualizer.obj
 0002:00031000       ??$?0$$V@?$_Compressed_pair@U?$_Wrap_alloc@V?$allocator@U?$_Tree_node@U?$pair@$$CBHPAVSprite@@@std@@PAX@std@@@std@@@std@@V?$_Tree_val@U?$_Tree_simple_types@U?$pair@$$CBHPAVSprite@@@std@@@std@@@2@$00@std@@QAE@U_Zero_then_variadic_args_t@1@@Z 00456000 f i CommonPathfindingLib:SpriteManager.obj
 0002:00031060       ??$?0AAU?$_Wrap_alloc@V?$allocator@U?$_Tree_node@U?$pair@$$CBHPAVSprite@@@std@@PAX@std@@@std@@@std@@@?$_Wrap_alloc@V?$allocator@U_Container_proxy@std@@@std@@@std@@QAE@AAU?$_Wrap_alloc@V?$allocator@U?$_Tree_node@U?$pair@$$CBHPAVSprite@@@std@@PAX@std@@@std@@@1@@Z 00456060 f i CommonPathfindingLib:SpriteManager.obj
 0002:000310d0       ??$?0AAV?$_Tree_iterator@V?$_Tree_val@U?$_Tree_simple_types@U?$pair@$$CBHPAVSprite@@@std@@@std@@@std@@@std@@_NX$0A@@?$pair@V?$_Tree_iterator@V?$_Tree_val@U?$_Tree_simple_types@U?$pair@$$CBHPAVSprite@@@std@@@std@@@std@@@std@@_N@std@@QAE@AAV?$_Tree_iterator@V?$_Tree_val@U?$_Tree_simple_types@U?$pair@$$CBHPAVSprite@@@std@@@std@@@std@@@1@$$QA_N@Z 004560d0 f i CommonPathfindingLib:SpriteManager.obj
 0002:00031150       ??$?0ABH$$Z$$V@?$pair@$$CBHPAVSprite@@@std@@QAE@Upiecewise_construct_t@1@V?$tuple@ABH@1@V?$tuple@$$V@1@@Z 00456150 f i CommonPathfindingLib:SpriteManager.obj
 0002:000311d0       ??$?0ABU?$less@H@std@@U_Zero_then_variadic_args_t@1@@?$_Compressed_pair@U?$less@H@std@@V?$_Compressed_pair@U?$_Wrap_alloc@V?$allocator@U?$_Tree_node@U?$pair@$$CBHPAVSprite@@@std@@PAX@std@@@std@@@std@@V?$_Tree_val@U?$_Tree_simple_types@U?$pair@$$CBHPAVSprite@@@std@@@std@@@2@$00@2@$00@std@@QAE@U_One_then_variadic_args_t@1@ABU?$less@H@1@$$QAU_Zero_then_variadic_args_t@1@@Z 004561d0 f i CommonPathfindingLib:SpriteManager.obj
 0002:00031250       ??$?0U?$_Tree_node@U?$pair@$$CBHPAVSprite@@@std@@PAX@std@@@?$allocator@U_Container_proxy@std@@@std@@QAE@ABV?$allocator@U?$_Tree_node@U?$pair@$$CBHPAVSprite@@@std@@PAX@std@@@1@@Z 00456250 f i CommonPathfindingLib:SpriteManager.obj
 0002:00031290       ??$?0V?$_Tree_iterator@V?$_Tree_val@U?$_Tree_simple_types@U?$pair@$$CBHPAVSprite@@@std@@@std@@@std@@@std@@_NX$0A@@?$pair@V?$_Tree_iterator@V?$_Tree_val@U?$_Tree_simple_types@U?$pair@$$CBHPAVSprite@@@std@@@std@@@std@@@std@@_N@std@@QAE@$$QAV?$_Tree_iterator@V?$_Tree_val@U?$_Tree_simple_types@U?$pair@$$CBHPAVSprite@@@std@@@std@@@std@@@1@$$QA_N@Z 00456290 f i CommonPathfindingLib:SpriteManager.obj
 0002:00031310       ??$?0V?$tuple@ABH@std@@V?$tuple@$$V@1@$0A@$$Z$S@?$pair@$$CBHPAVSprite@@@std@@QAE@AAV?$tuple@ABH@1@AAV?$tuple@$$V@1@U?$integer_sequence@I$0A@@1@U?$integer_sequence@I$S@1@@Z 00456310 f i CommonPathfindingLib:SpriteManager.obj
 0002:00031390       ??$_Buynode@ABUpiecewise_construct_t@std@@V?$tuple@ABH@2@V?$tuple@$$V@2@@?$_Tree_comp_alloc@V?$_Tmap_traits@HPAVSprite@@U?$less@H@std@@V?$allocator@U?$pair@$$CBHPAVSprite@@@std@@@3@$0A@@std@@@std@@QAEPAU?$_Tree_node@U?$pair@$$CBHPAVSprite@@@std@@PAX@1@ABUpiecewise_construct_t@1@$$QAV?$tuple@ABH@1@$$QAV?$tuple@$$V@1@@Z 00456390 f i CommonPathfindingLib:SpriteManager.obj
 0002:00031500       ??$_Buynode_if_nil@AAU?$pair@$$CBHPAVSprite@@@std@@@?$_Tree@V?$_Tmap_traits@HPAVSprite@@U?$less@H@std@@V?$allocator@U?$pair@$$CBHPAVSprite@@@std@@@3@$0A@@std@@@std@@IAEPAU?$_Tree_node@U?$pair@$$CBHPAVSprite@@@std@@PAX@1@PAU21@AAU?$pair@$$CBHPAVSprite@@@1@@Z 00456500 f i CommonPathfindingLib:SpriteManager.obj
 0002:00031540       ??$_Insert_at@AAU?$pair@$$CBHPAVSprite@@@std@@PAU?$_Tree_node@U?$pair@$$CBHPAVSprite@@@std@@PAX@2@@?$_Tree@V?$_Tmap_traits@HPAVSprite@@U?$less@H@std@@V?$allocator@U?$pair@$$CBHPAVSprite@@@std@@@3@$0A@@std@@@std@@IAE?AV?$_Tree_iterator@V?$_Tree_val@U?$_Tree_simple_types@U?$pair@$$CBHPAVSprite@@@std@@@std@@@std@@@1@_NPAU?$_Tree_node@U?$pair@$$CBHPAVSprite@@@std@@PAX@1@AAU?$pair@$$CBHPAVSprite@@@1@1@Z 00456540 f i CommonPathfindingLib:SpriteManager.obj
 0002:00031b00       ??$_Insert_hint@AAU?$pair@$$CBHPAVSprite@@@std@@PAU?$_Tree_node@U?$pair@$$CBHPAVSprite@@@std@@PAX@2@@?$_Tree@V?$_Tmap_traits@HPAVSprite@@U?$less@H@std@@V?$allocator@U?$pair@$$CBHPAVSprite@@@std@@@3@$0A@@std@@@std@@IAE?AV?$_Tree_iterator@V?$_Tree_val@U?$_Tree_simple_types@U?$pair@$$CBHPAVSprite@@@std@@@std@@@std@@@1@V?$_Tree_const_iterator@V?$_Tree_val@U?$_Tree_simple_types@U?$pair@$$CBHPAVSprite@@@std@@@std@@@std@@@1@AAU?$pair@$$CBHPAVSprite@@@1@PAU?$_Tree_node@U?$pair@$$CBHPAVSprite@@@std@@PAX@1@@Z 00456b00 f i CommonPathfindingLib:SpriteManager.obj
 0002:00033050       ??$_Insert_nohint@AAU?$pair@$$CBHPAVSprite@@@std@@PAU?$_Tree_node@U?$pair@$$CBHPAVSprite@@@std@@PAX@2@@?$_Tree@V?$_Tmap_traits@HPAVSprite@@U?$less@H@std@@V?$allocator@U?$pair@$$CBHPAVSprite@@@std@@@3@$0A@@std@@@std@@IAE?AU?$pair@V?$_Tree_iterator@V?$_Tree_val@U?$_Tree_simple_types@U?$pair@$$CBHPAVSprite@@@std@@@std@@@std@@@std@@_N@1@_NAAU?$pair@$$CBHPAVSprite@@@1@PAU?$_Tree_node@U?$pair@$$CBHPAVSprite@@@std@@PAX@1@@Z 00458050 f i CommonPathfindingLib:SpriteManager.obj
 0002:00033720       ??$_Kfn@$$CBHPAVSprite@@@?$_Tmap_traits@HPAVSprite@@U?$less@H@std@@V?$allocator@U?$pair@$$CBHPAVSprite@@@std@@@3@$0A@@std@@SAABHABU?$pair@$$CBHPAVSprite@@@1@@Z 00458720 f i CommonPathfindingLib:SpriteManager.obj
 0002:00033760       ??$_Lbound@H@?$_Tree@V?$_Tmap_traits@HPAVSprite@@U?$less@H@std@@V?$allocator@U?$pair@$$CBHPAVSprite@@@std@@@3@$0A@@std@@@std@@IBEPAU?$_Tree_node@U?$pair@$$CBHPAVSprite@@@std@@PAX@1@ABH@Z 00458760 f i CommonPathfindingLib:SpriteManager.obj
 0002:00033850       ??$_Try_emplace@ABH$$V@?$map@HPAVSprite@@U?$less@H@std@@V?$allocator@U?$pair@$$CBHPAVSprite@@@std@@@3@@std@@QAE?AU?$pair@V?$_Tree_iterator@V?$_Tree_val@U?$_Tree_simple_types@U?$pair@$$CBHPAVSprite@@@std@@@std@@@std@@@std@@_N@1@ABH@Z 00458850 f i CommonPathfindingLib:SpriteManager.obj
 0002:00033ba0       ??$addressof@PAU?$_Tree_node@U?$pair@$$CBHPAVSprite@@@std@@PAX@std@@@std@@YAPAPAU?$_Tree_node@U?$pair@$$CBHPAVSprite@@@std@@PAX@0@AAPAU10@@Z 00458ba0 f i CommonPathfindingLib:SpriteManager.obj
 0002:00033be0       ??$addressof@U?$pair@$$CBHPAVSprite@@@std@@@std@@YAPAU?$pair@$$CBHPAVSprite@@@0@AAU10@@Z 00458be0 f i CommonPathfindingLib:SpriteManager.obj
 0002:00033c20       ??$construct@PAU?$_Tree_node@U?$pair@$$CBHPAVSprite@@@std@@PAX@std@@AAPAU12@@?$_Wrap_alloc@V?$allocator@U?$_Tree_node@U?$pair@$$CBHPAVSprite@@@std@@PAX@std@@@std@@@std@@QAEXPAPAU?$_Tree_node@U?$pair@$$CBHPAVSprite@@@std@@PAX@1@AAPAU21@@Z 00458c20 f i CommonPathfindingLib:SpriteManager.obj
 0002:00033c90       ??$construct@PAU?$_Tree_node@U?$pair@$$CBHPAVSprite@@@std@@PAX@std@@AAPAU12@@?$allocator@U?$_Tree_node@U?$pair@$$CBHPAVSprite@@@std@@PAX@std@@@std@@QAEXPAPAU?$_Tree_node@U?$pair@$$CBHPAVSprite@@@std@@PAX@1@AAPAU21@@Z 00458c90 f i CommonPathfindingLib:SpriteManager.obj
 0002:00033d40       ??$construct@PAU?$_Tree_node@U?$pair@$$CBHPAVSprite@@@std@@PAX@std@@AAPAU12@@?$allocator_traits@V?$allocator@U?$_Tree_node@U?$pair@$$CBHPAVSprite@@@std@@PAX@std@@@std@@@std@@SAXAAV?$allocator@U?$_Tree_node@U?$pair@$$CBHPAVSprite@@@std@@PAX@std@@@1@PAPAU?$_Tree_node@U?$pair@$$CBHPAVSprite@@@std@@PAX@1@AAPAU31@@Z 00458d40 f i CommonPathfindingLib:SpriteManager.obj
 0002:00033da0       ??$construct@U?$pair@$$CBHPAVSprite@@@std@@ABUpiecewise_construct_t@2@V?$tuple@ABH@2@V?$tuple@$$V@2@@?$_Wrap_alloc@V?$allocator@U?$_Tree_node@U?$pair@$$CBHPAVSprite@@@std@@PAX@std@@@std@@@std@@QAEXPAU?$pair@$$CBHPAVSprite@@@1@ABUpiecewise_construct_t@1@$$QAV?$tuple@ABH@1@$$QAV?$tuple@$$V@1@@Z 00458da0 f i CommonPathfindingLib:SpriteManager.obj
 0002:00033e30       ??$construct@U?$pair@$$CBHPAVSprite@@@std@@ABUpiecewise_construct_t@2@V?$tuple@ABH@2@V?$tuple@$$V@2@@?$allocator@U?$_Tree_node@U?$pair@$$CBHPAVSprite@@@std@@PAX@std@@@std@@QAEXPAU?$pair@$$CBHPAVSprite@@@1@ABUpiecewise_construct_t@1@$$QAV?$tuple@ABH@1@$$QAV?$tuple@$$V@1@@Z 00458e30 f i CommonPathfindingLib:SpriteManager.obj
 0002:00033f70       ??$construct@U?$pair@$$CBHPAVSprite@@@std@@ABUpiecewise_construct_t@2@V?$tuple@ABH@2@V?$tuple@$$V@2@@?$allocator_traits@V?$allocator@U?$_Tree_node@U?$pair@$$CBHPAVSprite@@@std@@PAX@std@@@std@@@std@@SAXAAV?$allocator@U?$_Tree_node@U?$pair@$$CBHPAVSprite@@@std@@PAX@std@@@1@PAU?$pair@$$CBHPAVSprite@@@1@ABUpiecewise_construct_t@1@$$QAV?$tuple@ABH@1@$$QAV?$tuple@$$V@1@@Z 00458f70 f i CommonPathfindingLib:SpriteManager.obj
 0002:00033ff0       ??$destroy@PAU?$_Tree_node@U?$pair@$$CBHPAVSprite@@@std@@PAX@std@@@?$_Wrap_alloc@V?$allocator@U?$_Tree_node@U?$pair@$$CBHPAVSprite@@@std@@PAX@std@@@std@@@std@@QAEXPAPAU?$_Tree_node@U?$pair@$$CBHPAVSprite@@@std@@PAX@1@@Z 00458ff0 f i CommonPathfindingLib:SpriteManager.obj
 0002:00034050       ??$destroy@PAU?$_Tree_node@U?$pair@$$CBHPAVSprite@@@std@@PAX@std@@@?$allocator@U?$_Tree_node@U?$pair@$$CBHPAVSprite@@@std@@PAX@std@@@std@@QAEXPAPAU?$_Tree_node@U?$pair@$$CBHPAVSprite@@@std@@PAX@1@@Z 00459050 f i CommonPathfindingLib:SpriteManager.obj
 0002:00034090       ??$destroy@PAU?$_Tree_node@U?$pair@$$CBHPAVSprite@@@std@@PAX@std@@@?$allocator_traits@V?$allocator@U?$_Tree_node@U?$pair@$$CBHPAVSprite@@@std@@PAX@std@@@std@@@std@@SAXAAV?$allocator@U?$_Tree_node@U?$pair@$$CBHPAVSprite@@@std@@PAX@std@@@1@PAPAU?$_Tree_node@U?$pair@$$CBHPAVSprite@@@std@@PAX@1@@Z 00459090 f i CommonPathfindingLib:SpriteManager.obj
 0002:000340e0       ??$destroy@U?$pair@$$CBHPAVSprite@@@std@@@?$_Wrap_alloc@V?$allocator@U?$_Tree_node@U?$pair@$$CBHPAVSprite@@@std@@PAX@std@@@std@@@std@@QAEXPAU?$pair@$$CBHPAVSprite@@@1@@Z 004590e0 f i CommonPathfindingLib:SpriteManager.obj
 0002:00034140       ??$destroy@U?$pair@$$CBHPAVSprite@@@std@@@?$allocator@U?$_Tree_node@U?$pair@$$CBHPAVSprite@@@std@@PAX@std@@@std@@QAEXPAU?$pair@$$CBHPAVSprite@@@1@@Z 00459140 f i CommonPathfindingLib:SpriteManager.obj
 0002:00034180       ??$destroy@U?$pair@$$CBHPAVSprite@@@std@@@?$allocator_traits@V?$allocator@U?$_Tree_node@U?$pair@$$CBHPAVSprite@@@std@@PAX@std@@@std@@@std@@SAXAAV?$allocator@U?$_Tree_node@U?$pair@$$CBHPAVSprite@@@std@@PAX@std@@@1@PAU?$pair@$$CBHPAVSprite@@@1@@Z 00459180 f i CommonPathfindingLib:SpriteManager.obj
 0002:000341d0       ??$emplace_hint@ABUpiecewise_construct_t@std@@V?$tuple@ABH@2@V?$tuple@$$V@2@@?$_Tree@V?$_Tmap_traits@HPAVSprite@@U?$less@H@std@@V?$allocator@U?$pair@$$CBHPAVSprite@@@std@@@3@$0A@@std@@@std@@QAE?AV?$_Tree_iterator@V?$_Tree_val@U?$_Tree_simple_types@U?$pair@$$CBHPAVSprite@@@std@@@std@@@std@@@1@V?$_Tree_const_iterator@V?$_Tree_val@U?$_Tree_simple_types@U?$pair@$$CBHPAVSprite@@@std@@@std@@@std@@@1@ABUpiecewise_construct_t@1@$$QAV?$tuple@ABH@1@$$QAV?$tuple@$$V@1@@Z 004591d0 f i CommonPathfindingLib:SpriteManager.obj
 0002:00034320       ??$forward@AAPAU?$_Tree_node@U?$pair@$$CBHPAVSprite@@@std@@PAX@std@@@std@@YAAAPAU?$_Tree_node@U?$pair@$$CBHPAVSprite@@@std@@PAX@0@AAPAU10@@Z 00459320 f i CommonPathfindingLib:SpriteManager.obj
 0002:00034360       ??$forward@AAU?$_Wrap_alloc@V?$allocator@U?$_Tree_node@U?$pair@$$CBHPAVSprite@@@std@@PAX@std@@@std@@@std@@@std@@YAAAU?$_Wrap_alloc@V?$allocator@U?$_Tree_node@U?$pair@$$CBHPAVSprite@@@std@@PAX@std@@@std@@@0@AAU10@@Z 00459360 f i CommonPathfindingLib:SpriteManager.obj
 0002:000343a0       ??$forward@AAU?$pair@$$CBHPAVSprite@@@std@@@std@@YAAAU?$pair@$$CBHPAVSprite@@@0@AAU10@@Z 004593a0 f i CommonPathfindingLib:SpriteManager.obj
 0002:000343e0       ??$forward@AAV?$_Tree_iterator@V?$_Tree_val@U?$_Tree_simple_types@U?$pair@$$CBHPAVSprite@@@std@@@std@@@std@@@std@@@std@@YAAAV?$_Tree_iterator@V?$_Tree_val@U?$_Tree_simple_types@U?$pair@$$CBHPAVSprite@@@std@@@std@@@std@@@0@AAV10@@Z 004593e0 f i CommonPathfindingLib:SpriteManager.obj
 0002:00034420       ??$forward@V?$_Tree_iterator@V?$_Tree_val@U?$_Tree_simple_types@U?$pair@$$CBHPAVSprite@@@std@@@std@@@std@@@std@@@std@@YA$$QAV?$_Tree_iterator@V?$_Tree_val@U?$_Tree_simple_types@U?$pair@$$CBHPAVSprite@@@std@@@std@@@std@@@0@AAV10@@Z 00459420 f i CommonPathfindingLib:SpriteManager.obj
 0002:00034460       ??$try_emplace@$$V@?$map@HPAVSprite@@U?$less@H@std@@V?$allocator@U?$pair@$$CBHPAVSprite@@@std@@@3@@std@@QAE?AU?$pair@V?$_Tree_iterator@V?$_Tree_val@U?$_Tree_simple_types@U?$pair@$$CBHPAVSprite@@@std@@@std@@@std@@@std@@_N@1@ABH@Z 00459460 f i CommonPathfindingLib:SpriteManager.obj
 0002:000344e0       ??0?$_Iterator012@Ubidirectional_iterator_tag@std@@U?$pair@$$CBHPAVSprite@@@2@HPBU32@ABU32@U_Iterator_base12@2@@std@@QAE@$$QAU01@@Z 004594e0 f i CommonPathfindingLib:SpriteManager.obj
 0002:00034540       ??0?$_Iterator012@Ubidirectional_iterator_tag@std@@U?$pair@$$CBHPAVSprite@@@2@HPBU32@ABU32@U_Iterator_base12@2@@std@@QAE@ABU01@@Z 00459540 f i CommonPathfindingLib:SpriteManager.obj
 0002:000345a0       ??0?$_Iterator012@Ubidirectional_iterator_tag@std@@U?$pair@$$CBHPAVSprite@@@2@HPBU32@ABU32@U_Iterator_base12@2@@std@@QAE@XZ 004595a0 f i CommonPathfindingLib:SpriteManager.obj
 0002:00034600       ??0?$_Tree@V?$_Tmap_traits@HPAVSprite@@U?$less@H@std@@V?$allocator@U?$pair@$$CBHPAVSprite@@@std@@@3@$0A@@std@@@std@@QAE@ABU?$less@H@1@@Z 00459600 f i CommonPathfindingLib:SpriteManager.obj
 0002:00034660       ??0?$_Tree_comp_alloc@V?$_Tmap_traits@HPAVSprite@@U?$less@H@std@@V?$allocator@U?$pair@$$CBHPAVSprite@@@std@@@3@$0A@@std@@@std@@QAE@ABU?$less@H@1@@Z 00459660 f i CommonPathfindingLib:SpriteManager.obj
 0002:00034720       ??0?$_Tree_const_iterator@V?$_Tree_val@U?$_Tree_simple_types@U?$pair@$$CBHPAVSprite@@@std@@@std@@@std@@@std@@QAE@$$QAV01@@Z 00459720 f i CommonPathfindingLib:SpriteManager.obj
 0002:00034780       ??0?$_Tree_const_iterator@V?$_Tree_val@U?$_Tree_simple_types@U?$pair@$$CBHPAVSprite@@@std@@@std@@@std@@@std@@QAE@ABV01@@Z 00459780 f i CommonPathfindingLib:SpriteManager.obj
 0002:000347e0       ??0?$_Tree_const_iterator@V?$_Tree_val@U?$_Tree_simple_types@U?$pair@$$CBHPAVSprite@@@std@@@std@@@std@@@std@@QAE@PAU?$_Tree_node@U?$pair@$$CBHPAVSprite@@@std@@PAX@1@PBV?$_Tree_val@U?$_Tree_simple_types@U?$pair@$$CBHPAVSprite@@@std@@@std@@@1@@Z 004597e0 f i CommonPathfindingLib:SpriteManager.obj
 0002:00034840       ??0?$_Tree_const_iterator@V?$_Tree_val@U?$_Tree_simple_types@U?$pair@$$CBHPAVSprite@@@std@@@std@@@std@@@std@@QAE@XZ 00459840 f i CommonPathfindingLib:SpriteManager.obj
 0002:000348a0       ??0?$_Tree_iterator@V?$_Tree_val@U?$_Tree_simple_types@U?$pair@$$CBHPAVSprite@@@std@@@std@@@std@@@std@@QAE@$$QAV01@@Z 004598a0 f i CommonPathfindingLib:SpriteManager.obj
 0002:00034900       ??0?$_Tree_iterator@V?$_Tree_val@U?$_Tree_simple_types@U?$pair@$$CBHPAVSprite@@@std@@@std@@@std@@@std@@QAE@ABV01@@Z 00459900 f i CommonPathfindingLib:SpriteManager.obj
 0002:00034960       ??0?$_Tree_iterator@V?$_Tree_val@U?$_Tree_simple_types@U?$pair@$$CBHPAVSprite@@@std@@@std@@@std@@@std@@QAE@PAU?$_Tree_node@U?$pair@$$CBHPAVSprite@@@std@@PAX@1@PBV?$_Tree_val@U?$_Tree_simple_types@U?$pair@$$CBHPAVSprite@@@std@@@std@@@1@@Z 00459960 f i CommonPathfindingLib:SpriteManager.obj
 0002:000349c0       ??0?$_Tree_iterator@V?$_Tree_val@U?$_Tree_simple_types@U?$pair@$$CBHPAVSprite@@@std@@@std@@@std@@@std@@QAE@XZ 004599c0 f i CommonPathfindingLib:SpriteManager.obj
 0002:00034a20       ??0?$_Tree_unchecked_const_iterator@V?$_Tree_val@U?$_Tree_simple_types@U?$pair@$$CBHPAVSprite@@@std@@@std@@@std@@U_Iterator_base12@2@@std@@QAE@$$QAV01@@Z 00459a20 f i CommonPathfindingLib:SpriteManager.obj
 0002:00034a90       ??0?$_Tree_unchecked_const_iterator@V?$_Tree_val@U?$_Tree_simple_types@U?$pair@$$CBHPAVSprite@@@std@@@std@@@std@@U_Iterator_base12@2@@std@@QAE@ABV01@@Z 00459a90 f i CommonPathfindingLib:SpriteManager.obj
 0002:00034b00       ??0?$_Tree_unchecked_const_iterator@V?$_Tree_val@U?$_Tree_simple_types@U?$pair@$$CBHPAVSprite@@@std@@@std@@@std@@U_Iterator_base12@2@@std@@QAE@PAU?$_Tree_node@U?$pair@$$CBHPAVSprite@@@std@@PAX@1@PBV?$_Tree_val@U?$_Tree_simple_types@U?$pair@$$CBHPAVSprite@@@std@@@std@@@1@@Z 00459b00 f i CommonPathfindingLib:SpriteManager.obj
 0002:00034bc0       ??0?$_Tree_unchecked_const_iterator@V?$_Tree_val@U?$_Tree_simple_types@U?$pair@$$CBHPAVSprite@@@std@@@std@@@std@@U_Iterator_base12@2@@std@@QAE@XZ 00459bc0 f i CommonPathfindingLib:SpriteManager.obj
 0002:00034c20       ??0?$_Tree_val@U?$_Tree_simple_types@U?$pair@$$CBHPAVSprite@@@std@@@std@@@std@@QAE@XZ 00459c20 f i CommonPathfindingLib:SpriteManager.obj
 0002:00034c90       ??0?$_Wrap_alloc@V?$allocator@U?$_Tree_node@U?$pair@$$CBHPAVSprite@@@std@@PAX@std@@@std@@@std@@QAE@XZ 00459c90 f i CommonPathfindingLib:SpriteManager.obj
 0002:00034cf0       ??0?$allocator@U?$_Tree_node@U?$pair@$$CBHPAVSprite@@@std@@PAX@std@@@std@@QAE@XZ 00459cf0 f i CommonPathfindingLib:SpriteManager.obj
 0002:00034d30       ??0?$map@HPAVSprite@@U?$less@H@std@@V?$allocator@U?$pair@$$CBHPAVSprite@@@std@@@3@@std@@QAE@XZ 00459d30 f i CommonPathfindingLib:SpriteManager.obj
 0002:00034d90       ??0SpriteManager@@QAE@XZ   00459d90 f   CommonPathfindingLib:SpriteManager.obj
 0002:00034df0       ??1?$_Compressed_pair@U?$_Wrap_alloc@V?$allocator@U?$_Tree_node@U?$pair@$$CBHPAVSprite@@@std@@PAX@std@@@std@@@std@@V?$_Tree_val@U?$_Tree_simple_types@U?$pair@$$CBHPAVSprite@@@std@@@std@@@2@$00@std@@QAE@XZ 00459df0 f i CommonPathfindingLib:SpriteManager.obj
 0002:00034e40       ??1?$_Compressed_pair@U?$less@H@std@@V?$_Compressed_pair@U?$_Wrap_alloc@V?$allocator@U?$_Tree_node@U?$pair@$$CBHPAVSprite@@@std@@PAX@std@@@std@@@std@@V?$_Tree_val@U?$_Tree_simple_types@U?$pair@$$CBHPAVSprite@@@std@@@std@@@2@$00@2@$00@std@@QAE@XZ 00459e40 f i CommonPathfindingLib:SpriteManager.obj
 0002:00034e90       ??1?$_Iterator012@Ubidirectional_iterator_tag@std@@U?$pair@$$CBHPAVSprite@@@2@HPBU32@ABU32@U_Iterator_base12@2@@std@@QAE@XZ 00459e90 f i CommonPathfindingLib:SpriteManager.obj
 0002:00034ee0       ??1?$_Tree@V?$_Tmap_traits@HPAVSprite@@U?$less@H@std@@V?$allocator@U?$pair@$$CBHPAVSprite@@@std@@@3@$0A@@std@@@std@@QAE@XZ 00459ee0 f i CommonPathfindingLib:SpriteManager.obj
 0002:00034f70       ??1?$_Tree_comp_alloc@V?$_Tmap_traits@HPAVSprite@@U?$less@H@std@@V?$allocator@U?$pair@$$CBHPAVSprite@@@std@@@3@$0A@@std@@@std@@QAE@XZ 00459f70 f i CommonPathfindingLib:SpriteManager.obj
 0002:00035020       ??1?$_Tree_const_iterator@V?$_Tree_val@U?$_Tree_simple_types@U?$pair@$$CBHPAVSprite@@@std@@@std@@@std@@@std@@QAE@XZ 0045a020 f i CommonPathfindingLib:SpriteManager.obj
 0002:00035070       ??1?$_Tree_iterator@V?$_Tree_val@U?$_Tree_simple_types@U?$pair@$$CBHPAVSprite@@@std@@@std@@@std@@@std@@QAE@XZ 0045a070 f i CommonPathfindingLib:SpriteManager.obj
 0002:000350c0       ??1?$_Tree_unchecked_const_iterator@V?$_Tree_val@U?$_Tree_simple_types@U?$pair@$$CBHPAVSprite@@@std@@@std@@@std@@U_Iterator_base12@2@@std@@QAE@XZ 0045a0c0 f i CommonPathfindingLib:SpriteManager.obj
 0002:00035110       ??1?$_Tree_val@U?$_Tree_simple_types@U?$pair@$$CBHPAVSprite@@@std@@@std@@@std@@QAE@XZ 0045a110 f i CommonPathfindingLib:SpriteManager.obj
 0002:00035160       ??1?$map@HPAVSprite@@U?$less@H@std@@V?$allocator@U?$pair@$$CBHPAVSprite@@@std@@@3@@std@@QAE@XZ 0045a160 f i CommonPathfindingLib:SpriteManager.obj
 0002:000351b0       ??1?$pair@V?$_Tree_iterator@V?$_Tree_val@U?$_Tree_simple_types@U?$pair@$$CBHPAVSprite@@@std@@@std@@@std@@@std@@_N@std@@QAE@XZ 0045a1b0 f i CommonPathfindingLib:SpriteManager.obj
 0002:00035200       ??1SpriteManager@@QAE@XZ   0045a200 f   CommonPathfindingLib:SpriteManager.obj
 0002:000353b0       ??4?$_Iterator012@Ubidirectional_iterator_tag@std@@U?$pair@$$CBHPAVSprite@@@2@HPBU32@ABU32@U_Iterator_base12@2@@std@@QAEAAU01@$$QAU01@@Z 0045a3b0 f i CommonPathfindingLib:SpriteManager.obj
 0002:00035410       ??4?$_Iterator012@Ubidirectional_iterator_tag@std@@U?$pair@$$CBHPAVSprite@@@2@HPBU32@ABU32@U_Iterator_base12@2@@std@@QAEAAU01@ABU01@@Z 0045a410 f i CommonPathfindingLib:SpriteManager.obj
 0002:00035470       ??4?$_Tree_const_iterator@V?$_Tree_val@U?$_Tree_simple_types@U?$pair@$$CBHPAVSprite@@@std@@@std@@@std@@@std@@QAEAAV01@$$QAV01@@Z 0045a470 f i CommonPathfindingLib:SpriteManager.obj
 0002:000354d0       ??4?$_Tree_const_iterator@V?$_Tree_val@U?$_Tree_simple_types@U?$pair@$$CBHPAVSprite@@@std@@@std@@@std@@@std@@QAEAAV01@ABV01@@Z 0045a4d0 f i CommonPathfindingLib:SpriteManager.obj
 0002:00035530       ??4?$_Tree_iterator@V?$_Tree_val@U?$_Tree_simple_types@U?$pair@$$CBHPAVSprite@@@std@@@std@@@std@@@std@@QAEAAV01@$$QAV01@@Z 0045a530 f i CommonPathfindingLib:SpriteManager.obj
 0002:00035590       ??4?$_Tree_unchecked_const_iterator@V?$_Tree_val@U?$_Tree_simple_types@U?$pair@$$CBHPAVSprite@@@std@@@std@@@std@@U_Iterator_base12@2@@std@@QAEAAV01@$$QAV01@@Z 0045a590 f i CommonPathfindingLib:SpriteManager.obj
 0002:00035600       ??4?$_Tree_unchecked_const_iterator@V?$_Tree_val@U?$_Tree_simple_types@U?$pair@$$CBHPAVSprite@@@std@@@std@@@std@@U_Iterator_base12@2@@std@@QAEAAV01@ABV01@@Z 0045a600 f i CommonPathfindingLib:SpriteManager.obj
 0002:00035670       ??8?$_Tree_const_iterator@V?$_Tree_val@U?$_Tree_simple_types@U?$pair@$$CBHPAVSprite@@@std@@@std@@@std@@@std@@QBE_NABV01@@Z 0045a670 f i CommonPathfindingLib:SpriteManager.obj
 0002:000357c0       ??9?$_Tree_const_iterator@V?$_Tree_val@U?$_Tree_simple_types@U?$pair@$$CBHPAVSprite@@@std@@@std@@@std@@@std@@QBE_NABV01@@Z 0045a7c0 f i CommonPathfindingLib:SpriteManager.obj
 0002:00035850       ??A?$map@HPAVSprite@@U?$less@H@std@@V?$allocator@U?$pair@$$CBHPAVSprite@@@std@@@3@@std@@QAEAAPAVSprite@@ABH@Z 0045a850 f i CommonPathfindingLib:SpriteManager.obj
 0002:00035940       ??C?$_Tree_iterator@V?$_Tree_val@U?$_Tree_simple_types@U?$pair@$$CBHPAVSprite@@@std@@@std@@@std@@@std@@QBEPAU?$pair@$$CBHPAVSprite@@@1@XZ 0045a940 f i CommonPathfindingLib:SpriteManager.obj
 0002:000359a0       ??D?$_Tree_const_iterator@V?$_Tree_val@U?$_Tree_simple_types@U?$pair@$$CBHPAVSprite@@@std@@@std@@@std@@@std@@QBEABU?$pair@$$CBHPAVSprite@@@1@XZ 0045a9a0 f i CommonPathfindingLib:SpriteManager.obj
 0002:00035ae0       ??D?$_Tree_iterator@V?$_Tree_val@U?$_Tree_simple_types@U?$pair@$$CBHPAVSprite@@@std@@@std@@@std@@@std@@QBEAAU?$pair@$$CBHPAVSprite@@@1@XZ 0045aae0 f i CommonPathfindingLib:SpriteManager.obj
 0002:00035b30       ??E?$_Tree_const_iterator@V?$_Tree_val@U?$_Tree_simple_types@U?$pair@$$CBHPAVSprite@@@std@@@std@@@std@@@std@@QAE?AV01@H@Z 0045ab30 f i CommonPathfindingLib:SpriteManager.obj
 0002:00035c50       ??E?$_Tree_const_iterator@V?$_Tree_val@U?$_Tree_simple_types@U?$pair@$$CBHPAVSprite@@@std@@@std@@@std@@@std@@QAEAAV01@XZ 0045ac50 f i CommonPathfindingLib:SpriteManager.obj
 0002:00035d90       ??E?$_Tree_iterator@V?$_Tree_val@U?$_Tree_simple_types@U?$pair@$$CBHPAVSprite@@@std@@@std@@@std@@@std@@QAEAAV01@XZ 0045ad90 f i CommonPathfindingLib:SpriteManager.obj
 0002:00035df0       ??E?$_Tree_unchecked_const_iterator@V?$_Tree_val@U?$_Tree_simple_types@U?$pair@$$CBHPAVSprite@@@std@@@std@@@std@@U_Iterator_base12@2@@std@@QAEAAV01@XZ 0045adf0 f i CommonPathfindingLib:SpriteManager.obj
 0002:00035f20       ??F?$_Tree_const_iterator@V?$_Tree_val@U?$_Tree_simple_types@U?$pair@$$CBHPAVSprite@@@std@@@std@@@std@@@std@@QAEAAV01@XZ 0045af20 f i CommonPathfindingLib:SpriteManager.obj
 0002:00036100       ??F?$_Tree_iterator@V?$_Tree_val@U?$_Tree_simple_types@U?$pair@$$CBHPAVSprite@@@std@@@std@@@std@@@std@@QAEAAV01@XZ 0045b100 f i CommonPathfindingLib:SpriteManager.obj
 0002:00036160       ??F?$_Tree_unchecked_const_iterator@V?$_Tree_val@U?$_Tree_simple_types@U?$pair@$$CBHPAVSprite@@@std@@@std@@@std@@U_Iterator_base12@2@@std@@QAEAAV01@XZ 0045b160 f i CommonPathfindingLib:SpriteManager.obj
 0002:000362c0       ??_GSprite@@QAEPAXI@Z      0045b2c0 f i CommonPathfindingLib:SpriteManager.obj
 0002:00036350       ?_Alloc_proxy@?$_Tree_comp_alloc@V?$_Tmap_traits@HPAVSprite@@U?$less@H@std@@V?$allocator@U?$pair@$$CBHPAVSprite@@@std@@@3@$0A@@std@@@std@@QAEXXZ 0045b350 f i CommonPathfindingLib:SpriteManager.obj
 0002:00036450       ?_Buyheadnode@?$_Tree_comp_alloc@V?$_Tmap_traits@HPAVSprite@@U?$less@H@std@@V?$allocator@U?$pair@$$CBHPAVSprite@@@std@@@3@$0A@@std@@@std@@QAEPAU?$_Tree_node@U?$pair@$$CBHPAVSprite@@@std@@PAX@2@XZ 0045b450 f i CommonPathfindingLib:SpriteManager.obj
 0002:00036660       ?_Buynode0@?$_Tree_comp_alloc@V?$_Tmap_traits@HPAVSprite@@U?$less@H@std@@V?$allocator@U?$pair@$$CBHPAVSprite@@@std@@@3@$0A@@std@@@std@@QAEPAU?$_Tree_node@U?$pair@$$CBHPAVSprite@@@std@@PAX@2@XZ 0045b660 f i CommonPathfindingLib:SpriteManager.obj
 0002:00036820       ?_Color@?$_Tree_comp_alloc@V?$_Tmap_traits@HPAVSprite@@U?$less@H@std@@V?$allocator@U?$pair@$$CBHPAVSprite@@@std@@@3@$0A@@std@@@std@@SAAADPAU?$_Tree_node@U?$pair@$$CBHPAVSprite@@@std@@PAX@2@@Z 0045b820 f i CommonPathfindingLib:SpriteManager.obj
 0002:00036870       ?_Color@?$_Tree_val@U?$_Tree_simple_types@U?$pair@$$CBHPAVSprite@@@std@@@std@@@std@@SAAADPAU?$_Tree_node@U?$pair@$$CBHPAVSprite@@@std@@PAX@2@@Z 0045b870 f i CommonPathfindingLib:SpriteManager.obj
 0002:000368b0       ?_Compare@?$_Tree@V?$_Tmap_traits@HPAVSprite@@U?$less@H@std@@V?$allocator@U?$pair@$$CBHPAVSprite@@@std@@@3@$0A@@std@@@std@@IBE_NABH0@Z 0045b8b0 f i CommonPathfindingLib:SpriteManager.obj
 0002:00036930       ?_Construct@?$_Tree_comp_alloc@V?$_Tmap_traits@HPAVSprite@@U?$less@H@std@@V?$allocator@U?$pair@$$CBHPAVSprite@@@std@@@3@$0A@@std@@@std@@QAEXXZ 0045b930 f i CommonPathfindingLib:SpriteManager.obj
 0002:00036a20       ?_Destroy_if_not_nil@?$_Tree@V?$_Tmap_traits@HPAVSprite@@U?$less@H@std@@V?$allocator@U?$pair@$$CBHPAVSprite@@@std@@@3@$0A@@std@@@std@@IAEXPAU?$_Tree_node@U?$pair@$$CBHPAVSprite@@@std@@PAX@2@@Z 0045ba20 f i CommonPathfindingLib:SpriteManager.obj
 0002:00036ab0       ?_Erase@?$_Tree@V?$_Tmap_traits@HPAVSprite@@U?$less@H@std@@V?$allocator@U?$pair@$$CBHPAVSprite@@@std@@@3@$0A@@std@@@std@@IAEXPAU?$_Tree_node@U?$pair@$$CBHPAVSprite@@@std@@PAX@2@@Z 0045bab0 f i CommonPathfindingLib:SpriteManager.obj
 0002:00036ba0       ?_Free_proxy@?$_Tree_comp_alloc@V?$_Tmap_traits@HPAVSprite@@U?$less@H@std@@V?$allocator@U?$pair@$$CBHPAVSprite@@@std@@@3@$0A@@std@@@std@@QAEXXZ 0045bba0 f i CommonPathfindingLib:SpriteManager.obj
 0002:00036c90       ?_Freeheadnode@?$_Tree_comp_alloc@V?$_Tmap_traits@HPAVSprite@@U?$less@H@std@@V?$allocator@U?$pair@$$CBHPAVSprite@@@std@@@3@$0A@@std@@@std@@QAEXPAU?$_Tree_node@U?$pair@$$CBHPAVSprite@@@std@@PAX@2@@Z 0045bc90 f i CommonPathfindingLib:SpriteManager.obj
 0002:00036d80       ?_Freenode0@?$_Tree_comp_alloc@V?$_Tmap_traits@HPAVSprite@@U?$less@H@std@@V?$allocator@U?$pair@$$CBHPAVSprite@@@std@@@3@$0A@@std@@@std@@QAEXPAU?$_Tree_node@U?$pair@$$CBHPAVSprite@@@std@@PAX@2@@Z 0045bd80 f i CommonPathfindingLib:SpriteManager.obj
 0002:00036e70       ?_Get_data@?$_Tree_comp_alloc@V?$_Tmap_traits@HPAVSprite@@U?$less@H@std@@V?$allocator@U?$pair@$$CBHPAVSprite@@@std@@@3@$0A@@std@@@std@@QAEAAV?$_Tree_val@U?$_Tree_simple_types@U?$pair@$$CBHPAVSprite@@@std@@@std@@@2@XZ 0045be70 f i CommonPathfindingLib:SpriteManager.obj
 0002:00036ed0       ?_Get_data@?$_Tree_comp_alloc@V?$_Tmap_traits@HPAVSprite@@U?$less@H@std@@V?$allocator@U?$pair@$$CBHPAVSprite@@@std@@@3@$0A@@std@@@std@@QBEABV?$_Tree_val@U?$_Tree_simple_types@U?$pair@$$CBHPAVSprite@@@std@@@std@@@2@XZ 0045bed0 f i CommonPathfindingLib:SpriteManager.obj
 0002:00036f30       ?_Get_first@?$_Compressed_pair@U?$_Wrap_alloc@V?$allocator@U?$_Tree_node@U?$pair@$$CBHPAVSprite@@@std@@PAX@std@@@std@@@std@@V?$_Tree_val@U?$_Tree_simple_types@U?$pair@$$CBHPAVSprite@@@std@@@std@@@2@$00@std@@QAEAAU?$_Wrap_alloc@V?$allocator@U?$_Tree_node@U?$pair@$$CBHPAVSprite@@@std@@PAX@std@@@std@@@2@XZ 0045bf30 f i CommonPathfindingLib:SpriteManager.obj
 0002:00036f70       ?_Get_first@?$_Compressed_pair@U?$_Wrap_alloc@V?$allocator@U?$_Tree_node@U?$pair@$$CBHPAVSprite@@@std@@PAX@std@@@std@@@std@@V?$_Tree_val@U?$_Tree_simple_types@U?$pair@$$CBHPAVSprite@@@std@@@std@@@2@$00@std@@QBEABU?$_Wrap_alloc@V?$allocator@U?$_Tree_node@U?$pair@$$CBHPAVSprite@@@std@@PAX@std@@@std@@@2@XZ 0045bf70 f i CommonPathfindingLib:SpriteManager.obj
 0002:00036fb0       ?_Get_first@?$_Compressed_pair@U?$less@H@std@@V?$_Compressed_pair@U?$_Wrap_alloc@V?$allocator@U?$_Tree_node@U?$pair@$$CBHPAVSprite@@@std@@PAX@std@@@std@@@std@@V?$_Tree_val@U?$_Tree_simple_types@U?$pair@$$CBHPAVSprite@@@std@@@std@@@2@$00@2@$00@std@@QAEAAU?$less@H@2@XZ 0045bfb0 f i CommonPathfindingLib:SpriteManager.obj
 0002:00036ff0       ?_Get_first@?$_Compressed_pair@U?$less@H@std@@V?$_Compressed_pair@U?$_Wrap_alloc@V?$allocator@U?$_Tree_node@U?$pair@$$CBHPAVSprite@@@std@@PAX@std@@@std@@@std@@V?$_Tree_val@U?$_Tree_simple_types@U?$pair@$$CBHPAVSprite@@@std@@@std@@@2@$00@2@$00@std@@QBEABU?$less@H@2@XZ 0045bff0 f i CommonPathfindingLib:SpriteManager.obj
 0002:00037030       ?_Get_second@?$_Compressed_pair@U?$_Wrap_alloc@V?$allocator@U?$_Tree_node@U?$pair@$$CBHPAVSprite@@@std@@PAX@std@@@std@@@std@@V?$_Tree_val@U?$_Tree_simple_types@U?$pair@$$CBHPAVSprite@@@std@@@std@@@2@$00@std@@QAEAAV?$_Tree_val@U?$_Tree_simple_types@U?$pair@$$CBHPAVSprite@@@std@@@std@@@2@XZ 0045c030 f i CommonPathfindingLib:SpriteManager.obj
 0002:00037070       ?_Get_second@?$_Compressed_pair@U?$_Wrap_alloc@V?$allocator@U?$_Tree_node@U?$pair@$$CBHPAVSprite@@@std@@PAX@std@@@std@@@std@@V?$_Tree_val@U?$_Tree_simple_types@U?$pair@$$CBHPAVSprite@@@std@@@std@@@2@$00@std@@QBEABV?$_Tree_val@U?$_Tree_simple_types@U?$pair@$$CBHPAVSprite@@@std@@@std@@@2@XZ 0045c070 f i CommonPathfindingLib:SpriteManager.obj
 0002:000370b0       ?_Get_second@?$_Compressed_pair@U?$less@H@std@@V?$_Compressed_pair@U?$_Wrap_alloc@V?$allocator@U?$_Tree_node@U?$pair@$$CBHPAVSprite@@@std@@PAX@std@@@std@@@std@@V?$_Tree_val@U?$_Tree_simple_types@U?$pair@$$CBHPAVSprite@@@std@@@std@@@2@$00@2@$00@std@@QAEAAV?$_Compressed_pair@U?$_Wrap_alloc@V?$allocator@U?$_Tree_node@U?$pair@$$CBHPAVSprite@@@std@@PAX@std@@@std@@@std@@V?$_Tree_val@U?$_Tree_simple_types@U?$pair@$$CBHPAVSprite@@@std@@@std@@@2@$00@2@XZ 0045c0b0 f i CommonPathfindingLib:SpriteManager.obj
 0002:000370f0       ?_Get_second@?$_Compressed_pair@U?$less@H@std@@V?$_Compressed_pair@U?$_Wrap_alloc@V?$allocator@U?$_Tree_node@U?$pair@$$CBHPAVSprite@@@std@@PAX@std@@@std@@@std@@V?$_Tree_val@U?$_Tree_simple_types@U?$pair@$$CBHPAVSprite@@@std@@@std@@@2@$00@2@$00@std@@QBEABV?$_Compressed_pair@U?$_Wrap_alloc@V?$allocator@U?$_Tree_node@U?$pair@$$CBHPAVSprite@@@std@@PAX@std@@@std@@@std@@V?$_Tree_val@U?$_Tree_simple_types@U?$pair@$$CBHPAVSprite@@@std@@@std@@@2@$00@2@XZ 0045c0f0 f i CommonPathfindingLib:SpriteManager.obj
 0002:00037130       ?_Getal@?$_Tree_comp_alloc@V?$_Tmap_traits@HPAVSprite@@U?$less@H@std@@V?$allocator@U?$pair@$$CBHPAVSprite@@@std@@@3@$0A@@std@@@std@@QAEAAU?$_Wrap_alloc@V?$allocator@U?$_Tree_node@U?$pair@$$CBHPAVSprite@@@std@@PAX@std@@@std@@@2@XZ 0045c130 f i CommonPathfindingLib:SpriteManager.obj
 0002:00037190       ?_Getal@?$_Tree_comp_alloc@V?$_Tmap_traits@HPAVSprite@@U?$less@H@std@@V?$allocator@U?$pair@$$CBHPAVSprite@@@std@@@3@$0A@@std@@@std@@QBEABU?$_Wrap_alloc@V?$allocator@U?$_Tree_node@U?$pair@$$CBHPAVSprite@@@std@@PAX@std@@@std@@@2@XZ 0045c190 f i CommonPathfindingLib:SpriteManager.obj
 0002:000371f0       ?_Getcomp@?$_Tree_comp_alloc@V?$_Tmap_traits@HPAVSprite@@U?$less@H@std@@V?$allocator@U?$pair@$$CBHPAVSprite@@@std@@@3@$0A@@std@@@std@@QAEAAU?$less@H@2@XZ 0045c1f0 f i CommonPathfindingLib:SpriteManager.obj
 0002:00037240       ?_Getcomp@?$_Tree_comp_alloc@V?$_Tmap_traits@HPAVSprite@@U?$less@H@std@@V?$allocator@U?$pair@$$CBHPAVSprite@@@std@@@3@$0A@@std@@@std@@QBEABU?$less@H@2@XZ 0045c240 f i CommonPathfindingLib:SpriteManager.obj
 0002:00037290       ?_Getpfirst@?$_Tree_comp_alloc@V?$_Tmap_traits@HPAVSprite@@U?$less@H@std@@V?$allocator@U?$pair@$$CBHPAVSprite@@@std@@@3@$0A@@std@@@std@@QBEPAPAU_Iterator_base12@2@XZ 0045c290 f i CommonPathfindingLib:SpriteManager.obj
 0002:000372f0       ?_Isnil@?$_Tree_comp_alloc@V?$_Tmap_traits@HPAVSprite@@U?$less@H@std@@V?$allocator@U?$pair@$$CBHPAVSprite@@@std@@@3@$0A@@std@@@std@@SAAADPAU?$_Tree_node@U?$pair@$$CBHPAVSprite@@@std@@PAX@2@@Z 0045c2f0 f i CommonPathfindingLib:SpriteManager.obj
 0002:00037340       ?_Isnil@?$_Tree_val@U?$_Tree_simple_types@U?$pair@$$CBHPAVSprite@@@std@@@std@@@std@@SAAADPAU?$_Tree_node@U?$pair@$$CBHPAVSprite@@@std@@PAX@2@@Z 0045c340 f i CommonPathfindingLib:SpriteManager.obj
 0002:00037380       ?_Key@?$_Tree@V?$_Tmap_traits@HPAVSprite@@U?$less@H@std@@V?$allocator@U?$pair@$$CBHPAVSprite@@@std@@@3@$0A@@std@@@std@@IBEABHPAU?$_Tree_node@U?$pair@$$CBHPAVSprite@@@std@@PAX@2@@Z 0045c380 f i CommonPathfindingLib:SpriteManager.obj
 0002:000373f0       ?_Kfn@?$_Tree@V?$_Tmap_traits@HPAVSprite@@U?$less@H@std@@V?$allocator@U?$pair@$$CBHPAVSprite@@@std@@@3@$0A@@std@@@std@@IBEABHABU?$pair@$$CBHPAVSprite@@@2@@Z 0045c3f0 f i CommonPathfindingLib:SpriteManager.obj
 0002:00037450       ?_Left@?$_Tree_comp_alloc@V?$_Tmap_traits@HPAVSprite@@U?$less@H@std@@V?$allocator@U?$pair@$$CBHPAVSprite@@@std@@@3@$0A@@std@@@std@@SAAAPAU?$_Tree_node@U?$pair@$$CBHPAVSprite@@@std@@PAX@2@PAU32@@Z 0045c450 f i CommonPathfindingLib:SpriteManager.obj
 0002:000374a0       ?_Left@?$_Tree_val@U?$_Tree_simple_types@U?$pair@$$CBHPAVSprite@@@std@@@std@@@std@@SAAAPAU?$_Tree_node@U?$pair@$$CBHPAVSprite@@@std@@PAX@2@PAU32@@Z 0045c4a0 f i CommonPathfindingLib:SpriteManager.obj
 0002:000374e0       ?_Lmost@?$_Tree@V?$_Tmap_traits@HPAVSprite@@U?$less@H@std@@V?$allocator@U?$pair@$$CBHPAVSprite@@@std@@@3@$0A@@std@@@std@@IBEAAPAU?$_Tree_node@U?$pair@$$CBHPAVSprite@@@std@@PAX@2@XZ 0045c4e0 f i CommonPathfindingLib:SpriteManager.obj
 0002:00037540       ?_Lrotate@?$_Tree@V?$_Tmap_traits@HPAVSprite@@U?$less@H@std@@V?$allocator@U?$pair@$$CBHPAVSprite@@@std@@@3@$0A@@std@@@std@@IAEXPAU?$_Tree_node@U?$pair@$$CBHPAVSprite@@@std@@PAX@2@@Z 0045c540 f i CommonPathfindingLib:SpriteManager.obj
 0002:000376f0       ?_Max@?$_Tree_comp_alloc@V?$_Tmap_traits@HPAVSprite@@U?$less@H@std@@V?$allocator@U?$pair@$$CBHPAVSprite@@@std@@@3@$0A@@std@@@std@@SAPAU?$_Tree_node@U?$pair@$$CBHPAVSprite@@@std@@PAX@2@PAU32@@Z 0045c6f0 f i CommonPathfindingLib:SpriteManager.obj
 0002:00037740       ?_Max@?$_Tree_val@U?$_Tree_simple_types@U?$pair@$$CBHPAVSprite@@@std@@@std@@@std@@SAPAU?$_Tree_node@U?$pair@$$CBHPAVSprite@@@std@@PAX@2@PAU32@@Z 0045c740 f i CommonPathfindingLib:SpriteManager.obj
 0002:000377c0       ?_Min@?$_Tree_comp_alloc@V?$_Tmap_traits@HPAVSprite@@U?$less@H@std@@V?$allocator@U?$pair@$$CBHPAVSprite@@@std@@@3@$0A@@std@@@std@@SAPAU?$_Tree_node@U?$pair@$$CBHPAVSprite@@@std@@PAX@2@PAU32@@Z 0045c7c0 f i CommonPathfindingLib:SpriteManager.obj
 0002:00037810       ?_Min@?$_Tree_val@U?$_Tree_simple_types@U?$pair@$$CBHPAVSprite@@@std@@@std@@@std@@SAPAU?$_Tree_node@U?$pair@$$CBHPAVSprite@@@std@@PAX@2@PAU32@@Z 0045c810 f i CommonPathfindingLib:SpriteManager.obj
 0002:00037890       ?_Myhead@?$_Tree_comp_alloc@V?$_Tmap_traits@HPAVSprite@@U?$less@H@std@@V?$allocator@U?$pair@$$CBHPAVSprite@@@std@@@3@$0A@@std@@@std@@QAEAAPAU?$_Tree_node@U?$pair@$$CBHPAVSprite@@@std@@PAX@2@XZ 0045c890 f i CommonPathfindingLib:SpriteManager.obj
 0002:000378f0       ?_Myhead@?$_Tree_comp_alloc@V?$_Tmap_traits@HPAVSprite@@U?$less@H@std@@V?$allocator@U?$pair@$$CBHPAVSprite@@@std@@@3@$0A@@std@@@std@@QBEABQAU?$_Tree_node@U?$pair@$$CBHPAVSprite@@@std@@PAX@2@XZ 0045c8f0 f i CommonPathfindingLib:SpriteManager.obj
 0002:00037950       ?_Mynode@?$_Tree_unchecked_const_iterator@V?$_Tree_val@U?$_Tree_simple_types@U?$pair@$$CBHPAVSprite@@@std@@@std@@@std@@U_Iterator_base12@2@@std@@QBEPAU?$_Tree_node@U?$pair@$$CBHPAVSprite@@@std@@PAX@2@XZ 0045c950 f i CommonPathfindingLib:SpriteManager.obj
 0002:00037990       ?_Myproxy@?$_Tree_comp_alloc@V?$_Tmap_traits@HPAVSprite@@U?$less@H@std@@V?$allocator@U?$pair@$$CBHPAVSprite@@@std@@@3@$0A@@std@@@std@@QAEAAPAU_Container_proxy@2@XZ 0045c990 f i CommonPathfindingLib:SpriteManager.obj
 0002:000379e0       ?_Mysize@?$_Tree_comp_alloc@V?$_Tmap_traits@HPAVSprite@@U?$less@H@std@@V?$allocator@U?$pair@$$CBHPAVSprite@@@std@@@3@$0A@@std@@@std@@QAEAAIXZ 0045c9e0 f i CommonPathfindingLib:SpriteManager.obj
 0002:00037a40       ?_Mysize@?$_Tree_comp_alloc@V?$_Tmap_traits@HPAVSprite@@U?$less@H@std@@V?$allocator@U?$pair@$$CBHPAVSprite@@@std@@@3@$0A@@std@@@std@@QBEABIXZ 0045ca40 f i CommonPathfindingLib:SpriteManager.obj
 0002:00037aa0       ?_Myval@?$_Tree_comp_alloc@V?$_Tmap_traits@HPAVSprite@@U?$less@H@std@@V?$allocator@U?$pair@$$CBHPAVSprite@@@std@@@3@$0A@@std@@@std@@SAAAU?$pair@$$CBHPAVSprite@@@2@PAU?$_Tree_node@U?$pair@$$CBHPAVSprite@@@std@@PAX@2@@Z 0045caa0 f i CommonPathfindingLib:SpriteManager.obj
 0002:00037af0       ?_Myval@?$_Tree_val@U?$_Tree_simple_types@U?$pair@$$CBHPAVSprite@@@std@@@std@@@std@@SAAAU?$pair@$$CBHPAVSprite@@@2@PAU?$_Tree_node@U?$pair@$$CBHPAVSprite@@@std@@PAX@2@@Z 0045caf0 f i CommonPathfindingLib:SpriteManager.obj
 0002:00037b30       ?_Orphan_all@?$_Tree_comp_alloc@V?$_Tmap_traits@HPAVSprite@@U?$less@H@std@@V?$allocator@U?$pair@$$CBHPAVSprite@@@std@@@3@$0A@@std@@@std@@QAEXXZ 0045cb30 f i CommonPathfindingLib:SpriteManager.obj
 0002:00037b90       ?_Orphan_ptr@?$_Tree@V?$_Tmap_traits@HPAVSprite@@U?$less@H@std@@V?$allocator@U?$pair@$$CBHPAVSprite@@@std@@@3@$0A@@std@@@std@@IAEXPAU?$_Tree_node@U?$pair@$$CBHPAVSprite@@@std@@PAX@2@@Z 0045cb90 f i CommonPathfindingLib:SpriteManager.obj
 0002:00037d10       ?_Parent@?$_Tree_comp_alloc@V?$_Tmap_traits@HPAVSprite@@U?$less@H@std@@V?$allocator@U?$pair@$$CBHPAVSprite@@@std@@@3@$0A@@std@@@std@@SAAAPAU?$_Tree_node@U?$pair@$$CBHPAVSprite@@@std@@PAX@2@PAU32@@Z 0045cd10 f i CommonPathfindingLib:SpriteManager.obj
 0002:00037d60       ?_Parent@?$_Tree_val@U?$_Tree_simple_types@U?$pair@$$CBHPAVSprite@@@std@@@std@@@std@@SAAAPAU?$_Tree_node@U?$pair@$$CBHPAVSprite@@@std@@PAX@2@PAU32@@Z 0045cd60 f i CommonPathfindingLib:SpriteManager.obj
 0002:00037da0       ?_Right@?$_Tree_comp_alloc@V?$_Tmap_traits@HPAVSprite@@U?$less@H@std@@V?$allocator@U?$pair@$$CBHPAVSprite@@@std@@@3@$0A@@std@@@std@@SAAAPAU?$_Tree_node@U?$pair@$$CBHPAVSprite@@@std@@PAX@2@PAU32@@Z 0045cda0 f i CommonPathfindingLib:SpriteManager.obj
 0002:00037df0       ?_Right@?$_Tree_val@U?$_Tree_simple_types@U?$pair@$$CBHPAVSprite@@@std@@@std@@@std@@SAAAPAU?$_Tree_node@U?$pair@$$CBHPAVSprite@@@std@@PAX@2@PAU32@@Z 0045cdf0 f i CommonPathfindingLib:SpriteManager.obj
 0002:00037e30       ?_Rmost@?$_Tree@V?$_Tmap_traits@HPAVSprite@@U?$less@H@std@@V?$allocator@U?$pair@$$CBHPAVSprite@@@std@@@3@$0A@@std@@@std@@IBEAAPAU?$_Tree_node@U?$pair@$$CBHPAVSprite@@@std@@PAX@2@XZ 0045ce30 f i CommonPathfindingLib:SpriteManager.obj
 0002:00037e90       ?_Root@?$_Tree@V?$_Tmap_traits@HPAVSprite@@U?$less@H@std@@V?$allocator@U?$pair@$$CBHPAVSprite@@@std@@@3@$0A@@std@@@std@@IBEAAPAU?$_Tree_node@U?$pair@$$CBHPAVSprite@@@std@@PAX@2@XZ 0045ce90 f i CommonPathfindingLib:SpriteManager.obj
 0002:00037ef0       ?_Rrotate@?$_Tree@V?$_Tmap_traits@HPAVSprite@@U?$less@H@std@@V?$allocator@U?$pair@$$CBHPAVSprite@@@std@@@3@$0A@@std@@@std@@IAEXPAU?$_Tree_node@U?$pair@$$CBHPAVSprite@@@std@@PAX@2@@Z 0045cef0 f i CommonPathfindingLib:SpriteManager.obj
 0002:000380a0       ?_Tidy@?$_Tree@V?$_Tmap_traits@HPAVSprite@@U?$less@H@std@@V?$allocator@U?$pair@$$CBHPAVSprite@@@std@@@3@$0A@@std@@@std@@IAEXXZ 0045d0a0 f i CommonPathfindingLib:SpriteManager.obj
 0002:00038230       ?allocate@?$_Wrap_alloc@V?$allocator@U?$_Tree_node@U?$pair@$$CBHPAVSprite@@@std@@PAX@std@@@std@@@std@@QAEPAU?$_Tree_node@U?$pair@$$CBHPAVSprite@@@std@@PAX@2@I@Z 0045d230 f i CommonPathfindingLib:SpriteManager.obj
 0002:00038290       ?allocate@?$allocator@U?$_Tree_node@U?$pair@$$CBHPAVSprite@@@std@@PAX@std@@@std@@QAEPAU?$_Tree_node@U?$pair@$$CBHPAVSprite@@@std@@PAX@2@I@Z 0045d290 f i CommonPathfindingLib:SpriteManager.obj
 0002:000382f0       ?begin@?$_Tree@V?$_Tmap_traits@HPAVSprite@@U?$less@H@std@@V?$allocator@U?$pair@$$CBHPAVSprite@@@std@@@3@$0A@@std@@@std@@QAE?AV?$_Tree_iterator@V?$_Tree_val@U?$_Tree_simple_types@U?$pair@$$CBHPAVSprite@@@std@@@std@@@std@@@2@XZ 0045d2f0 f i CommonPathfindingLib:SpriteManager.obj
 0002:000383a0       ?clear@?$_Tree@V?$_Tmap_traits@HPAVSprite@@U?$less@H@std@@V?$allocator@U?$pair@$$CBHPAVSprite@@@std@@@3@$0A@@std@@@std@@QAEXXZ 0045d3a0 f i CommonPathfindingLib:SpriteManager.obj
 0002:000384b0       ?createAndManageSprite@SpriteManager@@QAEPAVSprite@@ABHPAVGraphicsBuffer@@MMMM@Z 0045d4b0 f   CommonPathfindingLib:SpriteManager.obj
 0002:00038770       ?deallocate@?$_Wrap_alloc@V?$allocator@U?$_Tree_node@U?$pair@$$CBHPAVSprite@@@std@@PAX@std@@@std@@@std@@QAEXPAU?$_Tree_node@U?$pair@$$CBHPAVSprite@@@std@@PAX@2@I@Z 0045d770 f i CommonPathfindingLib:SpriteManager.obj
 0002:000387d0       ?deallocate@?$allocator@U?$_Tree_node@U?$pair@$$CBHPAVSprite@@@std@@PAX@std@@@std@@QAEXPAU?$_Tree_node@U?$pair@$$CBHPAVSprite@@@std@@PAX@2@I@Z 0045d7d0 f i CommonPathfindingLib:SpriteManager.obj
 0002:00038830       ?destroySprite@SpriteManager@@QAEXABH@Z 0045d830 f   CommonPathfindingLib:SpriteManager.obj
 0002:00038a20       ?end@?$_Tree@V?$_Tmap_traits@HPAVSprite@@U?$less@H@std@@V?$allocator@U?$pair@$$CBHPAVSprite@@@std@@@3@$0A@@std@@@std@@QAE?AV?$_Tree_iterator@V?$_Tree_val@U?$_Tree_simple_types@U?$pair@$$CBHPAVSprite@@@std@@@std@@@std@@@2@XZ 0045da20 f i CommonPathfindingLib:SpriteManager.obj
 0002:00038ad0       ?erase@?$_Tree@V?$_Tmap_traits@HPAVSprite@@U?$less@H@std@@V?$allocator@U?$pair@$$CBHPAVSprite@@@std@@@3@$0A@@std@@@std@@QAE?AV?$_Tree_iterator@V?$_Tree_val@U?$_Tree_simple_types@U?$pair@$$CBHPAVSprite@@@std@@@std@@@std@@@2@V?$_Tree_const_iterator@V?$_Tree_val@U?$_Tree_simple_types@U?$pair@$$CBHPAVSprite@@@std@@@std@@@std@@@2@0@Z 0045dad0 f i CommonPathfindingLib:SpriteManager.obj
 0002:00038df0       ?erase@?$_Tree@V?$_Tmap_traits@HPAVSprite@@U?$less@H@std@@V?$allocator@U?$pair@$$CBHPAVSprite@@@std@@@3@$0A@@std@@@std@@QAE?AV?$_Tree_iterator@V?$_Tree_val@U?$_Tree_simple_types@U?$pair@$$CBHPAVSprite@@@std@@@std@@@std@@@2@V?$_Tree_const_iterator@V?$_Tree_val@U?$_Tree_simple_types@U?$pair@$$CBHPAVSprite@@@std@@@std@@@std@@@2@@Z 0045ddf0 f i CommonPathfindingLib:SpriteManager.obj
 0002:00039880       ?find@?$_Tree@V?$_Tmap_traits@HPAVSprite@@U?$less@H@std@@V?$allocator@U?$pair@$$CBHPAVSprite@@@std@@@3@$0A@@std@@@std@@QAE?AV?$_Tree_iterator@V?$_Tree_val@U?$_Tree_simple_types@U?$pair@$$CBHPAVSprite@@@std@@@std@@@std@@@2@ABH@Z 0045e880 f i CommonPathfindingLib:SpriteManager.obj
 0002:00039b80       ?getSprite@SpriteManager@@QAEPAVSprite@@ABH@Z 0045eb80 f   CommonPathfindingLib:SpriteManager.obj
 0002:00039d30       ?lower_bound@?$_Tree@V?$_Tmap_traits@HPAVSprite@@U?$less@H@std@@V?$allocator@U?$pair@$$CBHPAVSprite@@@std@@@3@$0A@@std@@@std@@QAE?AV?$_Tree_iterator@V?$_Tree_val@U?$_Tree_simple_types@U?$pair@$$CBHPAVSprite@@@std@@@std@@@std@@@2@ABH@Z 0045ed30 f i CommonPathfindingLib:SpriteManager.obj
 0002:00039dc0       ?max_size@?$_Tree@V?$_Tmap_traits@HPAVSprite@@U?$less@H@std@@V?$allocator@U?$pair@$$CBHPAVSprite@@@std@@@3@$0A@@std@@@std@@QBEIXZ 0045edc0 f i CommonPathfindingLib:SpriteManager.obj
 0002:00039e30       ?max_size@?$_Wrap_alloc@V?$allocator@U?$_Tree_node@U?$pair@$$CBHPAVSprite@@@std@@PAX@std@@@std@@@std@@QBEIU_Nil@2@@Z 0045ee30 f i CommonPathfindingLib:SpriteManager.obj
 0002:00039e90       ?max_size@?$allocator@U?$_Tree_node@U?$pair@$$CBHPAVSprite@@@std@@PAX@std@@@std@@QBEIXZ 0045ee90 f i CommonPathfindingLib:SpriteManager.obj
 0002:00039ed0       ?max_size@?$allocator_traits@V?$allocator@U?$_Tree_node@U?$pair@$$CBHPAVSprite@@@std@@PAX@std@@@std@@@std@@SAIABV?$allocator@U?$_Tree_node@U?$pair@$$CBHPAVSprite@@@std@@PAX@std@@@2@@Z 0045eed0 f i CommonPathfindingLib:SpriteManager.obj
 0002:00039f20       ?pointer_to@?$pointer_traits@PAU?$pair@$$CBHPAVSprite@@@std@@@std@@SAPAU?$pair@$$CBHPAVSprite@@@2@AAU32@@Z 0045ef20 f i CommonPathfindingLib:SpriteManager.obj
 0002:00039f70       ?size@?$_Tree@V?$_Tmap_traits@HPAVSprite@@U?$less@H@std@@V?$allocator@U?$pair@$$CBHPAVSprite@@@std@@@3@$0A@@std@@@std@@QBEIXZ 0045ef70 f i CommonPathfindingLib:SpriteManager.obj
 0002:00039fd0       ??0GraphicsSystem@@QAE@XZ  0045efd0 f   CommonPathfindingLib:GraphicsSystem.obj
 0002:0003a040       ??1GraphicsSystem@@QAE@XZ  0045f040 f   CommonPathfindingLib:GraphicsSystem.obj
 0002:0003a0d0       ??RAllegroColorCompare@@QBE_NABUALLEGRO_COLOR@@0@Z 0045f0d0 f   CommonPathfindingLib:GraphicsSystem.obj
 0002:0003a1f0       ?cleanup@GraphicsSystem@@QAEXXZ 0045f1f0 f   CommonPathfindingLib:GraphicsSystem.obj
 0002:0003a2d0       ?init@GraphicsSystem@@QAE_NHH@Z 0045f2d0 f   CommonPathfindingLib:GraphicsSystem.obj
 0002:0003a480       ?invalidate@GraphicsBuffer@@QAEXXZ 0045f480 f i CommonPathfindingLib:GraphicsSystem.obj
 0002:0003a4c0       ?setX@Vector2D@@QAEXM@Z    0045f4c0 f i CommonPathfindingLib:GraphicsSystem.obj
 0002:0003a510       ?setY@Vector2D@@QAEXM@Z    0045f510 f i CommonPathfindingLib:GraphicsSystem.obj
 0002:0003a560       ?swap@GraphicsSystem@@QAEXXZ 0045f560 f   CommonPathfindingLib:GraphicsSystem.obj
 0002:0003a5c0       ?switchTargetBitmap@GraphicsSystem@@SAPAUALLEGRO_BITMAP@@PAU2@@Z 0045f5c0 f   CommonPathfindingLib:GraphicsSystem.obj
 0002:0003a640       ?wrapCoordinates@GraphicsSystem@@QAEXAAVVector2D@@@Z 0045f640 f   CommonPathfindingLib:GraphicsSystem.obj
 0002:0003a7e0       ??0Sprite@@QAE@PAVGraphicsBuffer@@MMMM@Z 0045f7e0 f   CommonPathfindingLib:Sprite.obj
 0002:0003a8b0       ??1Sprite@@QAE@XZ          0045f8b0 f   CommonPathfindingLib:Sprite.obj
 0002:0003a8f0       ?draw@Sprite@@QAEXAAVGraphicsBuffer@@MMMH@Z 0045f8f0 f   CommonPathfindingLib:Sprite.obj
 0002:0003aab0       ??0GraphicsBuffer@@QAE@ABV0@@Z 0045fab0 f   CommonPathfindingLib:GraphicsBuffer.obj
 0002:0003ab20       ??0GraphicsBuffer@@QAE@ABV?$basic_string@DU?$char_traits@D@std@@V?$allocator@D@2@@std@@@Z 0045fb20 f   CommonPathfindingLib:GraphicsBuffer.obj
 0002:0003aba0       ??0GraphicsBuffer@@QAE@HHABUALLEGRO_COLOR@@@Z 0045fba0 f   CommonPathfindingLib:GraphicsBuffer.obj
 0002:0003ac20       ??0GraphicsBuffer@@QAE@PAUALLEGRO_BITMAP@@@Z 0045fc20 f   CommonPathfindingLib:GraphicsBuffer.obj
 0002:0003ac70       ??0GraphicsBuffer@@QAE@XZ  0045fc70 f   CommonPathfindingLib:GraphicsBuffer.obj
 0002:0003acc0       ??1GraphicsBuffer@@QAE@XZ  0045fcc0 f   CommonPathfindingLib:GraphicsBuffer.obj
 0002:0003ad30       ??4GraphicsBuffer@@QAEAAV0@ABV0@@Z 0045fd30 f   CommonPathfindingLib:GraphicsBuffer.obj
 0002:0003add0       ?clear@GraphicsBuffer@@QAEXABUALLEGRO_COLOR@@@Z 0045fdd0 f   CommonPathfindingLib:GraphicsBuffer.obj
 0002:0003ae80       ?fillRegion@GraphicsBuffer@@QAEXABVVector2D@@0ABUALLEGRO_COLOR@@@Z 0045fe80 f   CommonPathfindingLib:GraphicsBuffer.obj
 0002:0003af64       _al_get_bitmap_width       0045ff64 f   allegro-5.0.10-monolith-md-debug:allegro-5.0.10-monolith-md-debug.dll
 0002:0003af6a       _al_get_bitmap_height      0045ff6a f   allegro-5.0.10-monolith-md-debug:allegro-5.0.10-monolith-md-debug.dll
 0002:0003af70       _al_get_mouse_state        0045ff70 f   allegro-5.0.10-monolith-md-debug:allegro-5.0.10-monolith-md-debug.dll
 0002:0003af76       _al_mouse_button_down      0045ff76 f   allegro-5.0.10-monolith-md-debug:allegro-5.0.10-monolith-md-debug.dll
 0002:0003af7c       _al_get_keyboard_state     0045ff7c f   allegro-5.0.10-monolith-md-debug:allegro-5.0.10-monolith-md-debug.dll
 0002:0003af82       _al_key_down               0045ff82 f   allegro-5.0.10-monolith-md-debug:allegro-5.0.10-monolith-md-debug.dll
 0002:0003af88       _al_install_system         0045ff88 f   allegro-5.0.10-monolith-md-debug:allegro-5.0.10-monolith-md-debug.dll
 0002:0003af8e       _al_install_audio          0045ff8e f   allegro-5.0.10-monolith-md-debug:allegro-5.0.10-monolith-md-debug.dll
 0002:0003af94       _al_uninstall_audio        0045ff94 f   allegro-5.0.10-monolith-md-debug:allegro-5.0.10-monolith-md-debug.dll
 0002:0003af9a       _al_reserve_samples        0045ff9a f   allegro-5.0.10-monolith-md-debug:allegro-5.0.10-monolith-md-debug.dll
 0002:0003afa0       _al_init_acodec_addon      0045ffa0 f   allegro-5.0.10-monolith-md-debug:allegro-5.0.10-monolith-md-debug.dll
 0002:0003afa6       _al_init_image_addon       0045ffa6 f   allegro-5.0.10-monolith-md-debug:allegro-5.0.10-monolith-md-debug.dll
 0002:0003afac       _al_shutdown_image_addon   0045ffac f   allegro-5.0.10-monolith-md-debug:allegro-5.0.10-monolith-md-debug.dll
 0002:0003afb2       _al_destroy_font           0045ffb2 f   allegro-5.0.10-monolith-md-debug:allegro-5.0.10-monolith-md-debug.dll
 0002:0003afb8       _al_init_font_addon        0045ffb8 f   allegro-5.0.10-monolith-md-debug:allegro-5.0.10-monolith-md-debug.dll
 0002:0003afbe       _al_shutdown_font_addon    0045ffbe f   allegro-5.0.10-monolith-md-debug:allegro-5.0.10-monolith-md-debug.dll
 0002:0003afc4       _al_load_ttf_font          0045ffc4 f   allegro-5.0.10-monolith-md-debug:allegro-5.0.10-monolith-md-debug.dll
 0002:0003afca       _al_init_ttf_addon         0045ffca f   allegro-5.0.10-monolith-md-debug:allegro-5.0.10-monolith-md-debug.dll
 0002:0003afd0       _al_shutdown_ttf_addon     0045ffd0 f   allegro-5.0.10-monolith-md-debug:allegro-5.0.10-monolith-md-debug.dll
 0002:0003afd6       _al_init_primitives_addon  0045ffd6 f   allegro-5.0.10-monolith-md-debug:allegro-5.0.10-monolith-md-debug.dll
 0002:0003afdc       _al_shutdown_primitives_addon 0045ffdc f   allegro-5.0.10-monolith-md-debug:allegro-5.0.10-monolith-md-debug.dll
 0002:0003afe2       _al_map_rgb                0045ffe2 f   allegro-5.0.10-monolith-md-debug:allegro-5.0.10-monolith-md-debug.dll
 0002:0003afe8       _al_draw_filled_rectangle  0045ffe8 f   allegro-5.0.10-monolith-md-debug:allegro-5.0.10-monolith-md-debug.dll
 0002:0003afee       _al_draw_text              0045ffee f   allegro-5.0.10-monolith-md-debug:allegro-5.0.10-monolith-md-debug.dll
 0002:0003aff4       _al_create_display         0045fff4 f   allegro-5.0.10-monolith-md-debug:allegro-5.0.10-monolith-md-debug.dll
 0002:0003affa       _al_destroy_display        0045fffa f   allegro-5.0.10-monolith-md-debug:allegro-5.0.10-monolith-md-debug.dll
 0002:0003b000       _al_set_target_bitmap      00460000 f   allegro-5.0.10-monolith-md-debug:allegro-5.0.10-monolith-md-debug.dll
 0002:0003b006       _al_get_backbuffer         00460006 f   allegro-5.0.10-monolith-md-debug:allegro-5.0.10-monolith-md-debug.dll
 0002:0003b00c       _al_get_target_bitmap      0046000c f   allegro-5.0.10-monolith-md-debug:allegro-5.0.10-monolith-md-debug.dll
 0002:0003b012       _al_flip_display           00460012 f   allegro-5.0.10-monolith-md-debug:allegro-5.0.10-monolith-md-debug.dll
 0002:0003b018       _al_create_sub_bitmap      00460018 f   allegro-5.0.10-monolith-md-debug:allegro-5.0.10-monolith-md-debug.dll
 0002:0003b01e       _al_draw_bitmap            0046001e f   allegro-5.0.10-monolith-md-debug:allegro-5.0.10-monolith-md-debug.dll
 0002:0003b024       _al_draw_rotated_bitmap    00460024 f   allegro-5.0.10-monolith-md-debug:allegro-5.0.10-monolith-md-debug.dll
 0002:0003b02a       _al_create_bitmap          0046002a f   allegro-5.0.10-monolith-md-debug:allegro-5.0.10-monolith-md-debug.dll
 0002:0003b030       _al_destroy_bitmap         00460030 f   allegro-5.0.10-monolith-md-debug:allegro-5.0.10-monolith-md-debug.dll
 0002:0003b036       _al_clone_bitmap           00460036 f   allegro-5.0.10-monolith-md-debug:allegro-5.0.10-monolith-md-debug.dll
 0002:0003b03c       _al_load_bitmap            0046003c f   allegro-5.0.10-monolith-md-debug:allegro-5.0.10-monolith-md-debug.dll
 0002:0003b042       _al_clear_to_color         00460042 f   allegro-5.0.10-monolith-md-debug:allegro-5.0.10-monolith-md-debug.dll
 0002:0003b050       ??2Trackable@@SAPAXI@Z     00460050 f   DeanLib:Trackable.obj
 0002:0003b0d0       ??3Trackable@@SAXPAX@Z     004600d0 f   DeanLib:Trackable.obj
 0002:0003b170       ??_UTrackable@@SAPAXI@Z    00460170 f   DeanLib:Trackable.obj
 0002:0003b1f0       ??_VTrackable@@SAXPAX@Z    004601f0 f   DeanLib:Trackable.obj
 0002:0003b290       ??0Timer@@QAE@XZ           00460290 f   DeanLib:Timer.obj
 0002:0003b360       ??1Timer@@QAE@XZ           00460360 f   DeanLib:Timer.obj
 0002:0003b3a0       ?calcDifferenceInMS@Timer@@ABENT_LARGE_INTEGER@@0@Z 004603a0 f   DeanLib:Timer.obj
 0002:0003b470       ?getElapsedTime@Timer@@QBENXZ 00460470 f   DeanLib:Timer.obj
 0002:0003b580       ?pause@Timer@@QAEX_N@Z     00460580 f   DeanLib:Timer.obj
 0002:0003b690       ?sleepUntilElapsed@Timer@@QAEXN@Z 00460690 f   DeanLib:Timer.obj
 0002:0003b840       ?start@Timer@@QAEXXZ       00460840 f   DeanLib:Timer.obj
 0002:0003b8d0       ?stop@Timer@@QAEXXZ        004608d0 f   DeanLib:Timer.obj
 0002:0003b960       ??$?0$$V@?$_Compressed_pair@U?$_Wrap_alloc@V?$allocator@U?$_Tree_node@U?$pair@QAXUAllocationRecord@@@std@@PAX@std@@@std@@@std@@V?$_Tree_val@U?$_Tree_simple_types@U?$pair@QAXUAllocationRecord@@@std@@@std@@@2@$00@std@@QAE@U_Zero_then_variadic_args_t@1@@Z 00460960 f i DeanLib:MemoryTracker.obj
 0002:0003b9c0       ??$?0AAPAXAAUAllocationRecord@@X$0A@@?$pair@PAXUAllocationRecord@@@std@@QAE@AAPAXAAUAllocationRecord@@@Z 004609c0 f i DeanLib:MemoryTracker.obj
 0002:0003ba50       ??$?0AAU?$_Wrap_alloc@V?$allocator@U?$_Tree_node@U?$pair@QAXUAllocationRecord@@@std@@PAX@std@@@std@@@std@@@?$_Wrap_alloc@V?$allocator@U_Container_proxy@std@@@std@@@std@@QAE@AAU?$_Wrap_alloc@V?$allocator@U?$_Tree_node@U?$pair@QAXUAllocationRecord@@@std@@PAX@std@@@std@@@1@@Z 00460a50 f i DeanLib:MemoryTracker.obj
 0002:0003bac0       ??$?0AAV?$_Tree_iterator@V?$_Tree_val@U?$_Tree_simple_types@U?$pair@QAXUAllocationRecord@@@std@@@std@@@std@@@std@@_NX$0A@@?$pair@V?$_Tree_iterator@V?$_Tree_val@U?$_Tree_simple_types@U?$pair@QAXUAllocationRecord@@@std@@@std@@@std@@@std@@_N@std@@QAE@AAV?$_Tree_iterator@V?$_Tree_val@U?$_Tree_simple_types@U?$pair@QAXUAllocationRecord@@@std@@@std@@@std@@@1@$$QA_N@Z 00460ac0 f i DeanLib:MemoryTracker.obj
 0002:0003bb40       ??$?0ABU?$less@PAX@std@@U_Zero_then_variadic_args_t@1@@?$_Compressed_pair@U?$less@PAX@std@@V?$_Compressed_pair@U?$_Wrap_alloc@V?$allocator@U?$_Tree_node@U?$pair@QAXUAllocationRecord@@@std@@PAX@std@@@std@@@std@@V?$_Tree_val@U?$_Tree_simple_types@U?$pair@QAXUAllocationRecord@@@std@@@std@@@2@$00@2@$00@std@@QAE@U_One_then_variadic_args_t@1@ABU?$less@PAX@1@$$QAU_Zero_then_variadic_args_t@1@@Z 00460b40 f i DeanLib:MemoryTracker.obj
 0002:0003bbc0       ??$?0PAXUAllocationRecord@@X$0A@@?$pair@QAXUAllocationRecord@@@std@@QAE@ABU?$pair@PAXUAllocationRecord@@@1@@Z 00460bc0 f i DeanLib:MemoryTracker.obj
 0002:0003bc20       ??$?0U?$_Tree_node@U?$pair@QAXUAllocationRecord@@@std@@PAX@std@@@?$allocator@U_Container_proxy@std@@@std@@QAE@ABV?$allocator@U?$_Tree_node@U?$pair@QAXUAllocationRecord@@@std@@PAX@std@@@1@@Z 00460c20 f i DeanLib:MemoryTracker.obj
 0002:0003bc60       ??$?0V?$_Tree_iterator@V?$_Tree_val@U?$_Tree_simple_types@U?$pair@QAXUAllocationRecord@@@std@@@std@@@std@@@std@@_NX$0A@@?$pair@V?$_Tree_iterator@V?$_Tree_val@U?$_Tree_simple_types@U?$pair@QAXUAllocationRecord@@@std@@@std@@@std@@@std@@_N@std@@QAE@$$QAV?$_Tree_iterator@V?$_Tree_val@U?$_Tree_simple_types@U?$pair@QAXUAllocationRecord@@@std@@@std@@@std@@@1@$$QA_N@Z 00460c60 f i DeanLib:MemoryTracker.obj
 0002:0003bce0       ??$_Buynode@AAU?$pair@PAXUAllocationRecord@@@std@@@?$_Tree_comp_alloc@V?$_Tmap_traits@PAXUAllocationRecord@@U?$less@PAX@std@@V?$allocator@U?$pair@QAXUAllocationRecord@@@std@@@3@$0A@@std@@@std@@QAEPAU?$_Tree_node@U?$pair@QAXUAllocationRecord@@@std@@PAX@1@AAU?$pair@PAXUAllocationRecord@@@1@@Z 00460ce0 f i DeanLib:MemoryTracker.obj
 0002:0003be30       ??$_Buynode_if_nil@AAU?$pair@QAXUAllocationRecord@@@std@@@?$_Tree@V?$_Tmap_traits@PAXUAllocationRecord@@U?$less@PAX@std@@V?$allocator@U?$pair@QAXUAllocationRecord@@@std@@@3@$0A@@std@@@std@@IAEPAU?$_Tree_node@U?$pair@QAXUAllocationRecord@@@std@@PAX@1@PAU21@AAU?$pair@QAXUAllocationRecord@@@1@@Z 00460e30 f i DeanLib:MemoryTracker.obj
 0002:0003be70       ??$_Debug_lt_pred@AAU?$less@PAX@std@@ABQAXABQAX@std@@YA_NAAU?$less@PAX@0@ABQAX1PB_WI@Z 00460e70 f i DeanLib:MemoryTracker.obj
 0002:0003bf50       ??$_Debug_lt_pred@ABU?$less@PAX@std@@ABQAXABQAX@std@@YA_NABU?$less@PAX@0@ABQAX1PB_WI@Z 00460f50 f i DeanLib:MemoryTracker.obj
 0002:0003c030       ??$_Insert_at@AAU?$pair@QAXUAllocationRecord@@@std@@PAU?$_Tree_node@U?$pair@QAXUAllocationRecord@@@std@@PAX@2@@?$_Tree@V?$_Tmap_traits@PAXUAllocationRecord@@U?$less@PAX@std@@V?$allocator@U?$pair@QAXUAllocationRecord@@@std@@@3@$0A@@std@@@std@@IAE?AV?$_Tree_iterator@V?$_Tree_val@U?$_Tree_simple_types@U?$pair@QAXUAllocationRecord@@@std@@@std@@@std@@@1@_NPAU?$_Tree_node@U?$pair@QAXUAllocationRecord@@@std@@PAX@1@AAU?$pair@QAXUAllocationRecord@@@1@1@Z 00461030 f i DeanLib:MemoryTracker.obj
 0002:0003c5f0       ??$_Insert_nohint@AAU?$pair@QAXUAllocationRecord@@@std@@PAU?$_Tree_node@U?$pair@QAXUAllocationRecord@@@std@@PAX@2@@?$_Tree@V?$_Tmap_traits@PAXUAllocationRecord@@U?$less@PAX@std@@V?$allocator@U?$pair@QAXUAllocationRecord@@@std@@@3@$0A@@std@@@std@@IAE?AU?$pair@V?$_Tree_iterator@V?$_Tree_val@U?$_Tree_simple_types@U?$pair@QAXUAllocationRecord@@@std@@@std@@@std@@@std@@_N@1@_NAAU?$pair@QAXUAllocationRecord@@@1@PAU?$_Tree_node@U?$pair@QAXUAllocationRecord@@@std@@PAX@1@@Z 004615f0 f i DeanLib:MemoryTracker.obj
 0002:0003ccd0       ??$_Kfn@QAXUAllocationRecord@@@?$_Tmap_traits@PAXUAllocationRecord@@U?$less@PAX@std@@V?$allocator@U?$pair@QAXUAllocationRecord@@@std@@@3@$0A@@std@@SAABQAXABU?$pair@QAXUAllocationRecord@@@1@@Z 00461cd0 f i DeanLib:MemoryTracker.obj
 0002:0003cd10       ??$_Lbound@PAX@?$_Tree@V?$_Tmap_traits@PAXUAllocationRecord@@U?$less@PAX@std@@V?$allocator@U?$pair@QAXUAllocationRecord@@@std@@@3@$0A@@std@@@std@@IBEPAU?$_Tree_node@U?$pair@QAXUAllocationRecord@@@std@@PAX@1@ABQAX@Z 00461d10 f i DeanLib:MemoryTracker.obj
 0002:0003ce00       ??$addressof@PAU?$_Tree_node@U?$pair@QAXUAllocationRecord@@@std@@PAX@std@@@std@@YAPAPAU?$_Tree_node@U?$pair@QAXUAllocationRecord@@@std@@PAX@0@AAPAU10@@Z 00461e00 f i DeanLib:MemoryTracker.obj
 0002:0003ce40       ??$addressof@U?$pair@QAXUAllocationRecord@@@std@@@std@@YAPAU?$pair@QAXUAllocationRecord@@@0@AAU10@@Z 00461e40 f i DeanLib:MemoryTracker.obj
 0002:0003ce80       ??$construct@PAU?$_Tree_node@U?$pair@QAXUAllocationRecord@@@std@@PAX@std@@AAPAU12@@?$_Wrap_alloc@V?$allocator@U?$_Tree_node@U?$pair@QAXUAllocationRecord@@@std@@PAX@std@@@std@@@std@@QAEXPAPAU?$_Tree_node@U?$pair@QAXUAllocationRecord@@@std@@PAX@1@AAPAU21@@Z 00461e80 f i DeanLib:MemoryTracker.obj
 0002:0003cef0       ??$construct@PAU?$_Tree_node@U?$pair@QAXUAllocationRecord@@@std@@PAX@std@@AAPAU12@@?$allocator@U?$_Tree_node@U?$pair@QAXUAllocationRecord@@@std@@PAX@std@@@std@@QAEXPAPAU?$_Tree_node@U?$pair@QAXUAllocationRecord@@@std@@PAX@1@AAPAU21@@Z 00461ef0 f i DeanLib:MemoryTracker.obj
 0002:0003cfa0       ??$construct@PAU?$_Tree_node@U?$pair@QAXUAllocationRecord@@@std@@PAX@std@@AAPAU12@@?$allocator_traits@V?$allocator@U?$_Tree_node@U?$pair@QAXUAllocationRecord@@@std@@PAX@std@@@std@@@std@@SAXAAV?$allocator@U?$_Tree_node@U?$pair@QAXUAllocationRecord@@@std@@PAX@std@@@1@PAPAU?$_Tree_node@U?$pair@QAXUAllocationRecord@@@std@@PAX@1@AAPAU31@@Z 00461fa0 f i DeanLib:MemoryTracker.obj
 0002:0003d000       ??$construct@U?$pair@QAXUAllocationRecord@@@std@@AAU?$pair@PAXUAllocationRecord@@@2@@?$_Wrap_alloc@V?$allocator@U?$_Tree_node@U?$pair@QAXUAllocationRecord@@@std@@PAX@std@@@std@@@std@@QAEXPAU?$pair@QAXUAllocationRecord@@@1@AAU?$pair@PAXUAllocationRecord@@@1@@Z 00462000 f i DeanLib:MemoryTracker.obj
 0002:0003d070       ??$construct@U?$pair@QAXUAllocationRecord@@@std@@AAU?$pair@PAXUAllocationRecord@@@2@@?$allocator@U?$_Tree_node@U?$pair@QAXUAllocationRecord@@@std@@PAX@std@@@std@@QAEXPAU?$pair@QAXUAllocationRecord@@@1@AAU?$pair@PAXUAllocationRecord@@@1@@Z 00462070 f i DeanLib:MemoryTracker.obj
 0002:0003d170       ??$construct@U?$pair@QAXUAllocationRecord@@@std@@AAU?$pair@PAXUAllocationRecord@@@2@@?$allocator_traits@V?$allocator@U?$_Tree_node@U?$pair@QAXUAllocationRecord@@@std@@PAX@std@@@std@@@std@@SAXAAV?$allocator@U?$_Tree_node@U?$pair@QAXUAllocationRecord@@@std@@PAX@std@@@1@PAU?$pair@QAXUAllocationRecord@@@1@AAU?$pair@PAXUAllocationRecord@@@1@@Z 00462170 f i DeanLib:MemoryTracker.obj
 0002:0003d1d0       ??$destroy@PAU?$_Tree_node@U?$pair@QAXUAllocationRecord@@@std@@PAX@std@@@?$_Wrap_alloc@V?$allocator@U?$_Tree_node@U?$pair@QAXUAllocationRecord@@@std@@PAX@std@@@std@@@std@@QAEXPAPAU?$_Tree_node@U?$pair@QAXUAllocationRecord@@@std@@PAX@1@@Z 004621d0 f i DeanLib:MemoryTracker.obj
 0002:0003d230       ??$destroy@PAU?$_Tree_node@U?$pair@QAXUAllocationRecord@@@std@@PAX@std@@@?$allocator@U?$_Tree_node@U?$pair@QAXUAllocationRecord@@@std@@PAX@std@@@std@@QAEXPAPAU?$_Tree_node@U?$pair@QAXUAllocationRecord@@@std@@PAX@1@@Z 00462230 f i DeanLib:MemoryTracker.obj
 0002:0003d270       ??$destroy@PAU?$_Tree_node@U?$pair@QAXUAllocationRecord@@@std@@PAX@std@@@?$allocator_traits@V?$allocator@U?$_Tree_node@U?$pair@QAXUAllocationRecord@@@std@@PAX@std@@@std@@@std@@SAXAAV?$allocator@U?$_Tree_node@U?$pair@QAXUAllocationRecord@@@std@@PAX@std@@@1@PAPAU?$_Tree_node@U?$pair@QAXUAllocationRecord@@@std@@PAX@1@@Z 00462270 f i DeanLib:MemoryTracker.obj
 0002:0003d2c0       ??$destroy@U?$pair@QAXUAllocationRecord@@@std@@@?$_Wrap_alloc@V?$allocator@U?$_Tree_node@U?$pair@QAXUAllocationRecord@@@std@@PAX@std@@@std@@@std@@QAEXPAU?$pair@QAXUAllocationRecord@@@1@@Z 004622c0 f i DeanLib:MemoryTracker.obj
 0002:0003d320       ??$destroy@U?$pair@QAXUAllocationRecord@@@std@@@?$allocator@U?$_Tree_node@U?$pair@QAXUAllocationRecord@@@std@@PAX@std@@@std@@QAEXPAU?$pair@QAXUAllocationRecord@@@1@@Z 00462320 f i DeanLib:MemoryTracker.obj
 0002:0003d360       ??$destroy@U?$pair@QAXUAllocationRecord@@@std@@@?$allocator_traits@V?$allocator@U?$_Tree_node@U?$pair@QAXUAllocationRecord@@@std@@PAX@std@@@std@@@std@@SAXAAV?$allocator@U?$_Tree_node@U?$pair@QAXUAllocationRecord@@@std@@PAX@std@@@1@PAU?$pair@QAXUAllocationRecord@@@1@@Z 00462360 f i DeanLib:MemoryTracker.obj
 0002:0003d3b0       ??$emplace@AAU?$pair@PAXUAllocationRecord@@@std@@@?$_Tree@V?$_Tmap_traits@PAXUAllocationRecord@@U?$less@PAX@std@@V?$allocator@U?$pair@QAXUAllocationRecord@@@std@@@3@$0A@@std@@@std@@QAE?AU?$pair@V?$_Tree_iterator@V?$_Tree_val@U?$_Tree_simple_types@U?$pair@QAXUAllocationRecord@@@std@@@std@@@std@@@std@@_N@1@AAU?$pair@PAXUAllocationRecord@@@1@@Z 004623b0 f i DeanLib:MemoryTracker.obj
 0002:0003d460       ??$endl@DU?$char_traits@D@std@@@std@@YAAAV?$basic_ostream@DU?$char_traits@D@std@@@0@AAV10@@Z 00462460 f i DeanLib:MemoryTracker.obj
 0002:0003d500       ??$forward@AAPAU?$_Tree_node@U?$pair@QAXUAllocationRecord@@@std@@PAX@std@@@std@@YAAAPAU?$_Tree_node@U?$pair@QAXUAllocationRecord@@@std@@PAX@0@AAPAU10@@Z 00462500 f i DeanLib:MemoryTracker.obj
 0002:0003d540       ??$forward@AAPAX@std@@YAAAPAXAAPAX@Z 00462540 f i DeanLib:MemoryTracker.obj
 0002:0003d580       ??$forward@AAU?$_Wrap_alloc@V?$allocator@U?$_Tree_node@U?$pair@QAXUAllocationRecord@@@std@@PAX@std@@@std@@@std@@@std@@YAAAU?$_Wrap_alloc@V?$allocator@U?$_Tree_node@U?$pair@QAXUAllocationRecord@@@std@@PAX@std@@@std@@@0@AAU10@@Z 00462580 f i DeanLib:MemoryTracker.obj
 0002:0003d5c0       ??$forward@AAU?$pair@PAXUAllocationRecord@@@std@@@std@@YAAAU?$pair@PAXUAllocationRecord@@@0@AAU10@@Z 004625c0 f i DeanLib:MemoryTracker.obj
 0002:0003d600       ??$forward@AAU?$pair@QAXUAllocationRecord@@@std@@@std@@YAAAU?$pair@QAXUAllocationRecord@@@0@AAU10@@Z 00462600 f i DeanLib:MemoryTracker.obj
 0002:0003d640       ??$forward@AAUAllocationRecord@@@std@@YAAAUAllocationRecord@@AAU1@@Z 00462640 f i DeanLib:MemoryTracker.obj
 0002:0003d680       ??$forward@AAV?$_Tree_iterator@V?$_Tree_val@U?$_Tree_simple_types@U?$pair@QAXUAllocationRecord@@@std@@@std@@@std@@@std@@@std@@YAAAV?$_Tree_iterator@V?$_Tree_val@U?$_Tree_simple_types@U?$pair@QAXUAllocationRecord@@@std@@@std@@@std@@@0@AAV10@@Z 00462680 f i DeanLib:MemoryTracker.obj
 0002:0003d6c0       ??$forward@ABU?$less@PAX@std@@@std@@YAABU?$less@PAX@0@ABU10@@Z 004626c0 f i DeanLib:MemoryTracker.obj
 0002:0003d700       ??$forward@V?$_Tree_iterator@V?$_Tree_val@U?$_Tree_simple_types@U?$pair@QAXUAllocationRecord@@@std@@@std@@@std@@@std@@@std@@YA$$QAV?$_Tree_iterator@V?$_Tree_val@U?$_Tree_simple_types@U?$pair@QAXUAllocationRecord@@@std@@@std@@@std@@@0@AAV10@@Z 00462700 f i DeanLib:MemoryTracker.obj
 0002:0003d740       ??$insert@AAU?$pair@PAXUAllocationRecord@@@std@@X@?$map@PAXUAllocationRecord@@U?$less@PAX@std@@V?$allocator@U?$pair@QAXUAllocationRecord@@@std@@@3@@std@@QAE?AU?$pair@V?$_Tree_iterator@V?$_Tree_val@U?$_Tree_simple_types@U?$pair@QAXUAllocationRecord@@@std@@@std@@@std@@@std@@_N@1@AAU?$pair@PAXUAllocationRecord@@@1@@Z 00462740 f i DeanLib:MemoryTracker.obj
 0002:0003d7d0       ??0?$_Iterator012@Ubidirectional_iterator_tag@std@@U?$pair@QAXUAllocationRecord@@@2@HPBU32@ABU32@U_Iterator_base12@2@@std@@QAE@$$QAU01@@Z 004627d0 f i DeanLib:MemoryTracker.obj
 0002:0003d830       ??0?$_Iterator012@Ubidirectional_iterator_tag@std@@U?$pair@QAXUAllocationRecord@@@2@HPBU32@ABU32@U_Iterator_base12@2@@std@@QAE@ABU01@@Z 00462830 f i DeanLib:MemoryTracker.obj
 0002:0003d890       ??0?$_Iterator012@Ubidirectional_iterator_tag@std@@U?$pair@QAXUAllocationRecord@@@2@HPBU32@ABU32@U_Iterator_base12@2@@std@@QAE@XZ 00462890 f i DeanLib:MemoryTracker.obj
 0002:0003d8f0       ??0?$_Tree@V?$_Tmap_traits@PAXUAllocationRecord@@U?$less@PAX@std@@V?$allocator@U?$pair@QAXUAllocationRecord@@@std@@@3@$0A@@std@@@std@@QAE@ABU?$less@PAX@1@@Z 004628f0 f i DeanLib:MemoryTracker.obj
 0002:0003d950       ??0?$_Tree_comp_alloc@V?$_Tmap_traits@PAXUAllocationRecord@@U?$less@PAX@std@@V?$allocator@U?$pair@QAXUAllocationRecord@@@std@@@3@$0A@@std@@@std@@QAE@ABU?$less@PAX@1@@Z 00462950 f i DeanLib:MemoryTracker.obj
 0002:0003da10       ??0?$_Tree_const_iterator@V?$_Tree_val@U?$_Tree_simple_types@U?$pair@QAXUAllocationRecord@@@std@@@std@@@std@@@std@@QAE@$$QAV01@@Z 00462a10 f i DeanLib:MemoryTracker.obj
 0002:0003da70       ??0?$_Tree_const_iterator@V?$_Tree_val@U?$_Tree_simple_types@U?$pair@QAXUAllocationRecord@@@std@@@std@@@std@@@std@@QAE@ABV01@@Z 00462a70 f i DeanLib:MemoryTracker.obj
 0002:0003dad0       ??0?$_Tree_const_iterator@V?$_Tree_val@U?$_Tree_simple_types@U?$pair@QAXUAllocationRecord@@@std@@@std@@@std@@@std@@QAE@PAU?$_Tree_node@U?$pair@QAXUAllocationRecord@@@std@@PAX@1@PBV?$_Tree_val@U?$_Tree_simple_types@U?$pair@QAXUAllocationRecord@@@std@@@std@@@1@@Z 00462ad0 f i DeanLib:MemoryTracker.obj
 0002:0003db30       ??0?$_Tree_const_iterator@V?$_Tree_val@U?$_Tree_simple_types@U?$pair@QAXUAllocationRecord@@@std@@@std@@@std@@@std@@QAE@XZ 00462b30 f i DeanLib:MemoryTracker.obj
 0002:0003db90       ??0?$_Tree_iterator@V?$_Tree_val@U?$_Tree_simple_types@U?$pair@QAXUAllocationRecord@@@std@@@std@@@std@@@std@@QAE@$$QAV01@@Z 00462b90 f i DeanLib:MemoryTracker.obj
 0002:0003dbf0       ??0?$_Tree_iterator@V?$_Tree_val@U?$_Tree_simple_types@U?$pair@QAXUAllocationRecord@@@std@@@std@@@std@@@std@@QAE@ABV01@@Z 00462bf0 f i DeanLib:MemoryTracker.obj
 0002:0003dc50       ??0?$_Tree_iterator@V?$_Tree_val@U?$_Tree_simple_types@U?$pair@QAXUAllocationRecord@@@std@@@std@@@std@@@std@@QAE@PAU?$_Tree_node@U?$pair@QAXUAllocationRecord@@@std@@PAX@1@PBV?$_Tree_val@U?$_Tree_simple_types@U?$pair@QAXUAllocationRecord@@@std@@@std@@@1@@Z 00462c50 f i DeanLib:MemoryTracker.obj
 0002:0003dcb0       ??0?$_Tree_iterator@V?$_Tree_val@U?$_Tree_simple_types@U?$pair@QAXUAllocationRecord@@@std@@@std@@@std@@@std@@QAE@XZ 00462cb0 f i DeanLib:MemoryTracker.obj
 0002:0003dd10       ??0?$_Tree_unchecked_const_iterator@V?$_Tree_val@U?$_Tree_simple_types@U?$pair@QAXUAllocationRecord@@@std@@@std@@@std@@U_Iterator_base12@2@@std@@QAE@$$QAV01@@Z 00462d10 f i DeanLib:MemoryTracker.obj
 0002:0003dd80       ??0?$_Tree_unchecked_const_iterator@V?$_Tree_val@U?$_Tree_simple_types@U?$pair@QAXUAllocationRecord@@@std@@@std@@@std@@U_Iterator_base12@2@@std@@QAE@ABV01@@Z 00462d80 f i DeanLib:MemoryTracker.obj
 0002:0003ddf0       ??0?$_Tree_unchecked_const_iterator@V?$_Tree_val@U?$_Tree_simple_types@U?$pair@QAXUAllocationRecord@@@std@@@std@@@std@@U_Iterator_base12@2@@std@@QAE@PAU?$_Tree_node@U?$pair@QAXUAllocationRecord@@@std@@PAX@1@PBV?$_Tree_val@U?$_Tree_simple_types@U?$pair@QAXUAllocationRecord@@@std@@@std@@@1@@Z 00462df0 f i DeanLib:MemoryTracker.obj
 0002:0003deb0       ??0?$_Tree_unchecked_const_iterator@V?$_Tree_val@U?$_Tree_simple_types@U?$pair@QAXUAllocationRecord@@@std@@@std@@@std@@U_Iterator_base12@2@@std@@QAE@XZ 00462eb0 f i DeanLib:MemoryTracker.obj
 0002:0003df10       ??0?$_Tree_val@U?$_Tree_simple_types@U?$pair@QAXUAllocationRecord@@@std@@@std@@@std@@QAE@XZ 00462f10 f i DeanLib:MemoryTracker.obj
 0002:0003df80       ??0?$_Wrap_alloc@V?$allocator@U?$_Tree_node@U?$pair@QAXUAllocationRecord@@@std@@PAX@std@@@std@@@std@@QAE@XZ 00462f80 f i DeanLib:MemoryTracker.obj
 0002:0003dfe0       ??0?$allocator@U?$_Tree_node@U?$pair@QAXUAllocationRecord@@@std@@PAX@std@@@std@@QAE@XZ 00462fe0 f i DeanLib:MemoryTracker.obj
 0002:0003e020       ??0?$map@PAXUAllocationRecord@@U?$less@PAX@std@@V?$allocator@U?$pair@QAXUAllocationRecord@@@std@@@3@@std@@QAE@XZ 00463020 f i DeanLib:MemoryTracker.obj
 0002:0003e080       ??0AllocationRecord@@QAE@HI@Z 00463080 f i DeanLib:MemoryTracker.obj
 0002:0003e0d0       ??0MemoryTracker@@QAE@XZ   004630d0 f   DeanLib:MemoryTracker.obj
 0002:0003e130       ??1?$_Compressed_pair@U?$_Wrap_alloc@V?$allocator@U?$_Tree_node@U?$pair@QAXUAllocationRecord@@@std@@PAX@std@@@std@@@std@@V?$_Tree_val@U?$_Tree_simple_types@U?$pair@QAXUAllocationRecord@@@std@@@std@@@2@$00@std@@QAE@XZ 00463130 f i DeanLib:MemoryTracker.obj
 0002:0003e180       ??1?$_Compressed_pair@U?$less@PAX@std@@V?$_Compressed_pair@U?$_Wrap_alloc@V?$allocator@U?$_Tree_node@U?$pair@QAXUAllocationRecord@@@std@@PAX@std@@@std@@@std@@V?$_Tree_val@U?$_Tree_simple_types@U?$pair@QAXUAllocationRecord@@@std@@@std@@@2@$00@2@$00@std@@QAE@XZ 00463180 f i DeanLib:MemoryTracker.obj
 0002:0003e1d0       ??1?$_Iterator012@Ubidirectional_iterator_tag@std@@U?$pair@QAXUAllocationRecord@@@2@HPBU32@ABU32@U_Iterator_base12@2@@std@@QAE@XZ 004631d0 f i DeanLib:MemoryTracker.obj
 0002:0003e220       ??1?$_Tree@V?$_Tmap_traits@PAXUAllocationRecord@@U?$less@PAX@std@@V?$allocator@U?$pair@QAXUAllocationRecord@@@std@@@3@$0A@@std@@@std@@QAE@XZ 00463220 f i DeanLib:MemoryTracker.obj
 0002:0003e2b0       ??1?$_Tree_comp_alloc@V?$_Tmap_traits@PAXUAllocationRecord@@U?$less@PAX@std@@V?$allocator@U?$pair@QAXUAllocationRecord@@@std@@@3@$0A@@std@@@std@@QAE@XZ 004632b0 f i DeanLib:MemoryTracker.obj
 0002:0003e360       ??1?$_Tree_const_iterator@V?$_Tree_val@U?$_Tree_simple_types@U?$pair@QAXUAllocationRecord@@@std@@@std@@@std@@@std@@QAE@XZ 00463360 f i DeanLib:MemoryTracker.obj
 0002:0003e3b0       ??1?$_Tree_iterator@V?$_Tree_val@U?$_Tree_simple_types@U?$pair@QAXUAllocationRecord@@@std@@@std@@@std@@@std@@QAE@XZ 004633b0 f i DeanLib:MemoryTracker.obj
 0002:0003e400       ??1?$_Tree_unchecked_const_iterator@V?$_Tree_val@U?$_Tree_simple_types@U?$pair@QAXUAllocationRecord@@@std@@@std@@@std@@U_Iterator_base12@2@@std@@QAE@XZ 00463400 f i DeanLib:MemoryTracker.obj
 0002:0003e450       ??1?$_Tree_val@U?$_Tree_simple_types@U?$pair@QAXUAllocationRecord@@@std@@@std@@@std@@QAE@XZ 00463450 f i DeanLib:MemoryTracker.obj
 0002:0003e4a0       ??1?$map@PAXUAllocationRecord@@U?$less@PAX@std@@V?$allocator@U?$pair@QAXUAllocationRecord@@@std@@@3@@std@@QAE@XZ 004634a0 f i DeanLib:MemoryTracker.obj
 0002:0003e4f0       ??1?$pair@V?$_Tree_iterator@V?$_Tree_val@U?$_Tree_simple_types@U?$pair@QAXUAllocationRecord@@@std@@@std@@@std@@@std@@_N@std@@QAE@XZ 004634f0 f i DeanLib:MemoryTracker.obj
 0002:0003e540       ??1MemoryTracker@@QAE@XZ   00463540 f   DeanLib:MemoryTracker.obj
 0002:0003e5f0       ??4?$_Iterator012@Ubidirectional_iterator_tag@std@@U?$pair@QAXUAllocationRecord@@@2@HPBU32@ABU32@U_Iterator_base12@2@@std@@QAEAAU01@$$QAU01@@Z 004635f0 f i DeanLib:MemoryTracker.obj
 0002:0003e650       ??4?$_Tree_const_iterator@V?$_Tree_val@U?$_Tree_simple_types@U?$pair@QAXUAllocationRecord@@@std@@@std@@@std@@@std@@QAEAAV01@$$QAV01@@Z 00463650 f i DeanLib:MemoryTracker.obj
 0002:0003e6b0       ??4?$_Tree_iterator@V?$_Tree_val@U?$_Tree_simple_types@U?$pair@QAXUAllocationRecord@@@std@@@std@@@std@@@std@@QAEAAV01@$$QAV01@@Z 004636b0 f i DeanLib:MemoryTracker.obj
 0002:0003e710       ??4?$_Tree_unchecked_const_iterator@V?$_Tree_val@U?$_Tree_simple_types@U?$pair@QAXUAllocationRecord@@@std@@@std@@@std@@U_Iterator_base12@2@@std@@QAEAAV01@$$QAV01@@Z 00463710 f i DeanLib:MemoryTracker.obj
 0002:0003e780       ??8?$_Tree_const_iterator@V?$_Tree_val@U?$_Tree_simple_types@U?$pair@QAXUAllocationRecord@@@std@@@std@@@std@@@std@@QBE_NABV01@@Z 00463780 f i DeanLib:MemoryTracker.obj
 0002:0003e8d0       ??9?$_Tree_const_iterator@V?$_Tree_val@U?$_Tree_simple_types@U?$pair@QAXUAllocationRecord@@@std@@@std@@@std@@@std@@QBE_NABV01@@Z 004638d0 f i DeanLib:MemoryTracker.obj
 0002:0003e960       ??C?$_Tree_iterator@V?$_Tree_val@U?$_Tree_simple_types@U?$pair@QAXUAllocationRecord@@@std@@@std@@@std@@@std@@QBEPAU?$pair@QAXUAllocationRecord@@@1@XZ 00463960 f i DeanLib:MemoryTracker.obj
 0002:0003e9c0       ??D?$_Tree_const_iterator@V?$_Tree_val@U?$_Tree_simple_types@U?$pair@QAXUAllocationRecord@@@std@@@std@@@std@@@std@@QBEABU?$pair@QAXUAllocationRecord@@@1@XZ 004639c0 f i DeanLib:MemoryTracker.obj
 0002:0003eb00       ??D?$_Tree_iterator@V?$_Tree_val@U?$_Tree_simple_types@U?$pair@QAXUAllocationRecord@@@std@@@std@@@std@@@std@@QBEAAU?$pair@QAXUAllocationRecord@@@1@XZ 00463b00 f i DeanLib:MemoryTracker.obj
 0002:0003eb50       ??E?$_Tree_const_iterator@V?$_Tree_val@U?$_Tree_simple_types@U?$pair@QAXUAllocationRecord@@@std@@@std@@@std@@@std@@QAE?AV01@H@Z 00463b50 f i DeanLib:MemoryTracker.obj
 0002:0003ec90       ??E?$_Tree_const_iterator@V?$_Tree_val@U?$_Tree_simple_types@U?$pair@QAXUAllocationRecord@@@std@@@std@@@std@@@std@@QAEAAV01@XZ 00463c90 f i DeanLib:MemoryTracker.obj
 0002:0003edd0       ??E?$_Tree_iterator@V?$_Tree_val@U?$_Tree_simple_types@U?$pair@QAXUAllocationRecord@@@std@@@std@@@std@@@std@@QAEAAV01@XZ 00463dd0 f i DeanLib:MemoryTracker.obj
 0002:0003ee30       ??E?$_Tree_unchecked_const_iterator@V?$_Tree_val@U?$_Tree_simple_types@U?$pair@QAXUAllocationRecord@@@std@@@std@@@std@@U_Iterator_base12@2@@std@@QAEAAV01@XZ 00463e30 f i DeanLib:MemoryTracker.obj
 0002:0003ef60       ??F?$_Tree_const_iterator@V?$_Tree_val@U?$_Tree_simple_types@U?$pair@QAXUAllocationRecord@@@std@@@std@@@std@@@std@@QAEAAV01@XZ 00463f60 f i DeanLib:MemoryTracker.obj
 0002:0003f140       ??F?$_Tree_iterator@V?$_Tree_val@U?$_Tree_simple_types@U?$pair@QAXUAllocationRecord@@@std@@@std@@@std@@@std@@QAEAAV01@XZ 00464140 f i DeanLib:MemoryTracker.obj
 0002:0003f1a0       ??F?$_Tree_unchecked_const_iterator@V?$_Tree_val@U?$_Tree_simple_types@U?$pair@QAXUAllocationRecord@@@std@@@std@@@std@@U_Iterator_base12@2@@std@@QAEAAV01@XZ 004641a0 f i DeanLib:MemoryTracker.obj
 0002:0003f300       ??R?$less@PAX@std@@QBE_NABQAX0@Z 00464300 f i DeanLib:MemoryTracker.obj
 0002:0003f370       ?_Alloc_proxy@?$_Tree_comp_alloc@V?$_Tmap_traits@PAXUAllocationRecord@@U?$less@PAX@std@@V?$allocator@U?$pair@QAXUAllocationRecord@@@std@@@3@$0A@@std@@@std@@QAEXXZ 00464370 f i DeanLib:MemoryTracker.obj
 0002:0003f490       ?_Buyheadnode@?$_Tree_comp_alloc@V?$_Tmap_traits@PAXUAllocationRecord@@U?$less@PAX@std@@V?$allocator@U?$pair@QAXUAllocationRecord@@@std@@@3@$0A@@std@@@std@@QAEPAU?$_Tree_node@U?$pair@QAXUAllocationRecord@@@std@@PAX@2@XZ 00464490 f i DeanLib:MemoryTracker.obj
 0002:0003f6b0       ?_Buynode0@?$_Tree_comp_alloc@V?$_Tmap_traits@PAXUAllocationRecord@@U?$less@PAX@std@@V?$allocator@U?$pair@QAXUAllocationRecord@@@std@@@3@$0A@@std@@@std@@QAEPAU?$_Tree_node@U?$pair@QAXUAllocationRecord@@@std@@PAX@2@XZ 004646b0 f i DeanLib:MemoryTracker.obj
 0002:0003f870       ?_Color@?$_Tree_comp_alloc@V?$_Tmap_traits@PAXUAllocationRecord@@U?$less@PAX@std@@V?$allocator@U?$pair@QAXUAllocationRecord@@@std@@@3@$0A@@std@@@std@@SAAADPAU?$_Tree_node@U?$pair@QAXUAllocationRecord@@@std@@PAX@2@@Z 00464870 f i DeanLib:MemoryTracker.obj
 0002:0003f8c0       ?_Color@?$_Tree_val@U?$_Tree_simple_types@U?$pair@QAXUAllocationRecord@@@std@@@std@@@std@@SAAADPAU?$_Tree_node@U?$pair@QAXUAllocationRecord@@@std@@PAX@2@@Z 004648c0 f i DeanLib:MemoryTracker.obj
 0002:0003f900       ?_Compare@?$_Tree@V?$_Tmap_traits@PAXUAllocationRecord@@U?$less@PAX@std@@V?$allocator@U?$pair@QAXUAllocationRecord@@@std@@@3@$0A@@std@@@std@@IBE_NABQAX0@Z 00464900 f i DeanLib:MemoryTracker.obj
 0002:0003f980       ?_Construct@?$_Tree_comp_alloc@V?$_Tmap_traits@PAXUAllocationRecord@@U?$less@PAX@std@@V?$allocator@U?$pair@QAXUAllocationRecord@@@std@@@3@$0A@@std@@@std@@QAEXXZ 00464980 f i DeanLib:MemoryTracker.obj
 0002:0003fa70       ?_Destroy_if_not_nil@?$_Tree@V?$_Tmap_traits@PAXUAllocationRecord@@U?$less@PAX@std@@V?$allocator@U?$pair@QAXUAllocationRecord@@@std@@@3@$0A@@std@@@std@@IAEXPAU?$_Tree_node@U?$pair@QAXUAllocationRecord@@@std@@PAX@2@@Z 00464a70 f i DeanLib:MemoryTracker.obj
 0002:0003fb00       ?_Erase@?$_Tree@V?$_Tmap_traits@PAXUAllocationRecord@@U?$less@PAX@std@@V?$allocator@U?$pair@QAXUAllocationRecord@@@std@@@3@$0A@@std@@@std@@IAEXPAU?$_Tree_node@U?$pair@QAXUAllocationRecord@@@std@@PAX@2@@Z 00464b00 f i DeanLib:MemoryTracker.obj
 0002:0003fbf0       ?_Free_proxy@?$_Tree_comp_alloc@V?$_Tmap_traits@PAXUAllocationRecord@@U?$less@PAX@std@@V?$allocator@U?$pair@QAXUAllocationRecord@@@std@@@3@$0A@@std@@@std@@QAEXXZ 00464bf0 f i DeanLib:MemoryTracker.obj
 0002:0003fd00       ?_Freeheadnode@?$_Tree_comp_alloc@V?$_Tmap_traits@PAXUAllocationRecord@@U?$less@PAX@std@@V?$allocator@U?$pair@QAXUAllocationRecord@@@std@@@3@$0A@@std@@@std@@QAEXPAU?$_Tree_node@U?$pair@QAXUAllocationRecord@@@std@@PAX@2@@Z 00464d00 f i DeanLib:MemoryTracker.obj
 0002:0003fdf0       ?_Freenode0@?$_Tree_comp_alloc@V?$_Tmap_traits@PAXUAllocationRecord@@U?$less@PAX@std@@V?$allocator@U?$pair@QAXUAllocationRecord@@@std@@@3@$0A@@std@@@std@@QAEXPAU?$_Tree_node@U?$pair@QAXUAllocationRecord@@@std@@PAX@2@@Z 00464df0 f i DeanLib:MemoryTracker.obj
 0002:0003fee0       ?_Get_data@?$_Tree_comp_alloc@V?$_Tmap_traits@PAXUAllocationRecord@@U?$less@PAX@std@@V?$allocator@U?$pair@QAXUAllocationRecord@@@std@@@3@$0A@@std@@@std@@QAEAAV?$_Tree_val@U?$_Tree_simple_types@U?$pair@QAXUAllocationRecord@@@std@@@std@@@2@XZ 00464ee0 f i DeanLib:MemoryTracker.obj
 0002:0003ff40       ?_Get_data@?$_Tree_comp_alloc@V?$_Tmap_traits@PAXUAllocationRecord@@U?$less@PAX@std@@V?$allocator@U?$pair@QAXUAllocationRecord@@@std@@@3@$0A@@std@@@std@@QBEABV?$_Tree_val@U?$_Tree_simple_types@U?$pair@QAXUAllocationRecord@@@std@@@std@@@2@XZ 00464f40 f i DeanLib:MemoryTracker.obj
 0002:0003ffa0       ?_Get_first@?$_Compressed_pair@U?$_Wrap_alloc@V?$allocator@U?$_Tree_node@U?$pair@QAXUAllocationRecord@@@std@@PAX@std@@@std@@@std@@V?$_Tree_val@U?$_Tree_simple_types@U?$pair@QAXUAllocationRecord@@@std@@@std@@@2@$00@std@@QAEAAU?$_Wrap_alloc@V?$allocator@U?$_Tree_node@U?$pair@QAXUAllocationRecord@@@std@@PAX@std@@@std@@@2@XZ 00464fa0 f i DeanLib:MemoryTracker.obj
 0002:0003ffe0       ?_Get_first@?$_Compressed_pair@U?$_Wrap_alloc@V?$allocator@U?$_Tree_node@U?$pair@QAXUAllocationRecord@@@std@@PAX@std@@@std@@@std@@V?$_Tree_val@U?$_Tree_simple_types@U?$pair@QAXUAllocationRecord@@@std@@@std@@@2@$00@std@@QBEABU?$_Wrap_alloc@V?$allocator@U?$_Tree_node@U?$pair@QAXUAllocationRecord@@@std@@PAX@std@@@std@@@2@XZ 00464fe0 f i DeanLib:MemoryTracker.obj
 0002:00040020       ?_Get_first@?$_Compressed_pair@U?$less@PAX@std@@V?$_Compressed_pair@U?$_Wrap_alloc@V?$allocator@U?$_Tree_node@U?$pair@QAXUAllocationRecord@@@std@@PAX@std@@@std@@@std@@V?$_Tree_val@U?$_Tree_simple_types@U?$pair@QAXUAllocationRecord@@@std@@@std@@@2@$00@2@$00@std@@QAEAAU?$less@PAX@2@XZ 00465020 f i DeanLib:MemoryTracker.obj
 0002:00040060       ?_Get_first@?$_Compressed_pair@U?$less@PAX@std@@V?$_Compressed_pair@U?$_Wrap_alloc@V?$allocator@U?$_Tree_node@U?$pair@QAXUAllocationRecord@@@std@@PAX@std@@@std@@@std@@V?$_Tree_val@U?$_Tree_simple_types@U?$pair@QAXUAllocationRecord@@@std@@@std@@@2@$00@2@$00@std@@QBEABU?$less@PAX@2@XZ 00465060 f i DeanLib:MemoryTracker.obj
 0002:000400a0       ?_Get_second@?$_Compressed_pair@U?$_Wrap_alloc@V?$allocator@U?$_Tree_node@U?$pair@QAXUAllocationRecord@@@std@@PAX@std@@@std@@@std@@V?$_Tree_val@U?$_Tree_simple_types@U?$pair@QAXUAllocationRecord@@@std@@@std@@@2@$00@std@@QAEAAV?$_Tree_val@U?$_Tree_simple_types@U?$pair@QAXUAllocationRecord@@@std@@@std@@@2@XZ 004650a0 f i DeanLib:MemoryTracker.obj
 0002:000400e0       ?_Get_second@?$_Compressed_pair@U?$_Wrap_alloc@V?$allocator@U?$_Tree_node@U?$pair@QAXUAllocationRecord@@@std@@PAX@std@@@std@@@std@@V?$_Tree_val@U?$_Tree_simple_types@U?$pair@QAXUAllocationRecord@@@std@@@std@@@2@$00@std@@QBEABV?$_Tree_val@U?$_Tree_simple_types@U?$pair@QAXUAllocationRecord@@@std@@@std@@@2@XZ 004650e0 f i DeanLib:MemoryTracker.obj
 0002:00040120       ?_Get_second@?$_Compressed_pair@U?$less@PAX@std@@V?$_Compressed_pair@U?$_Wrap_alloc@V?$allocator@U?$_Tree_node@U?$pair@QAXUAllocationRecord@@@std@@PAX@std@@@std@@@std@@V?$_Tree_val@U?$_Tree_simple_types@U?$pair@QAXUAllocationRecord@@@std@@@std@@@2@$00@2@$00@std@@QAEAAV?$_Compressed_pair@U?$_Wrap_alloc@V?$allocator@U?$_Tree_node@U?$pair@QAXUAllocationRecord@@@std@@PAX@std@@@std@@@std@@V?$_Tree_val@U?$_Tree_simple_types@U?$pair@QAXUAllocationRecord@@@std@@@std@@@2@$00@2@XZ 00465120 f i DeanLib:MemoryTracker.obj
 0002:00040160       ?_Get_second@?$_Compressed_pair@U?$less@PAX@std@@V?$_Compressed_pair@U?$_Wrap_alloc@V?$allocator@U?$_Tree_node@U?$pair@QAXUAllocationRecord@@@std@@PAX@std@@@std@@@std@@V?$_Tree_val@U?$_Tree_simple_types@U?$pair@QAXUAllocationRecord@@@std@@@std@@@2@$00@2@$00@std@@QBEABV?$_Compressed_pair@U?$_Wrap_alloc@V?$allocator@U?$_Tree_node@U?$pair@QAXUAllocationRecord@@@std@@PAX@std@@@std@@@std@@V?$_Tree_val@U?$_Tree_simple_types@U?$pair@QAXUAllocationRecord@@@std@@@std@@@2@$00@2@XZ 00465160 f i DeanLib:MemoryTracker.obj
 0002:000401a0       ?_Getal@?$_Tree_comp_alloc@V?$_Tmap_traits@PAXUAllocationRecord@@U?$less@PAX@std@@V?$allocator@U?$pair@QAXUAllocationRecord@@@std@@@3@$0A@@std@@@std@@QAEAAU?$_Wrap_alloc@V?$allocator@U?$_Tree_node@U?$pair@QAXUAllocationRecord@@@std@@PAX@std@@@std@@@2@XZ 004651a0 f i DeanLib:MemoryTracker.obj
 0002:00040200       ?_Getal@?$_Tree_comp_alloc@V?$_Tmap_traits@PAXUAllocationRecord@@U?$less@PAX@std@@V?$allocator@U?$pair@QAXUAllocationRecord@@@std@@@3@$0A@@std@@@std@@QBEABU?$_Wrap_alloc@V?$allocator@U?$_Tree_node@U?$pair@QAXUAllocationRecord@@@std@@PAX@std@@@std@@@2@XZ 00465200 f i DeanLib:MemoryTracker.obj
 0002:00040260       ?_Getcomp@?$_Tree_comp_alloc@V?$_Tmap_traits@PAXUAllocationRecord@@U?$less@PAX@std@@V?$allocator@U?$pair@QAXUAllocationRecord@@@std@@@3@$0A@@std@@@std@@QAEAAU?$less@PAX@2@XZ 00465260 f i DeanLib:MemoryTracker.obj
 0002:000402b0       ?_Getcomp@?$_Tree_comp_alloc@V?$_Tmap_traits@PAXUAllocationRecord@@U?$less@PAX@std@@V?$allocator@U?$pair@QAXUAllocationRecord@@@std@@@3@$0A@@std@@@std@@QBEABU?$less@PAX@2@XZ 004652b0 f i DeanLib:MemoryTracker.obj
 0002:00040300       ?_Getpfirst@?$_Tree_comp_alloc@V?$_Tmap_traits@PAXUAllocationRecord@@U?$less@PAX@std@@V?$allocator@U?$pair@QAXUAllocationRecord@@@std@@@3@$0A@@std@@@std@@QBEPAPAU_Iterator_base12@2@XZ 00465300 f i DeanLib:MemoryTracker.obj
 0002:00040360       ?_Isnil@?$_Tree_comp_alloc@V?$_Tmap_traits@PAXUAllocationRecord@@U?$less@PAX@std@@V?$allocator@U?$pair@QAXUAllocationRecord@@@std@@@3@$0A@@std@@@std@@SAAADPAU?$_Tree_node@U?$pair@QAXUAllocationRecord@@@std@@PAX@2@@Z 00465360 f i DeanLib:MemoryTracker.obj
 0002:000403b0       ?_Isnil@?$_Tree_val@U?$_Tree_simple_types@U?$pair@QAXUAllocationRecord@@@std@@@std@@@std@@SAAADPAU?$_Tree_node@U?$pair@QAXUAllocationRecord@@@std@@PAX@2@@Z 004653b0 f i DeanLib:MemoryTracker.obj
 0002:000403f0       ?_Key@?$_Tree@V?$_Tmap_traits@PAXUAllocationRecord@@U?$less@PAX@std@@V?$allocator@U?$pair@QAXUAllocationRecord@@@std@@@3@$0A@@std@@@std@@IBEABQAXPAU?$_Tree_node@U?$pair@QAXUAllocationRecord@@@std@@PAX@2@@Z 004653f0 f i DeanLib:MemoryTracker.obj
 0002:00040460       ?_Kfn@?$_Tree@V?$_Tmap_traits@PAXUAllocationRecord@@U?$less@PAX@std@@V?$allocator@U?$pair@QAXUAllocationRecord@@@std@@@3@$0A@@std@@@std@@IBEABQAXABU?$pair@QAXUAllocationRecord@@@2@@Z 00465460 f i DeanLib:MemoryTracker.obj
 0002:000404c0       ?_Left@?$_Tree_comp_alloc@V?$_Tmap_traits@PAXUAllocationRecord@@U?$less@PAX@std@@V?$allocator@U?$pair@QAXUAllocationRecord@@@std@@@3@$0A@@std@@@std@@SAAAPAU?$_Tree_node@U?$pair@QAXUAllocationRecord@@@std@@PAX@2@PAU32@@Z 004654c0 f i DeanLib:MemoryTracker.obj
 0002:00040510       ?_Left@?$_Tree_val@U?$_Tree_simple_types@U?$pair@QAXUAllocationRecord@@@std@@@std@@@std@@SAAAPAU?$_Tree_node@U?$pair@QAXUAllocationRecord@@@std@@PAX@2@PAU32@@Z 00465510 f i DeanLib:MemoryTracker.obj
 0002:00040550       ?_Lmost@?$_Tree@V?$_Tmap_traits@PAXUAllocationRecord@@U?$less@PAX@std@@V?$allocator@U?$pair@QAXUAllocationRecord@@@std@@@3@$0A@@std@@@std@@IBEAAPAU?$_Tree_node@U?$pair@QAXUAllocationRecord@@@std@@PAX@2@XZ 00465550 f i DeanLib:MemoryTracker.obj
 0002:000405b0       ?_Lrotate@?$_Tree@V?$_Tmap_traits@PAXUAllocationRecord@@U?$less@PAX@std@@V?$allocator@U?$pair@QAXUAllocationRecord@@@std@@@3@$0A@@std@@@std@@IAEXPAU?$_Tree_node@U?$pair@QAXUAllocationRecord@@@std@@PAX@2@@Z 004655b0 f i DeanLib:MemoryTracker.obj
 0002:00040760       ?_Max@?$_Tree_comp_alloc@V?$_Tmap_traits@PAXUAllocationRecord@@U?$less@PAX@std@@V?$allocator@U?$pair@QAXUAllocationRecord@@@std@@@3@$0A@@std@@@std@@SAPAU?$_Tree_node@U?$pair@QAXUAllocationRecord@@@std@@PAX@2@PAU32@@Z 00465760 f i DeanLib:MemoryTracker.obj
 0002:000407b0       ?_Max@?$_Tree_val@U?$_Tree_simple_types@U?$pair@QAXUAllocationRecord@@@std@@@std@@@std@@SAPAU?$_Tree_node@U?$pair@QAXUAllocationRecord@@@std@@PAX@2@PAU32@@Z 004657b0 f i DeanLib:MemoryTracker.obj
 0002:00040830       ?_Min@?$_Tree_comp_alloc@V?$_Tmap_traits@PAXUAllocationRecord@@U?$less@PAX@std@@V?$allocator@U?$pair@QAXUAllocationRecord@@@std@@@3@$0A@@std@@@std@@SAPAU?$_Tree_node@U?$pair@QAXUAllocationRecord@@@std@@PAX@2@PAU32@@Z 00465830 f i DeanLib:MemoryTracker.obj
 0002:00040880       ?_Min@?$_Tree_val@U?$_Tree_simple_types@U?$pair@QAXUAllocationRecord@@@std@@@std@@@std@@SAPAU?$_Tree_node@U?$pair@QAXUAllocationRecord@@@std@@PAX@2@PAU32@@Z 00465880 f i DeanLib:MemoryTracker.obj
 0002:00040900       ?_Myhead@?$_Tree_comp_alloc@V?$_Tmap_traits@PAXUAllocationRecord@@U?$less@PAX@std@@V?$allocator@U?$pair@QAXUAllocationRecord@@@std@@@3@$0A@@std@@@std@@QAEAAPAU?$_Tree_node@U?$pair@QAXUAllocationRecord@@@std@@PAX@2@XZ 00465900 f i DeanLib:MemoryTracker.obj
 0002:00040960       ?_Myhead@?$_Tree_comp_alloc@V?$_Tmap_traits@PAXUAllocationRecord@@U?$less@PAX@std@@V?$allocator@U?$pair@QAXUAllocationRecord@@@std@@@3@$0A@@std@@@std@@QBEABQAU?$_Tree_node@U?$pair@QAXUAllocationRecord@@@std@@PAX@2@XZ 00465960 f i DeanLib:MemoryTracker.obj
 0002:000409c0       ?_Mynode@?$_Tree_unchecked_const_iterator@V?$_Tree_val@U?$_Tree_simple_types@U?$pair@QAXUAllocationRecord@@@std@@@std@@@std@@U_Iterator_base12@2@@std@@QBEPAU?$_Tree_node@U?$pair@QAXUAllocationRecord@@@std@@PAX@2@XZ 004659c0 f i DeanLib:MemoryTracker.obj
 0002:00040a00       ?_Myproxy@?$_Tree_comp_alloc@V?$_Tmap_traits@PAXUAllocationRecord@@U?$less@PAX@std@@V?$allocator@U?$pair@QAXUAllocationRecord@@@std@@@3@$0A@@std@@@std@@QAEAAPAU_Container_proxy@2@XZ 00465a00 f i DeanLib:MemoryTracker.obj
 0002:00040a50       ?_Mysize@?$_Tree_comp_alloc@V?$_Tmap_traits@PAXUAllocationRecord@@U?$less@PAX@std@@V?$allocator@U?$pair@QAXUAllocationRecord@@@std@@@3@$0A@@std@@@std@@QAEAAIXZ 00465a50 f i DeanLib:MemoryTracker.obj
 0002:00040ab0       ?_Myval@?$_Tree_comp_alloc@V?$_Tmap_traits@PAXUAllocationRecord@@U?$less@PAX@std@@V?$allocator@U?$pair@QAXUAllocationRecord@@@std@@@3@$0A@@std@@@std@@SAAAU?$pair@QAXUAllocationRecord@@@2@PAU?$_Tree_node@U?$pair@QAXUAllocationRecord@@@std@@PAX@2@@Z 00465ab0 f i DeanLib:MemoryTracker.obj
 0002:00040b00       ?_Myval@?$_Tree_val@U?$_Tree_simple_types@U?$pair@QAXUAllocationRecord@@@std@@@std@@@std@@SAAAU?$pair@QAXUAllocationRecord@@@2@PAU?$_Tree_node@U?$pair@QAXUAllocationRecord@@@std@@PAX@2@@Z 00465b00 f i DeanLib:MemoryTracker.obj
 0002:00040b40       ?_Orphan_all@?$_Tree_comp_alloc@V?$_Tmap_traits@PAXUAllocationRecord@@U?$less@PAX@std@@V?$allocator@U?$pair@QAXUAllocationRecord@@@std@@@3@$0A@@std@@@std@@QAEXXZ 00465b40 f i DeanLib:MemoryTracker.obj
 0002:00040ba0       ?_Orphan_ptr@?$_Tree@V?$_Tmap_traits@PAXUAllocationRecord@@U?$less@PAX@std@@V?$allocator@U?$pair@QAXUAllocationRecord@@@std@@@3@$0A@@std@@@std@@IAEXPAU?$_Tree_node@U?$pair@QAXUAllocationRecord@@@std@@PAX@2@@Z 00465ba0 f i DeanLib:MemoryTracker.obj
 0002:00040d30       ?_Parent@?$_Tree_comp_alloc@V?$_Tmap_traits@PAXUAllocationRecord@@U?$less@PAX@std@@V?$allocator@U?$pair@QAXUAllocationRecord@@@std@@@3@$0A@@std@@@std@@SAAAPAU?$_Tree_node@U?$pair@QAXUAllocationRecord@@@std@@PAX@2@PAU32@@Z 00465d30 f i DeanLib:MemoryTracker.obj
 0002:00040d80       ?_Parent@?$_Tree_val@U?$_Tree_simple_types@U?$pair@QAXUAllocationRecord@@@std@@@std@@@std@@SAAAPAU?$_Tree_node@U?$pair@QAXUAllocationRecord@@@std@@PAX@2@PAU32@@Z 00465d80 f i DeanLib:MemoryTracker.obj
 0002:00040dc0       ?_Right@?$_Tree_comp_alloc@V?$_Tmap_traits@PAXUAllocationRecord@@U?$less@PAX@std@@V?$allocator@U?$pair@QAXUAllocationRecord@@@std@@@3@$0A@@std@@@std@@SAAAPAU?$_Tree_node@U?$pair@QAXUAllocationRecord@@@std@@PAX@2@PAU32@@Z 00465dc0 f i DeanLib:MemoryTracker.obj
 0002:00040e10       ?_Right@?$_Tree_val@U?$_Tree_simple_types@U?$pair@QAXUAllocationRecord@@@std@@@std@@@std@@SAAAPAU?$_Tree_node@U?$pair@QAXUAllocationRecord@@@std@@PAX@2@PAU32@@Z 00465e10 f i DeanLib:MemoryTracker.obj
 0002:00040e50       ?_Rmost@?$_Tree@V?$_Tmap_traits@PAXUAllocationRecord@@U?$less@PAX@std@@V?$allocator@U?$pair@QAXUAllocationRecord@@@std@@@3@$0A@@std@@@std@@IBEAAPAU?$_Tree_node@U?$pair@QAXUAllocationRecord@@@std@@PAX@2@XZ 00465e50 f i DeanLib:MemoryTracker.obj
 0002:00040eb0       ?_Root@?$_Tree@V?$_Tmap_traits@PAXUAllocationRecord@@U?$less@PAX@std@@V?$allocator@U?$pair@QAXUAllocationRecord@@@std@@@3@$0A@@std@@@std@@IBEAAPAU?$_Tree_node@U?$pair@QAXUAllocationRecord@@@std@@PAX@2@XZ 00465eb0 f i DeanLib:MemoryTracker.obj
 0002:00040f10       ?_Rrotate@?$_Tree@V?$_Tmap_traits@PAXUAllocationRecord@@U?$less@PAX@std@@V?$allocator@U?$pair@QAXUAllocationRecord@@@std@@@3@$0A@@std@@@std@@IAEXPAU?$_Tree_node@U?$pair@QAXUAllocationRecord@@@std@@PAX@2@@Z 00465f10 f i DeanLib:MemoryTracker.obj
 0002:000410c0       ?_Tidy@?$_Tree@V?$_Tmap_traits@PAXUAllocationRecord@@U?$less@PAX@std@@V?$allocator@U?$pair@QAXUAllocationRecord@@@std@@@3@$0A@@std@@@std@@IAEXXZ 004660c0 f i DeanLib:MemoryTracker.obj
 0002:00041250       ?__autoclassinit2@?$_Tree_const_iterator@V?$_Tree_val@U?$_Tree_simple_types@U?$pair@QAXUAllocationRecord@@@std@@@std@@@std@@@std@@QAEXI@Z 00466250 f i DeanLib:MemoryTracker.obj
 0002:000412b0       ?__autoclassinit2@?$_Tree_iterator@V?$_Tree_val@U?$_Tree_simple_types@U?$pair@QAXUAllocationRecord@@@std@@@std@@@std@@@std@@QAEXI@Z 004662b0 f i DeanLib:MemoryTracker.obj
 0002:00041310       ?__autoclassinit2@MemoryTracker@@QAEXI@Z 00466310 f i DeanLib:MemoryTracker.obj
 0002:00041370       ?addAllocation@MemoryTracker@@QAEXPAXI@Z 00466370 f   DeanLib:MemoryTracker.obj
 0002:00041570       ?allocate@?$_Wrap_alloc@V?$allocator@U?$_Tree_node@U?$pair@QAXUAllocationRecord@@@std@@PAX@std@@@std@@@std@@QAEPAU?$_Tree_node@U?$pair@QAXUAllocationRecord@@@std@@PAX@2@I@Z 00466570 f i DeanLib:MemoryTracker.obj
 0002:000415d0       ?allocate@?$allocator@U?$_Tree_node@U?$pair@QAXUAllocationRecord@@@std@@PAX@std@@@std@@QAEPAU?$_Tree_node@U?$pair@QAXUAllocationRecord@@@std@@PAX@2@I@Z 004665d0 f i DeanLib:MemoryTracker.obj
 0002:00041630       ?begin@?$_Tree@V?$_Tmap_traits@PAXUAllocationRecord@@U?$less@PAX@std@@V?$allocator@U?$pair@QAXUAllocationRecord@@@std@@@3@$0A@@std@@@std@@QAE?AV?$_Tree_iterator@V?$_Tree_val@U?$_Tree_simple_types@U?$pair@QAXUAllocationRecord@@@std@@@std@@@std@@@2@XZ 00466630 f i DeanLib:MemoryTracker.obj
 0002:000416e0       ?clear@?$_Tree@V?$_Tmap_traits@PAXUAllocationRecord@@U?$less@PAX@std@@V?$allocator@U?$pair@QAXUAllocationRecord@@@std@@@3@$0A@@std@@@std@@QAEXXZ 004666e0 f i DeanLib:MemoryTracker.obj
 0002:000417f0       ?deallocate@?$_Wrap_alloc@V?$allocator@U?$_Tree_node@U?$pair@QAXUAllocationRecord@@@std@@PAX@std@@@std@@@std@@QAEXPAU?$_Tree_node@U?$pair@QAXUAllocationRecord@@@std@@PAX@2@I@Z 004667f0 f i DeanLib:MemoryTracker.obj
 0002:00041850       ?deallocate@?$allocator@U?$_Tree_node@U?$pair@QAXUAllocationRecord@@@std@@PAX@std@@@std@@QAEXPAU?$_Tree_node@U?$pair@QAXUAllocationRecord@@@std@@PAX@2@I@Z 00466850 f i DeanLib:MemoryTracker.obj
 0002:000418b0       ?end@?$_Tree@V?$_Tmap_traits@PAXUAllocationRecord@@U?$less@PAX@std@@V?$allocator@U?$pair@QAXUAllocationRecord@@@std@@@3@$0A@@std@@@std@@QAE?AV?$_Tree_iterator@V?$_Tree_val@U?$_Tree_simple_types@U?$pair@QAXUAllocationRecord@@@std@@@std@@@std@@@2@XZ 004668b0 f i DeanLib:MemoryTracker.obj
 0002:00041960       ?erase@?$_Tree@V?$_Tmap_traits@PAXUAllocationRecord@@U?$less@PAX@std@@V?$allocator@U?$pair@QAXUAllocationRecord@@@std@@@3@$0A@@std@@@std@@QAE?AV?$_Tree_iterator@V?$_Tree_val@U?$_Tree_simple_types@U?$pair@QAXUAllocationRecord@@@std@@@std@@@std@@@2@V?$_Tree_const_iterator@V?$_Tree_val@U?$_Tree_simple_types@U?$pair@QAXUAllocationRecord@@@std@@@std@@@std@@@2@0@Z 00466960 f i DeanLib:MemoryTracker.obj
 0002:00041c80       ?erase@?$_Tree@V?$_Tmap_traits@PAXUAllocationRecord@@U?$less@PAX@std@@V?$allocator@U?$pair@QAXUAllocationRecord@@@std@@@3@$0A@@std@@@std@@QAE?AV?$_Tree_iterator@V?$_Tree_val@U?$_Tree_simple_types@U?$pair@QAXUAllocationRecord@@@std@@@std@@@std@@@2@V?$_Tree_const_iterator@V?$_Tree_val@U?$_Tree_simple_types@U?$pair@QAXUAllocationRecord@@@std@@@std@@@std@@@2@@Z 00466c80 f i DeanLib:MemoryTracker.obj
 0002:00042710       ?find@?$_Tree@V?$_Tmap_traits@PAXUAllocationRecord@@U?$less@PAX@std@@V?$allocator@U?$pair@QAXUAllocationRecord@@@std@@@3@$0A@@std@@@std@@QAE?AV?$_Tree_iterator@V?$_Tree_val@U?$_Tree_simple_types@U?$pair@QAXUAllocationRecord@@@std@@@std@@@std@@@2@ABQAX@Z 00467710 f i DeanLib:MemoryTracker.obj
 0002:00042a30       ?lower_bound@?$_Tree@V?$_Tmap_traits@PAXUAllocationRecord@@U?$less@PAX@std@@V?$allocator@U?$pair@QAXUAllocationRecord@@@std@@@3@$0A@@std@@@std@@QAE?AV?$_Tree_iterator@V?$_Tree_val@U?$_Tree_simple_types@U?$pair@QAXUAllocationRecord@@@std@@@std@@@std@@@2@ABQAX@Z 00467a30 f i DeanLib:MemoryTracker.obj
 0002:00042ac0       ?max_size@?$_Tree@V?$_Tmap_traits@PAXUAllocationRecord@@U?$less@PAX@std@@V?$allocator@U?$pair@QAXUAllocationRecord@@@std@@@3@$0A@@std@@@std@@QBEIXZ 00467ac0 f i DeanLib:MemoryTracker.obj
 0002:00042b30       ?max_size@?$_Wrap_alloc@V?$allocator@U?$_Tree_node@U?$pair@QAXUAllocationRecord@@@std@@PAX@std@@@std@@@std@@QBEIU_Nil@2@@Z 00467b30 f i DeanLib:MemoryTracker.obj
 0002:00042b90       ?max_size@?$allocator@U?$_Tree_node@U?$pair@QAXUAllocationRecord@@@std@@PAX@std@@@std@@QBEIXZ 00467b90 f i DeanLib:MemoryTracker.obj
 0002:00042bd0       ?max_size@?$allocator_traits@V?$allocator@U?$_Tree_node@U?$pair@QAXUAllocationRecord@@@std@@PAX@std@@@std@@@std@@SAIABV?$allocator@U?$_Tree_node@U?$pair@QAXUAllocationRecord@@@std@@PAX@std@@@2@@Z 00467bd0 f i DeanLib:MemoryTracker.obj
 0002:00042c20       ?pointer_to@?$pointer_traits@PAU?$pair@QAXUAllocationRecord@@@std@@@std@@SAPAU?$pair@QAXUAllocationRecord@@@2@AAU32@@Z 00467c20 f i DeanLib:MemoryTracker.obj
 0002:00042c70       ?removeAllocation@MemoryTracker@@QAEXPAX@Z 00467c70 f   DeanLib:MemoryTracker.obj
 0002:00042e30       ?reportAllocations@MemoryTracker@@QAEXAAV?$basic_ostream@DU?$char_traits@D@std@@@std@@@Z 00467e30 f   DeanLib:MemoryTracker.obj
 0002:000430e0       ??0Vector2D@@QAE@ABV0@@Z   004680e0 f   DeanLib:Vector2D.obj
 0002:00043140       ??0Vector2D@@QAE@MM@Z      00468140 f   DeanLib:Vector2D.obj
 0002:000431a0       ??1Vector2D@@QAE@XZ        004681a0 f   DeanLib:Vector2D.obj
 0002:000431e0       ??4Vector2D@@QAEAAV0@ABV0@@Z 004681e0 f   DeanLib:Vector2D.obj
 0002:00043240       ??8Vector2D@@QAE_NABV0@@Z  00468240 f   DeanLib:Vector2D.obj
 0002:00043340       ??9Vector2D@@QAE_NABV0@@Z  00468340 f   DeanLib:Vector2D.obj
 0002:00043440       ??DVector2D@@QBE?BV0@M@Z   00468440 f   DeanLib:Vector2D.obj
 0002:00043590       ??GVector2D@@QBE?BV0@ABV0@@Z 00468590 f   DeanLib:Vector2D.obj
 0002:000436c0       ??HVector2D@@QBE?BV0@ABV0@@Z 004686c0 f   DeanLib:Vector2D.obj
 0002:000437f0       ??XVector2D@@QAEAAV0@M@Z   004687f0 f   DeanLib:Vector2D.obj
 0002:00043860       ??YVector2D@@QAEAAV0@ABV0@@Z 00468860 f   DeanLib:Vector2D.obj
 0002:000438e0       ??ZVector2D@@QAEAAV0@ABV0@@Z 004688e0 f   DeanLib:Vector2D.obj
 0002:00043960       ??_0Vector2D@@QAEAAV0@M@Z  00468960 f   DeanLib:Vector2D.obj
 0002:000439d0       ?getLength@Vector2D@@QBEMXZ 004689d0 f   DeanLib:Vector2D.obj
 0002:00043a40       ?getLengthSquared@Vector2D@@QBEMXZ 00468a40 f   DeanLib:Vector2D.obj
 0002:00043ab0       ?hasNonZeroLength@Vector2D@@QBE_NXZ 00468ab0 f   DeanLib:Vector2D.obj
 0002:00043b30       ?normalize@Vector2D@@QAEXXZ 00468b30 f   DeanLib:Vector2D.obj
 0002:00043bf0       ?sqrt@@YAMM@Z              00468bf0 f i DeanLib:Vector2D.obj
 0002:00043c50       _sqrtf                     00468c50 f i DeanLib:Vector2D.obj
 0002:00043cb8       _Sleep@4                   00468cb8 f   kernel32:KERNEL32.dll
 0002:00043cbe       _QueryPerformanceCounter@4 00468cbe f   kernel32:KERNEL32.dll
 0002:00043cc4       _QueryPerformanceFrequency@4 00468cc4 f   kernel32:KERNEL32.dll
 0002:00043cca       ??0_Lockit@std@@QAE@H@Z    00468cca f   msvcprtd:MSVCP140D.dll
 0002:00043cd0       ??1_Lockit@std@@QAE@XZ     00468cd0 f   msvcprtd:MSVCP140D.dll
 0002:00043cd6       ?_Debug_message@std@@YAXPB_W0I@Z 00468cd6 f   msvcprtd:MSVCP140D.dll
 0002:00043cdc       ?_Xbad_alloc@std@@YAXXZ    00468cdc f   msvcprtd:MSVCP140D.dll
 0002:00043ce2       ?_Xlength_error@std@@YAXPBD@Z 00468ce2 f   msvcprtd:MSVCP140D.dll
 0002:00043ce8       ?_Xout_of_range@std@@YAXPBD@Z 00468ce8 f   msvcprtd:MSVCP140D.dll
 0002:00043cee       ?uncaught_exception@std@@YA_NXZ 00468cee f   msvcprtd:MSVCP140D.dll
 0002:00043d00       ??0_Fac_node@std@@QAE@PAU01@PAV_Facet_base@1@@Z 00468d00 f i msvcprtd:locale0_implib.obj
 0002:00043d30       ??1_Fac_node@std@@QAE@XZ   00468d30 f i msvcprtd:locale0_implib.obj
 0002:00043df0       ??1_Fac_tidy_reg_t@std@@QAE@XZ 00468df0 f i msvcprtd:locale0_implib.obj
 0002:00043e60       ??2_Fac_node@std@@SAPAXI@Z 00468e60 f i msvcprtd:locale0_implib.obj
 0002:00043ec0       ??3_Fac_node@std@@SAXPAX@Z 00468ec0 f i msvcprtd:locale0_implib.obj
 0002:00043ee0       ??_G_Fac_node@std@@QAEPAXI@Z 00468ee0 f i msvcprtd:locale0_implib.obj
 0002:00043f40       ?_Facet_Register@std@@YAXPAV_Facet_base@1@@Z 00468f40 f   msvcprtd:locale0_implib.obj
 0002:00043fe2       ??Bid@locale@std@@QAEIXZ   00468fe2 f   msvcprtd:MSVCP140D.dll
 0002:00043fe8       ?_Getgloballocale@locale@std@@CAPAV_Locimp@12@XZ 00468fe8 f   msvcprtd:MSVCP140D.dll
 0002:00043fee       ?always_noconv@codecvt_base@std@@QBE_NXZ 00468fee f   msvcprtd:MSVCP140D.dll
 0002:00043ff4       ?in@?$codecvt@DDU_Mbstatet@@@std@@QBEHAAU_Mbstatet@@PBD1AAPBDPAD3AAPAD@Z 00468ff4 f   msvcprtd:MSVCP140D.dll
 0002:00043ffa       ?out@?$codecvt@DDU_Mbstatet@@@std@@QBEHAAU_Mbstatet@@PBD1AAPBDPAD3AAPAD@Z 00468ffa f   msvcprtd:MSVCP140D.dll
 0002:00044000       ?unshift@?$codecvt@DDU_Mbstatet@@@std@@QBEHAAU_Mbstatet@@PAD1AAPAD@Z 00469000 f   msvcprtd:MSVCP140D.dll
 0002:00044006       ?_Getcat@?$codecvt@DDU_Mbstatet@@@std@@SAIPAPBVfacet@locale@2@PBV42@@Z 00469006 f   msvcprtd:MSVCP140D.dll
 0002:0004400c       ?good@ios_base@std@@QBE_NXZ 0046900c f   msvcprtd:MSVCP140D.dll
 0002:00044012       ?flags@ios_base@std@@QBEHXZ 00469012 f   msvcprtd:MSVCP140D.dll
 0002:00044018       ?width@ios_base@std@@QBE_JXZ 00469018 f   msvcprtd:MSVCP140D.dll
 0002:0004401e       ?width@ios_base@std@@QAE_J_J@Z 0046901e f   msvcprtd:MSVCP140D.dll
 0002:00044024       ??0?$basic_streambuf@DU?$char_traits@D@std@@@std@@IAE@XZ 00469024 f   msvcprtd:MSVCP140D.dll
 0002:0004402a       ??1?$basic_streambuf@DU?$char_traits@D@std@@@std@@UAE@XZ 0046902a f   msvcprtd:MSVCP140D.dll
 0002:00044030       ?getloc@?$basic_streambuf@DU?$char_traits@D@std@@@std@@QBE?AVlocale@2@XZ 00469030 f   msvcprtd:MSVCP140D.dll
 0002:00044036       ?sputc@?$basic_streambuf@DU?$char_traits@D@std@@@std@@QAEHD@Z 00469036 f   msvcprtd:MSVCP140D.dll
 0002:0004403c       ?sputn@?$basic_streambuf@DU?$char_traits@D@std@@@std@@QAE_JPBD_J@Z 0046903c f   msvcprtd:MSVCP140D.dll
 0002:00044042       ?eback@?$basic_streambuf@DU?$char_traits@D@std@@@std@@IBEPADXZ 00469042 f   msvcprtd:MSVCP140D.dll
 0002:00044048       ?gptr@?$basic_streambuf@DU?$char_traits@D@std@@@std@@IBEPADXZ 00469048 f   msvcprtd:MSVCP140D.dll
 0002:0004404e       ?pptr@?$basic_streambuf@DU?$char_traits@D@std@@@std@@IBEPADXZ 0046904e f   msvcprtd:MSVCP140D.dll
 0002:00044054       ?egptr@?$basic_streambuf@DU?$char_traits@D@std@@@std@@IBEPADXZ 00469054 f   msvcprtd:MSVCP140D.dll
 0002:0004405a       ?setg@?$basic_streambuf@DU?$char_traits@D@std@@@std@@IAEXPAD00@Z 0046905a f   msvcprtd:MSVCP140D.dll
 0002:00044060       ?epptr@?$basic_streambuf@DU?$char_traits@D@std@@@std@@IBEPADXZ 00469060 f   msvcprtd:MSVCP140D.dll
 0002:00044066       ?_Gndec@?$basic_streambuf@DU?$char_traits@D@std@@@std@@IAEPADXZ 00469066 f   msvcprtd:MSVCP140D.dll
 0002:0004406c       ?_Gninc@?$basic_streambuf@DU?$char_traits@D@std@@@std@@IAEPADXZ 0046906c f   msvcprtd:MSVCP140D.dll
 0002:00044072       ?_Pninc@?$basic_streambuf@DU?$char_traits@D@std@@@std@@IAEPADXZ 00469072 f   msvcprtd:MSVCP140D.dll
 0002:00044078       ?_Init@?$basic_streambuf@DU?$char_traits@D@std@@@std@@IAEXXZ 00469078 f   msvcprtd:MSVCP140D.dll
 0002:0004407e       ?_Init@?$basic_streambuf@DU?$char_traits@D@std@@@std@@IAEXPAPAD0PAH001@Z 0046907e f   msvcprtd:MSVCP140D.dll
 0002:00044084       ??1?$basic_ios@DU?$char_traits@D@std@@@std@@UAE@XZ 00469084 f   msvcprtd:MSVCP140D.dll
 0002:0004408a       ?setstate@?$basic_ios@DU?$char_traits@D@std@@@std@@QAEXH_N@Z 0046908a f   msvcprtd:MSVCP140D.dll
 0002:00044090       ?tie@?$basic_ios@DU?$char_traits@D@std@@@std@@QBEPAV?$basic_ostream@DU?$char_traits@D@std@@@2@XZ 00469090 f   msvcprtd:MSVCP140D.dll
 0002:00044096       ?rdbuf@?$basic_ios@DU?$char_traits@D@std@@@std@@QBEPAV?$basic_streambuf@DU?$char_traits@D@std@@@2@XZ 00469096 f   msvcprtd:MSVCP140D.dll
 0002:0004409c       ?fill@?$basic_ios@DU?$char_traits@D@std@@@std@@QBEDXZ 0046909c f   msvcprtd:MSVCP140D.dll
 0002:000440a2       ??0?$basic_ios@DU?$char_traits@D@std@@@std@@IAE@XZ 004690a2 f   msvcprtd:MSVCP140D.dll
 0002:000440a8       ??0?$basic_ostream@DU?$char_traits@D@std@@@std@@QAE@PAV?$basic_streambuf@DU?$char_traits@D@std@@@1@_N@Z 004690a8 f   msvcprtd:MSVCP140D.dll
 0002:000440ae       ??1?$basic_ostream@DU?$char_traits@D@std@@@std@@UAE@XZ 004690ae f   msvcprtd:MSVCP140D.dll
 0002:000440b4       ?_Osfx@?$basic_ostream@DU?$char_traits@D@std@@@std@@QAEXXZ 004690b4 f   msvcprtd:MSVCP140D.dll
 0002:000440ba       ?flush@?$basic_ostream@DU?$char_traits@D@std@@@std@@QAEAAV12@XZ 004690ba f   msvcprtd:MSVCP140D.dll
 0002:000440c0       ??0?$basic_istream@DU?$char_traits@D@std@@@std@@QAE@PAV?$basic_streambuf@DU?$char_traits@D@std@@@1@_N@Z 004690c0 f   msvcprtd:MSVCP140D.dll
 0002:000440c6       ??1?$basic_istream@DU?$char_traits@D@std@@@std@@UAE@XZ 004690c6 f   msvcprtd:MSVCP140D.dll
 0002:000440cc       ?_Fiopen@std@@YAPAU_iobuf@@PBDHH@Z 004690cc f   msvcprtd:MSVCP140D.dll
 0002:000440d2       ?showmanyc@?$basic_streambuf@DU?$char_traits@D@std@@@std@@MAE_JXZ 004690d2 f   msvcprtd:MSVCP140D.dll
 0002:000440d8       ?xsgetn@?$basic_streambuf@DU?$char_traits@D@std@@@std@@MAE_JPAD_J@Z 004690d8 f   msvcprtd:MSVCP140D.dll
 0002:000440de       ?xsputn@?$basic_streambuf@DU?$char_traits@D@std@@@std@@MAE_JPBD_J@Z 004690de f   msvcprtd:MSVCP140D.dll
 0002:000440e4       ??6?$basic_ostream@DU?$char_traits@D@std@@@std@@QAEAAV01@H@Z 004690e4 f   msvcprtd:MSVCP140D.dll
 0002:000440ea       ??5?$basic_istream@DU?$char_traits@D@std@@@std@@QAEAAV01@AAH@Z 004690ea f   msvcprtd:MSVCP140D.dll
 0002:000440f0       ?widen@?$basic_ios@DU?$char_traits@D@std@@@std@@QBEDD@Z 004690f0 f   msvcprtd:MSVCP140D.dll
 0002:000440f6       ??6?$basic_ostream@DU?$char_traits@D@std@@@std@@QAEAAV01@P6AAAV01@AAV01@@Z@Z 004690f6 f   msvcprtd:MSVCP140D.dll
 0002:000440fc       ??6?$basic_ostream@DU?$char_traits@D@std@@@std@@QAEAAV01@I@Z 004690fc f   msvcprtd:MSVCP140D.dll
 0002:00044102       ??6?$basic_ostream@DU?$char_traits@D@std@@@std@@QAEAAV01@PBX@Z 00469102 f   msvcprtd:MSVCP140D.dll
 0002:00044108       ?put@?$basic_ostream@DU?$char_traits@D@std@@@std@@QAEAAV12@D@Z 00469108 f   msvcprtd:MSVCP140D.dll
 0002:00044110       ??2@YAPAXI@Z               00469110 f   MSVCRTD:new_scalar.obj
 0002:00044170       ??3@YAXPAX@Z               00469170 f   MSVCRTD:delete_scalar.obj
 0002:00044190       @_RTC_AllocaHelper@12      00469190 f   MSVCRTD:_stack_.obj
 0002:000441d0       @_RTC_CheckStackVars2@12   004691d0 f   MSVCRTD:_stack_.obj
 0002:000442e0       @_RTC_CheckStackVars@8     004692e0 f   MSVCRTD:_stack_.obj
 0002:00044350       __RTC_CheckEsp             00469350 f   MSVCRTD:_stack_.obj
 0002:00044390       @__security_check_cookie@4 00469390 f   MSVCRTD:_secchk_.obj
 0002:000443b0       __CRT_RTC_INIT             004693b0 f   MSVCRTD:_init_.obj
 0002:000443c0       __CRT_RTC_INITW            004693c0 f   MSVCRTD:_init_.obj
 0002:000443d0       __RTC_InitBase             004693d0 f   MSVCRTD:_init_.obj
 0002:00044410       __RTC_Shutdown             00469410 f   MSVCRTD:_init_.obj
 0002:00044430       ??1type_info@@UAE@XZ       00469430 f   MSVCRTD:std_type_info_static.obj
 0002:00044450       ??_Gtype_info@@UAEPAXI@Z   00469450 f i MSVCRTD:std_type_info_static.obj
 0002:00044450       ??_Etype_info@@UAEPAXI@Z   00469450 f i MSVCRTD:std_type_info_static.obj
 0002:00044490       ??3@YAXPAXI@Z              00469490 f   MSVCRTD:delete_scalar_size.obj
 0002:000444b0       ??$__crt_fast_decode_pointer@PAP6AXXZ@@YAPAP6AXXZQAP6AXXZ@Z 004694b0 f i MSVCRTD:utility.obj
 0002:000444e0       ??$__crt_fast_encode_pointer@PAP6AXXZ@@YAPAP6AXXZQAP6AXXZ@Z 004694e0 f i MSVCRTD:utility.obj
 0002:00044520       ?__crt_rotate_pointer_value@@YAIIH@Z 00469520 f i MSVCRTD:utility.obj
 0002:00044530       ?configure_argv@__scrt_narrow_argv_policy@@SAHXZ 00469530 f i MSVCRTD:utility.obj
 0002:00044690       _NtCurrentTeb              00469690 f i MSVCRTD:utility.obj
 0002:000446a0       ___scrt_acquire_startup_lock 004696a0 f   MSVCRTD:utility.obj
 0002:00044700       ___scrt_dllmain_after_initialize_c 00469700 f   MSVCRTD:utility.obj
 0002:00044740       ___scrt_dllmain_before_initialize_c 00469740 f   MSVCRTD:utility.obj
 0002:00044770       ___scrt_dllmain_crt_thread_attach 00469770 f   MSVCRTD:utility.obj
 0002:000447b0       ___scrt_dllmain_crt_thread_detach 004697b0 f   MSVCRTD:utility.obj
 0002:000447d0       ___scrt_dllmain_exception_filter 004697d0 f   MSVCRTD:utility.obj
 0002:00044830       ___scrt_dllmain_uninitialize_c 00469830 f   MSVCRTD:utility.obj
 0002:00044870       ___scrt_dllmain_uninitialize_critical 00469870 f   MSVCRTD:utility.obj
 0002:00044890       ___scrt_initialize_crt     00469890 f   MSVCRTD:utility.obj
 0002:000448f0       ___scrt_initialize_onexit_tables 004698f0 f   MSVCRTD:utility.obj
 0002:000449f0       ___scrt_is_nonwritable_in_current_image 004699f0 f   MSVCRTD:utility.obj
 0002:00044b70       ___scrt_release_startup_lock 00469b70 f   MSVCRTD:utility.obj
 0002:00044ba0       ___scrt_uninitialize_crt   00469ba0 f   MSVCRTD:utility.obj
 0002:00044bf0       __onexit                   00469bf0 f   MSVCRTD:utility.obj
 0002:00044c80       _at_quick_exit             00469c80 f   MSVCRTD:utility.obj
 0002:00044ce0       _atexit                    00469ce0 f   MSVCRTD:utility.obj
 0002:000450f0       ?get_app_type@__scrt_main_policy@@SA?AW4_crt_app_type@@XZ 0046a0f0 f i MSVCRTD:exe_main.obj
 0002:00045140       _mainCRTStartup            0046a140 f   MSVCRTD:exe_main.obj
 0002:00045150       ??_U@YAPAXI@Z              0046a150 f   MSVCRTD:new_array.obj
 0002:00045170       ??_V@YAXPAX@Z              0046a170 f   MSVCRTD:delete_array.obj
 0002:00045190       __ftoui3                   0046a190 f   MSVCRTD:_ftol3_.obj
 0002:0004519f       __ftoul3                   0046a19f f   MSVCRTD:_ftol3_.obj
 0002:000451ae       __ftol3                    0046a1ae f   MSVCRTD:_ftol3_.obj
 0002:000451bb       __ftol3_NaN                0046a1bb f   MSVCRTD:_ftol3_.obj
 0002:000451d3       __ftol3_work               0046a1d3 f   MSVCRTD:_ftol3_.obj
 0002:00045259       __ftol3_common             0046a259 f   MSVCRTD:_ftol3_.obj
 0002:0004531b       __ftol3_arg_error          0046a31b f   MSVCRTD:_ftol3_.obj
 0002:0004532d       __ftol3_except             0046a32d f   MSVCRTD:_ftol3_.obj
 0002:00045371       __dtoui3                   0046a371 f   MSVCRTD:_ftol3_.obj
 0002:00045380       __dtoul3                   0046a380 f   MSVCRTD:_ftol3_.obj
 0002:0004538f       __dtol3                    0046a38f f   MSVCRTD:_ftol3_.obj
 0002:0004539c       __dtol3_NaN                0046a39c f   MSVCRTD:_ftol3_.obj
 0002:000453b9       __dtol3_work               0046a3b9 f   MSVCRTD:_ftol3_.obj
 0002:000454a0       __ultod3                   0046a4a0 f   MSVCRTD:_ftol3_.obj
 0002:000454e0       __ltod3                    0046a4e0 f   MSVCRTD:_ftol3_.obj
 0002:000455f0       @_guard_check_icall@4      0046a5f0 f i MSVCRTD:checkcfg.obj
 0002:00045610       ??0bad_alloc@std@@AAE@QBD@Z 0046a610 f i MSVCRTD:throw_bad_alloc.obj
 0002:00045640       ??0bad_alloc@std@@QAE@ABV01@@Z 0046a640 f i MSVCRTD:throw_bad_alloc.obj
 0002:00045670       ??0bad_alloc@std@@QAE@XZ   0046a670 f i MSVCRTD:throw_bad_alloc.obj
 0002:000456a0       ??0bad_array_new_length@std@@QAE@ABV01@@Z 0046a6a0 f i MSVCRTD:throw_bad_alloc.obj
 0002:000456d0       ??0bad_array_new_length@std@@QAE@XZ 0046a6d0 f i MSVCRTD:throw_bad_alloc.obj
 0002:00045700       ??1bad_alloc@std@@UAE@XZ   0046a700 f i MSVCRTD:throw_bad_alloc.obj
 0002:00045720       ??1bad_array_new_length@std@@UAE@XZ 0046a720 f i MSVCRTD:throw_bad_alloc.obj
 0002:00045740       ??_Ebad_alloc@std@@UAEPAXI@Z 0046a740 f i MSVCRTD:throw_bad_alloc.obj
 0002:00045740       ??_Gbad_alloc@std@@UAEPAXI@Z 0046a740 f i MSVCRTD:throw_bad_alloc.obj
 0002:00045780       ??_Gbad_array_new_length@std@@UAEPAXI@Z 0046a780 f i MSVCRTD:throw_bad_alloc.obj
 0002:00045780       ??_Ebad_array_new_length@std@@UAEPAXI@Z 0046a780 f i MSVCRTD:throw_bad_alloc.obj
 0002:000457c0       ?__scrt_throw_std_bad_alloc@@YAXXZ 0046a7c0 f   MSVCRTD:throw_bad_alloc.obj
 0002:000457f0       ?__scrt_throw_std_bad_array_new_length@@YAXXZ 0046a7f0 f   MSVCRTD:throw_bad_alloc.obj
 0002:000459c0       ?_RTC_AllocaFailure@@YAXPAXPAU_RTC_ALLOCA_NODE@@H@Z 0046a9c0 f   MSVCRTD:_error_.obj
 0002:00045b30       ?_RTC_Failure@@YAXPAXH@Z   0046ab30 f   MSVCRTD:_error_.obj
 0002:00045ba0       ?_RTC_StackFailure@@YAXPAXPBD@Z 0046aba0 f   MSVCRTD:_error_.obj
 0002:00046020       __RTC_UninitUse            0046b020 f   MSVCRTD:_error_.obj
 0002:00046150       __vsprintf_s_l             0046b150 f i MSVCRTD:_error_.obj
 0002:00046190       _sprintf_s                 0046b190 f i MSVCRTD:_error_.obj
 0002:000461c0       ___raise_securityfailure   0046b1c0 f   MSVCRTD:gs_report.obj
 0002:00046200       ___report_gsfailure        0046b200 f   MSVCRTD:gs_report.obj
 0002:00046350       ___report_rangecheckfailure 0046b350 f   MSVCRTD:gs_report.obj
 0002:00046360       ___report_securityfailure  0046b360 f   MSVCRTD:gs_report.obj
 0002:00046470       ___report_securityfailureEx 0046b470 f   MSVCRTD:gs_report.obj
 0002:000465e0       ?_RTC_GetErrorFunc@@YAP6AHHPBDH00ZZPBX@Z 0046b5e0 f   MSVCRTD:_userapi_.obj
 0002:000465f0       ?_RTC_GetErrorFuncW@@YAP6AHHPB_WH00ZZPBX@Z 0046b5f0 f   MSVCRTD:_userapi_.obj
 0002:00046600       __RTC_GetErrDesc           0046b600 f   MSVCRTD:_userapi_.obj
 0002:00046620       __RTC_NumErrors            0046b620 f   MSVCRTD:_userapi_.obj
 0002:00046630       __RTC_SetErrorFunc         0046b630 f   MSVCRTD:_userapi_.obj
 0002:00046660       __RTC_SetErrorFuncW        0046b660 f   MSVCRTD:_userapi_.obj
 0002:00046690       __RTC_SetErrorType         0046b690 f   MSVCRTD:_userapi_.obj
 0002:000466c0       ___isa_available_init      0046b6c0 f   MSVCRTD:_cpu_disp_.obj
 0002:00046a50       __get_startup_argv_mode    0046ba50 f   MSVCRTD:argv_mode.obj
 0002:00046a60       ___scrt_is_ucrt_dll_in_use 0046ba60 f   MSVCRTD:ucrt_detection.obj
 0002:00046a90       ___scrt_fastfail           0046ba90 f   MSVCRTD:utility_desktop.obj
 0002:00046c20       ___scrt_get_show_window_mode 0046bc20 f   MSVCRTD:utility_desktop.obj
 0002:00046c70       ___scrt_initialize_winrt   0046bc70 f   MSVCRTD:utility_desktop.obj
 0002:00046c80       ___scrt_is_managed_app     0046bc80 f   MSVCRTD:utility_desktop.obj
 0002:00046d30       ___scrt_set_unhandled_exception_filter 0046bd30 f   MSVCRTD:utility_desktop.obj
 0002:00046d50       ___scrt_unhandled_exception_filter@4 0046bd50 f   MSVCRTD:utility_desktop.obj
 0002:00046dd0       __crt_debugger_hook        0046bdd0 f   MSVCRTD:utility_desktop.obj
 0002:00046df0       __except_handler4          0046bdf0 f   MSVCRTD:_chandler4gs_.obj
 0002:00046e20       ___security_init_cookie    0046be20 f   MSVCRTD:gs_support.obj
 0002:00046f40       __matherr                  0046bf40 f   MSVCRTD:matherr.obj
 0002:00046f50       __get_startup_commit_mode  0046bf50 f   MSVCRTD:commit_mode.obj
 0002:00046f60       __get_startup_file_mode    0046bf60 f   MSVCRTD:file_mode.obj
 0002:00046f70       __get_startup_new_mode     0046bf70 f   MSVCRTD:new_mode.obj
 0002:00046f80       __get_startup_thread_locale_mode 0046bf80 f   MSVCRTD:thread_locale.obj
 0002:00046f90       ?__scrt_initialize_type_info@@YAXXZ 0046bf90 f   MSVCRTD:tncleanup.obj
 0002:00046fb0       ?__scrt_uninitialize_type_info@@YAXXZ 0046bfb0 f   MSVCRTD:tncleanup.obj
 0002:00046fd0       __should_initialize_environment 0046bfd0 f   MSVCRTD:env_mode.obj
 0002:00046fe0       __initialize_default_precision 0046bfe0 f   MSVCRTD:default_precision.obj
 0002:00047010       __initialize_invalid_parameter_handler 0046c010 f   MSVCRTD:invalid_parameter_handler.obj
 0002:00047020       __initialize_denormal_control 0046c020 f   MSVCRTD:denormal_control.obj
 0002:00047030       ___local_stdio_scanf_options 0046c030 f i MSVCRTD:default_local_stdio_options.obj
 0002:00047040       ___scrt_initialize_default_local_stdio_options 0046c040 f   MSVCRTD:default_local_stdio_options.obj
 0002:00047090       ___scrt_is_user_matherr_present 0046c090 f   MSVCRTD:matherr_detection.obj
 0002:000470c0       ___scrt_get_dyn_tls_init_callback 0046c0c0 f   MSVCRTD:dyn_tls_init.obj
 0002:000470d0       ___scrt_get_dyn_tls_dtor_callback 0046c0d0 f   MSVCRTD:dyn_tls_dtor.obj
 0002:000470e0       __RTC_Initialize           0046c0e0 f   MSVCRTD:_initsect_.obj
 0002:00047120       __RTC_Terminate            0046c120 f   MSVCRTD:_initsect_.obj
 0002:00047160       @_guard_check_icall_nop@4  0046c160 f i MSVCRTD:guard_support.obj
 0002:00047170       __guard_icall_checks_enforced 0046c170 f i MSVCRTD:guard_support.obj
 0002:00047760       ?_RTC_GetSrcLine@@YAHPAEPA_WKPAH1K@Z 0046c760 f   MSVCRTD:_pdblkup_.obj
 0002:00047b86       _memcpy                    0046cb86 f   vcruntimed:VCRUNTIME140D.dll
 0002:00047b8c       _memmove                   0046cb8c f   vcruntimed:VCRUNTIME140D.dll
 0002:00047b92       __CxxThrowException@8      0046cb92 f   vcruntimed:VCRUNTIME140D.dll
 0002:00047b98       ___CxxFrameHandler3        0046cb98 f   vcruntimed:VCRUNTIME140D.dll
 0002:00047b9e       _memset                    0046cb9e f   vcruntimed:VCRUNTIME140D.dll
 0002:00047ba4       ___std_exception_copy      0046cba4 f   vcruntimed:VCRUNTIME140D.dll
 0002:00047baa       ___std_exception_destroy   0046cbaa f   vcruntimed:VCRUNTIME140D.dll
 0002:00047bb0       ___RTDynamicCast           0046cbb0 f   vcruntimed:VCRUNTIME140D.dll
 0002:00047bb6       _memcmp                    0046cbb6 f   vcruntimed:VCRUNTIME140D.dll
 0002:00047bbc       __except_handler4_common   0046cbbc f   vcruntimed:VCRUNTIME140D.dll
 0002:00047bc2       ___std_type_info_destroy_list 0046cbc2 f   vcruntimed:VCRUNTIME140D.dll
 0002:00047bc8       ___vcrt_GetModuleFileNameW 0046cbc8 f   vcruntimed:VCRUNTIME140D.dll
 0002:00047bce       ___vcrt_GetModuleHandleW   0046cbce f   vcruntimed:VCRUNTIME140D.dll
 0002:00047bd4       ___vcrt_LoadLibraryExW     0046cbd4 f   vcruntimed:VCRUNTIME140D.dll
 0002:00047bda       __invalid_parameter        0046cbda f   ucrtd:ucrtbased.dll
 0002:00047be0       _atan                      0046cbe0 f   ucrtd:ucrtbased.dll
 0002:00047be6       _strlen                    0046cbe6 f   ucrtd:ucrtbased.dll
 0002:00047bec       __CrtDbgReportW            0046cbec f   ucrtd:ucrtbased.dll
 0002:00047bf2       __invalid_parameter_noinfo 0046cbf2 f   ucrtd:ucrtbased.dll
 0002:00047bf8       __errno                    0046cbf8 f   ucrtd:ucrtbased.dll
 0002:00047bfe       _system                    0046cbfe f   ucrtd:ucrtbased.dll
 0002:00047c04       __get_stream_buffer_pointers 0046cc04 f   ucrtd:ucrtbased.dll
 0002:00047c0a       _fclose                    0046cc0a f   ucrtd:ucrtbased.dll
 0002:00047c10       _fflush                    0046cc10 f   ucrtd:ucrtbased.dll
 0002:00047c16       _fgetc                     0046cc16 f   ucrtd:ucrtbased.dll
 0002:00047c1c       _fgetpos                   0046cc1c f   ucrtd:ucrtbased.dll
 0002:00047c22       _fputc                     0046cc22 f   ucrtd:ucrtbased.dll
 0002:00047c28       _fsetpos                   0046cc28 f   ucrtd:ucrtbased.dll
 0002:00047c2e       __fseeki64                 0046cc2e f   ucrtd:ucrtbased.dll
 0002:00047c34       _fwrite                    0046cc34 f   ucrtd:ucrtbased.dll
 0002:00047c3a       _setvbuf                   0046cc3a f   ucrtd:ucrtbased.dll
 0002:00047c40       _ungetc                    0046cc40 f   ucrtd:ucrtbased.dll
 0002:00047c46       __lock_file                0046cc46 f   ucrtd:ucrtbased.dll
 0002:00047c4c       __unlock_file              0046cc4c f   ucrtd:ucrtbased.dll
 0002:00047c52       _srand                     0046cc52 f   ucrtd:ucrtbased.dll
 0002:00047c58       _rand                      0046cc58 f   ucrtd:ucrtbased.dll
 0002:00047c5e       __time64                   0046cc5e f   ucrtd:ucrtbased.dll
 0002:00047c64       __wassert                  0046cc64 f   ucrtd:ucrtbased.dll
 0002:00047c6a       ___acrt_iob_func           0046cc6a f   ucrtd:ucrtbased.dll
 0002:00047c70       ___stdio_common_vfprintf   0046cc70 f   ucrtd:ucrtbased.dll
 0002:00047c76       _free                      0046cc76 f   ucrtd:ucrtbased.dll
 0002:00047c7c       _malloc                    0046cc7c f   ucrtd:ucrtbased.dll
 0002:00047c82       _sqrt                      0046cc82 f   ucrtd:ucrtbased.dll
 0002:00047c88       __free_dbg                 0046cc88 f   ucrtd:ucrtbased.dll
 0002:00047c8e       __malloc_dbg               0046cc8e f   ucrtd:ucrtbased.dll
 0002:00047c94       __callnewh                 0046cc94 f   ucrtd:ucrtbased.dll
 0002:00047c9a       __CrtDbgReport             0046cc9a f   ucrtd:ucrtbased.dll
 0002:00047ca0       __seh_filter_dll           0046cca0 f   ucrtd:ucrtbased.dll
 0002:00047ca6       __configure_narrow_argv    0046cca6 f   ucrtd:ucrtbased.dll
 0002:00047cac       __initialize_narrow_environment 0046ccac f   ucrtd:ucrtbased.dll
 0002:00047cb2       __initialize_onexit_table  0046ccb2 f   ucrtd:ucrtbased.dll
 0002:00047cb8       __register_onexit_function 0046ccb8 f   ucrtd:ucrtbased.dll
 0002:00047cbe       __execute_onexit_table     0046ccbe f   ucrtd:ucrtbased.dll
 0002:00047cc4       __crt_atexit               0046ccc4 f   ucrtd:ucrtbased.dll
 0002:00047cca       __crt_at_quick_exit        0046ccca f   ucrtd:ucrtbased.dll
 0002:00047cd0       __cexit                    0046ccd0 f   ucrtd:ucrtbased.dll
 0002:00047cd6       __seh_filter_exe           0046ccd6 f   ucrtd:ucrtbased.dll
 0002:00047cdc       __set_app_type             0046ccdc f   ucrtd:ucrtbased.dll
 0002:00047ce2       ___setusermatherr          0046cce2 f   ucrtd:ucrtbased.dll
 0002:00047ce8       __get_initial_narrow_environment 0046cce8 f   ucrtd:ucrtbased.dll
 0002:00047cee       __initterm                 0046ccee f   ucrtd:ucrtbased.dll
 0002:00047cf4       __initterm_e               0046ccf4 f   ucrtd:ucrtbased.dll
 0002:00047cfa       _exit                      0046ccfa f   ucrtd:ucrtbased.dll
 0002:00047d00       __exit                     0046cd00 f   ucrtd:ucrtbased.dll
 0002:00047d06       __set_fmode                0046cd06 f   ucrtd:ucrtbased.dll
 0002:00047d0c       ___p___argc                0046cd0c f   ucrtd:ucrtbased.dll
 0002:00047d12       ___p___argv                0046cd12 f   ucrtd:ucrtbased.dll
 0002:00047d18       __c_exit                   0046cd18 f   ucrtd:ucrtbased.dll
 0002:00047d1e       __register_thread_local_exe_atexit_callback 0046cd1e f   ucrtd:ucrtbased.dll
 0002:00047d24       __configthreadlocale       0046cd24 f   ucrtd:ucrtbased.dll
 0002:00047d2a       __set_new_mode             0046cd2a f   ucrtd:ucrtbased.dll
 0002:00047d30       ___p__commode              0046cd30 f   ucrtd:ucrtbased.dll
 0002:00047d36       __except1                  0046cd36 f   ucrtd:ucrtbased.dll
 0002:00047d3c       ___stdio_common_vsprintf_s 0046cd3c f   ucrtd:ucrtbased.dll
 0002:00047d42       _terminate                 0046cd42 f   ucrtd:ucrtbased.dll
 0002:00047d48       __controlfp_s              0046cd48 f   ucrtd:ucrtbased.dll
 0002:00047d4e       __wmakepath_s              0046cd4e f   ucrtd:ucrtbased.dll
 0002:00047d54       __wsplitpath_s             0046cd54 f   ucrtd:ucrtbased.dll
 0002:00047d5a       _wcscpy_s                  0046cd5a f   ucrtd:ucrtbased.dll
 0002:00047d60       _IsDebuggerPresent@0       0046cd60 f   kernel32:KERNEL32.dll
 0002:00047d66       _RaiseException@16         0046cd66 f   kernel32:KERNEL32.dll
 0002:00047d6c       _MultiByteToWideChar@24    0046cd6c f   kernel32:KERNEL32.dll
 0002:00047d72       _WideCharToMultiByte@32    0046cd72 f   kernel32:KERNEL32.dll
 0002:00047d78       _UnhandledExceptionFilter@4 0046cd78 f   kernel32:KERNEL32.dll
 0002:00047d7e       _SetUnhandledExceptionFilter@4 0046cd7e f   kernel32:KERNEL32.dll
 0002:00047d84       _GetCurrentProcess@0       0046cd84 f   kernel32:KERNEL32.dll
 0002:00047d8a       _TerminateProcess@8        0046cd8a f   kernel32:KERNEL32.dll
 0002:00047d90       _IsProcessorFeaturePresent@4 0046cd90 f   kernel32:KERNEL32.dll
 0002:00047d96       _GetStartupInfoW@4         0046cd96 f   kernel32:KERNEL32.dll
 0002:00047d9c       _GetModuleHandleW@4        0046cd9c f   kernel32:KERNEL32.dll
 0002:00047da2       _GetCurrentProcessId@0     0046cda2 f   kernel32:KERNEL32.dll
 0002:00047da8       _GetCurrentThreadId@0      0046cda8 f   kernel32:KERNEL32.dll
 0002:00047dae       _GetSystemTimeAsFileTime@4 0046cdae f   kernel32:KERNEL32.dll
 0002:00047db4       _InitializeSListHead@4     0046cdb4 f   kernel32:KERNEL32.dll
 0002:00047dba       _GetLastError@0            0046cdba f   kernel32:KERNEL32.dll
 0002:00047dc0       _HeapAlloc@12              0046cdc0 f   kernel32:KERNEL32.dll
 0002:00047dc6       _HeapFree@12               0046cdc6 f   kernel32:KERNEL32.dll
 0002:00047dcc       _GetProcessHeap@0          0046cdcc f   kernel32:KERNEL32.dll
 0002:00047dd2       _VirtualQuery@12           0046cdd2 f   kernel32:KERNEL32.dll
 0002:00047dd8       _FreeLibrary@4             0046cdd8 f   kernel32:KERNEL32.dll
 0002:00047dde       _GetProcAddress@8          0046cdde f   kernel32:KERNEL32.dll
 0002:00047df0       ___vcrt_initialize         0046cdf0 f   MSVCRTD:ucrt_stubs.obj
 0002:00047df0       ___acrt_initialize         0046cdf0 f   MSVCRTD:ucrt_stubs.obj
 0002:00047df0       ___scrt_stub_for_acrt_initialize 0046cdf0 f   MSVCRTD:ucrt_stubs.obj
 0002:00047e00       ___scrt_stub_for_acrt_thread_attach 0046ce00 f   MSVCRTD:ucrt_stubs.obj
 0002:00047e00       ___acrt_thread_attach      0046ce00 f   MSVCRTD:ucrt_stubs.obj
 0002:00047e00       ___vcrt_thread_attach      0046ce00 f   MSVCRTD:ucrt_stubs.obj
 0002:00047e10       ___acrt_thread_detach      0046ce10 f   MSVCRTD:ucrt_stubs.obj
 0002:00047e10       ___scrt_stub_for_acrt_thread_detach 0046ce10 f   MSVCRTD:ucrt_stubs.obj
 0002:00047e10       ___vcrt_thread_detach      0046ce10 f   MSVCRTD:ucrt_stubs.obj
 0002:00047e20       ___acrt_uninitialize       0046ce20 f   MSVCRTD:ucrt_stubs.obj
 0002:00047e20       ___scrt_stub_for_acrt_uninitialize 0046ce20 f   MSVCRTD:ucrt_stubs.obj
 0002:00047e20       ___vcrt_uninitialize       0046ce20 f   MSVCRTD:ucrt_stubs.obj
 0002:00047e30       ___acrt_uninitialize_critical 0046ce30 f   MSVCRTD:ucrt_stubs.obj
 0002:00047e30       ___scrt_stub_for_acrt_uninitialize_critical 0046ce30 f   MSVCRTD:ucrt_stubs.obj
 0002:00047e30       ___vcrt_uninitialize_critical 0046ce30 f   MSVCRTD:ucrt_stubs.obj
 0002:00047e40       ___scrt_stub_for_is_c_termination_complete 0046ce40 f   MSVCRTD:ucrt_stubs.obj
 0002:00047e40       __is_c_termination_complete 0046ce40 f   MSVCRTD:ucrt_stubs.obj
 0003:00000000       ___xc_a                    00475000     MSVCRTD:initializers.obj
 0003:0000043c       ___xc_z                    0047543c     MSVCRTD:initializers.obj
 0003:00000540       ___xi_a                    00475540     MSVCRTD:initializers.obj
 0003:0000084c       ___xi_z                    0047584c     MSVCRTD:initializers.obj
 0003:00000950       ___xp_a                    00475950     MSVCRTD:initializers.obj
 0003:00000a54       ___xp_z                    00475a54     MSVCRTD:initializers.obj
 0003:00000b58       ___xt_a                    00475b58     MSVCRTD:initializers.obj
 0003:00000c5c       ___xt_z                    00475c5c     MSVCRTD:initializers.obj
 0003:00000d6c       ??_C@_0BE@LMNLACIC@_Ptr_container?5?$CB?$DN?50?$AA@ 00475d6c     Editor.obj
 0003:00000d84       ??_C@_1DG@HGDKEBPG@?$AA?$CC?$AA_?$AAP?$AAt?$AAr?$AA_?$AAc?$AAo?$AAn?$AAt?$AAa?$AAi?$AAn?$AAe?$AAr?$AA?5?$AA?$CB?$AA?$DN?$AA?5?$AA0?$AA?$CC?$AA?5?$AA?$CG?$AA?$CG?$AA?5?$AA0?$AA?$AA@ 00475d84     Editor.obj
 0003:00000dc4       ??_C@_17CNPHIMPH@?$AA?$CF?$AAl?$AAs?$AA?$AA@ 00475dc4     Editor.obj
 0003:00000dd0       ??_C@_1JA@DKOIEICI@?$AAc?$AA?3?$AA?2?$AAp?$AAr?$AAo?$AAg?$AAr?$AAa?$AAm?$AA?5?$AAf?$AAi?$AAl?$AAe?$AAs?$AA?5?$AA?$CI?$AAx?$AA8?$AA6?$AA?$CJ?$AA?2?$AAm?$AAi?$AAc?$AAr?$AAo?$AAs?$AAo?$AAf?$AAt@ 00475dd0     Editor.obj
 0003:00000e7c       ??_C@_1BO@NKFMJPA@?$AAs?$AAt?$AAd?$AA?3?$AA?3?$AA_?$AAA?$AAl?$AAl?$AAo?$AAc?$AAa?$AAt?$AAe?$AA?$AA@ 00475e7c     Editor.obj
 0003:00000ea0       ??_C@_1CG@JNLFBNGN@?$AA?$CC?$AAi?$AAn?$AAv?$AAa?$AAl?$AAi?$AAd?$AA?5?$AAa?$AAr?$AAg?$AAu?$AAm?$AAe?$AAn?$AAt?$AA?$CC?$AA?$AA@ 00475ea0     Editor.obj
 0003:00000ed0       ??_C@_09GLJCAGLP@_Ptr?5?$CB?$DN?50?$AA@ 00475ed0     Editor.obj
 0003:00000edc       ??_C@_1CC@GKJLLHIM@?$AA?$CC?$AA_?$AAP?$AAt?$AAr?$AA?5?$AA?$CB?$AA?$DN?$AA?5?$AA0?$AA?$CC?$AA?5?$AA?$CG?$AA?$CG?$AA?5?$AA0?$AA?$AA@ 00475edc     Editor.obj
 0003:00000f04       ??_C@_0BN@HMCJOMKN@_Count?5?$DM?$DN?5?$CIsize_t?$CJ?$CI?91?$CJ?5?1?5_Sz?$AA@ 00475f04     Editor.obj
 0003:00000f28       ??_C@_1EI@MLOBABC@?$AA?$CC?$AA_?$AAC?$AAo?$AAu?$AAn?$AAt?$AA?5?$AA?$DM?$AA?$DN?$AA?5?$AA?$CI?$AAs?$AAi?$AAz?$AAe?$AA_?$AAt?$AA?$CJ?$AA?$CI?$AA?9?$AA1?$AA?$CJ?$AA?5?$AA?1?$AA?5?$AA_?$AAS?$AAz?$AA?$CC?$AA?5?$AA?$CG@ 00475f28     Editor.obj
 0003:00000f80       ??_C@_1CC@LOFJFFDB@?$AAs?$AAt?$AAd?$AA?3?$AA?3?$AA_?$AAD?$AAe?$AAa?$AAl?$AAl?$AAo?$AAc?$AAa?$AAt?$AAe?$AA?$AA@ 00475f80     Editor.obj
 0003:00000fa8       ??_C@_0DD@GBGGGKGG@?$CI_Ptr_user?5?$CG?5?$CI_BIG_ALLOCATION_AL@ 00475fa8     Editor.obj
 0003:00000fe8       ??_C@_1HE@CDMBFOKC@?$AA?$CC?$AA?$CI?$AA_?$AAP?$AAt?$AAr?$AA_?$AAu?$AAs?$AAe?$AAr?$AA?5?$AA?$CG?$AA?5?$AA?$CI?$AA_?$AAB?$AAI?$AAG?$AA_?$AAA?$AAL?$AAL?$AAO?$AAC?$AAA?$AAT?$AAI?$AAO?$AAN?$AA_?$AAA@ 00475fe8     Editor.obj
 0003:00001078       ??_C@_0EI@NOJHEJCJ@reinterpret_cast?$DMuintptr_t?5?$CK?$DO?$CI_P@ 00476078     Editor.obj
 0003:000010d0       ??_C@_1JO@EKLKIEHP@?$AA?$CC?$AAr?$AAe?$AAi?$AAn?$AAt?$AAe?$AAr?$AAp?$AAr?$AAe?$AAt?$AA_?$AAc?$AAa?$AAs?$AAt?$AA?$DM?$AAu?$AAi?$AAn?$AAt?$AAp?$AAt?$AAr?$AA_?$AAt?$AA?5?$AA?$CK?$AA?$DO?$AA?$CI?$AA_@ 004760d0     Editor.obj
 0003:00001190       ??_C@_0BL@OCKMEJON@_Ptr_container?5?$DM?5_Ptr_user?$AA@ 00476190     Editor.obj
 0003:000011b0       ??_C@_1EE@PDHAHDDC@?$AA?$CC?$AA_?$AAP?$AAt?$AAr?$AA_?$AAc?$AAo?$AAn?$AAt?$AAa?$AAi?$AAn?$AAe?$AAr?$AA?5?$AA?$DM?$AA?5?$AA_?$AAP?$AAt?$AAr?$AA_?$AAu?$AAs?$AAe?$AAr?$AA?$CC?$AA?5?$AA?$CG?$AA?$CG?$AA?5@ 004761b0     Editor.obj
 0003:00001204       ??_C@_0DB@GLFJLNCE@2?5?$CK?5sizeof?$CIvoid?5?$CK?$CJ?5?$DM?$DN?5_Ptr_user?5@ 00476204     Editor.obj
 0003:00001240       ??_C@_1HA@NAPGMHAO@?$AA?$CC?$AA2?$AA?5?$AA?$CK?$AA?5?$AAs?$AAi?$AAz?$AAe?$AAo?$AAf?$AA?$CI?$AAv?$AAo?$AAi?$AAd?$AA?5?$AA?$CK?$AA?$CJ?$AA?5?$AA?$DM?$AA?$DN?$AA?5?$AA_?$AAP?$AAt?$AAr?$AA_?$AAu?$AAs?$AAe?$AAr@ 00476240     Editor.obj
 0003:000012c8       ??_C@_0CN@BLHJCAL@_Ptr_user?5?9?5_Ptr_container?5?$DM?$DN?5_N@ 004762c8     Editor.obj
 0003:00001300       ??_C@_1GI@DHJGPFNI@?$AA?$CC?$AA_?$AAP?$AAt?$AAr?$AA_?$AAu?$AAs?$AAe?$AAr?$AA?5?$AA?9?$AA?5?$AA_?$AAP?$AAt?$AAr?$AA_?$AAc?$AAo?$AAn?$AAt?$AAa?$AAi?$AAn?$AAe?$AAr?$AA?5?$AA?$DM?$AA?$DN?$AA?5?$AA_@ 00476300     Editor.obj
 0003:00001380       ??_7Editor@@6B@            00476380     Editor.obj
 0003:000013a0       ??_C@_0O@LJOHIBP@wallpaper?4bmp?$AA@ 004763a0     Editor.obj
 0003:000013b0       ??_C@_1IO@EADHKMNI@?$AAc?$AA?3?$AA?2?$AAp?$AAr?$AAo?$AAg?$AAr?$AAa?$AAm?$AA?5?$AAf?$AAi?$AAl?$AAe?$AAs?$AA?5?$AA?$CI?$AAx?$AA8?$AA6?$AA?$CJ?$AA?2?$AAm?$AAi?$AAc?$AAr?$AAo?$AAs?$AAo?$AAf?$AAt@ 004763b0     Editor.obj
 0003:0000145c       ??_C@_0BA@JFNIOLAK@string?5too?5long?$AA@ 0047645c     Editor.obj
 0003:00001470       ??_C@_0BI@CFPLBAOH@invalid?5string?5position?$AA@ 00476470     Editor.obj
 0003:0000148c       ??_C@_1CK@EOPGIILJ@?$AAi?$AAn?$AAv?$AAa?$AAl?$AAi?$AAd?$AA?5?$AAn?$AAu?$AAl?$AAl?$AA?5?$AAp?$AAo?$AAi?$AAn?$AAt?$AAe?$AAr?$AA?$AA@ 0047648c     Editor.obj
 0003:000014c0       __real@3ff0000000000000    004764c0     Editor.obj
 0003:000014d0       __real@4010000000000000    004764d0     Editor.obj
 0003:000014e0       ??_7exception@std@@6B@     004764e0     main.obj
 0003:000014ec       ??_C@_0BC@EOODALEL@Unknown?5exception?$AA@ 004764ec     main.obj
 0003:00001508       ??_C@_1JA@MHADJNIL@?$AAc?$AA?3?$AA?2?$AAp?$AAr?$AAo?$AAg?$AAr?$AAa?$AAm?$AA?5?$AAf?$AAi?$AAl?$AAe?$AAs?$AA?5?$AA?$CI?$AAx?$AA8?$AA6?$AA?$CJ?$AA?2?$AAm?$AAi?$AAc?$AAr?$AAo?$AAs?$AAo?$AAf?$AAt@ 00476508     main.obj
 0003:000015b4       ??_C@_1DC@POOIKBAO@?$AAI?$AAT?$AAE?$AAR?$AAA?$AAT?$AAO?$AAR?$AA?5?$AAL?$AAI?$AAS?$AAT?$AA?5?$AAC?$AAO?$AAR?$AAR?$AAU?$AAP?$AAT?$AAE?$AAD?$AA?$CB?$AA?$AA@ 004765b4     main.obj
 0003:000015f0       ?npos@?$basic_string@DU?$char_traits@D@std@@V?$allocator@D@2@@std@@2IB 004765f0     main.obj
 0003:000015f8       ??_7bad_cast@std@@6B@      004765f8     main.obj
 0003:00001604       ??_C@_08EPJLHIJG@bad?5cast?$AA@ 00476604     main.obj
 0003:00001610       ??_C@_0N@KFGCJNCF@pathgrid?4txt?$AA@ 00476610     main.obj
 0003:00001624       ??_7?$basic_filebuf@DU?$char_traits@D@std@@@std@@6B@ 00476624     main.obj
 0003:00001670       ??_7?$basic_ofstream@DU?$char_traits@D@std@@@std@@6B@ 00476670     main.obj
 0003:00001678       ??_8?$basic_ofstream@DU?$char_traits@D@std@@@std@@7B@ 00476678     main.obj
 0003:00001688       ??_7?$basic_ifstream@DU?$char_traits@D@std@@@std@@6B@ 00476688     main.obj
 0003:00001690       ??_8?$basic_ifstream@DU?$char_traits@D@std@@@std@@7B@ 00476690     main.obj
 0003:0000169c       ??_C@_0N@HNPDNMDL@Grid?5saved?$CB?6?$AA@ 0047669c     main.obj
 0003:000016ac       ??_C@_0O@OBPNDELL@Grid?5loaded?$CB?6?$AA@ 004766ac     main.obj
 0003:000016bc       ??_C@_05PDJBBECF@pause?$AA@ 004766bc     main.obj
 0003:000016c8       ??_C@_1EG@CNCHLAOB@?$AAs?$AAt?$AAr?$AAi?$AAn?$AAg?$AA?5?$AAi?$AAt?$AAe?$AAr?$AAa?$AAt?$AAo?$AAr?$AA?5?$AAn?$AAo?$AAt?$AA?5?$AAd?$AAe?$AAr?$AAe?$AAf?$AAe?$AAr?$AAe?$AAn?$AAc?$AAa?$AAb@ 004766c8     main.obj
 0003:0000171c       ??_C@_0CE@OFMIGAMM@Standard?5C?$CL?$CL?5Libraries?5Out?5of?5Ra@ 0047671c     main.obj
 0003:00001748       ??_C@_1FG@IBPIFFN@?$AA?$CC?$AAS?$AAt?$AAa?$AAn?$AAd?$AAa?$AAr?$AAd?$AA?5?$AAC?$AA?$CL?$AA?$CL?$AA?5?$AAL?$AAi?$AAb?$AAr?$AAa?$AAr?$AAi?$AAe?$AAs?$AA?5?$AAO?$AAu?$AAt?$AA?5?$AAo?$AAf?$AA?5?$AAR@ 00476748     main.obj
 0003:000017b0       ??_C@_1MG@GDGHDIKC@?$AAs?$AAt?$AAd?$AA?3?$AA?3?$AA_?$AAS?$AAt?$AAr?$AAi?$AAn?$AAg?$AA_?$AAc?$AAo?$AAn?$AAs?$AAt?$AA_?$AAi?$AAt?$AAe?$AAr?$AAa?$AAt?$AAo?$AAr?$AA?$DM?$AAc?$AAl?$AAa?$AAs@ 004767b0     main.obj
 0003:000018a0       ??_C@_1BO@MEPPHOO@?$AA?$CC?$AAo?$AAu?$AAt?$AA?5?$AAo?$AAf?$AA?5?$AAr?$AAa?$AAn?$AAg?$AAe?$AA?$CC?$AA?$AA@ 004768a0     main.obj
 0003:000018cc       ??_7Game@@6B@              004768cc     CommonPathfindingLib:Game.obj
 0003:000018ec       ??_C@_0BP@NFOMDBJD@failed?5to?5initialize?5allegro?$CB?6?$AA@ 004768ec     CommonPathfindingLib:Game.obj
 0003:00001914       ??_C@_0CN@NDCAIAOH@failed?5to?5initialize?5GraphicsSys@ 00476914     CommonPathfindingLib:Game.obj
 0003:0000194c       ??_C@_0BN@OFBNGFA@image?5addon?5failed?5to?5load?$CB?6?$AA@ 0047694c     CommonPathfindingLib:Game.obj
 0003:00001970       ??_C@_0BN@NHNICPGG@failed?5to?5initialize?5sound?$CB?6?$AA@ 00476970     CommonPathfindingLib:Game.obj
 0003:00001994       ??_C@_0CE@CPKCHMEC@failed?5to?5initialize?5audio?5codec@ 00476994     CommonPathfindingLib:Game.obj
 0003:000019c0       ??_C@_0BM@KCGEPDF@failed?5to?5reserve?5samples?$CB?6?$AA@ 004769c0     CommonPathfindingLib:Game.obj
 0003:000019e4       ??_C@_0CG@BLOOKPHC@ttf?5font?5addon?5not?5initted?5prope@ 004769e4     CommonPathfindingLib:Game.obj
 0003:00001a14       ??_C@_08HHJKBNGC@cour?4ttf?$AA@ 00476a14     CommonPathfindingLib:Game.obj
 0003:00001a20       ??_C@_0CE@KEIEBNEM@ttf?5font?5file?5not?5loaded?5properl@ 00476a20     CommonPathfindingLib:Game.obj
 0003:00001a4c       ??_C@_0BN@GJEDGGAG@Primitives?5addon?5not?5added?$CB?6?$AA@ 00476a4c     CommonPathfindingLib:Game.obj
 0003:00001a70       ??_C@_1MO@NLCFAPPM@?$AAc?$AA?3?$AA?2?$AAu?$AAs?$AAe?$AAr?$AAs?$AA?2?$AAs?$AAt?$AAu?$AAd?$AAe?$AAn?$AAt?$AA?2?$AAd?$AAo?$AAc?$AAu?$AAm?$AAe?$AAn?$AAt?$AAs?$AA?2?$AA_?$AAb?$AAr?$AAi?$AAa@ 00476a70     CommonPathfindingLib:Game.obj
 0003:00001b68       ??_C@_1BK@FCDNEEDD@?$AAs?$AAt?$AAa?$AAr?$AAt?$AA?5?$AA?$DM?$AA?$DN?$AA?5?$AAe?$AAn?$AAd?$AA?$AA@ 00476b68     CommonPathfindingLib:Game.obj
 0003:00001b88       __real@4000000000000000    00476b88     CommonPathfindingLib:Game.obj
 0003:00001b94       __real@46fffe00            00476b94     CommonPathfindingLib:Game.obj
 0003:00001ba0       ??_C@_1IK@BHJCIFB@?$AAc?$AA?3?$AA?2?$AAp?$AAr?$AAo?$AAg?$AAr?$AAa?$AAm?$AA?5?$AAf?$AAi?$AAl?$AAe?$AAs?$AA?5?$AA?$CI?$AAx?$AA8?$AA6?$AA?$CJ?$AA?2?$AAm?$AAi?$AAc?$AAr?$AAo?$AAs?$AAo?$AAf?$AAt@ 00476ba0     CommonPathfindingLib:GraphicsBufferManager.obj
 0003:00001c48       ??_C@_1DO@CFEEPGGJ@?$AAm?$AAa?$AAp?$AA?1?$AAs?$AAe?$AAt?$AA?5?$AAi?$AAt?$AAe?$AAr?$AAa?$AAt?$AAo?$AAr?$AAs?$AA?5?$AAi?$AAn?$AAc?$AAo?$AAm?$AAp?$AAa?$AAt?$AAi?$AAb?$AAl?$AAe?$AA?$AA@ 00476c48     CommonPathfindingLib:GraphicsBufferManager.obj
 0003:00001c94       ??_C@_0CI@FNPHFCCM@Standard?5C?$CL?$CL?5Libraries?5Invalid?5A@ 00476c94     CommonPathfindingLib:GraphicsBufferManager.obj
 0003:00001cc8       ??_C@_1FO@GJIHNDLM@?$AA?$CC?$AAS?$AAt?$AAa?$AAn?$AAd?$AAa?$AAr?$AAd?$AA?5?$AAC?$AA?$CL?$AA?$CL?$AA?5?$AAL?$AAi?$AAb?$AAr?$AAa?$AAr?$AAi?$AAe?$AAs?$AA?5?$AAI?$AAn?$AAv?$AAa?$AAl?$AAi?$AAd?$AA?5@ 00476cc8     CommonPathfindingLib:GraphicsBufferManager.obj
 0003:00001d38       ??_C@_1BKM@LBOFJKLH@?$AAs?$AAt?$AAd?$AA?3?$AA?3?$AA_?$AAT?$AAr?$AAe?$AAe?$AA_?$AAc?$AAo?$AAn?$AAs?$AAt?$AA_?$AAi?$AAt?$AAe?$AAr?$AAa?$AAt?$AAo?$AAr?$AA?$DM?$AAc?$AAl?$AAa?$AAs?$AAs?$AA?5@ 00476d38     CommonPathfindingLib:GraphicsBufferManager.obj
 0003:00001f40       ??_C@_1EK@PPDBPCAN@?$AAm?$AAa?$AAp?$AA?1?$AAs?$AAe?$AAt?$AA?5?$AAe?$AAr?$AAa?$AAs?$AAe?$AA?5?$AAi?$AAt?$AAe?$AAr?$AAa?$AAt?$AAo?$AAr?$AA?5?$AAo?$AAu?$AAt?$AAs?$AAi?$AAd?$AAe?$AA?5?$AAr@ 00476f40     CommonPathfindingLib:GraphicsBufferManager.obj
 0003:00001f98       ??_C@_1BCK@OJKBJFLO@?$AAs?$AAt?$AAd?$AA?3?$AA?3?$AA_?$AAT?$AAr?$AAe?$AAe?$AA_?$AAc?$AAo?$AAn?$AAs?$AAt?$AA_?$AAi?$AAt?$AAe?$AAr?$AAa?$AAt?$AAo?$AAr?$AA?$DM?$AAc?$AAl?$AAa?$AAs?$AAs?$AA?5@ 00476f98     CommonPathfindingLib:GraphicsBufferManager.obj
 0003:00002100       ??_C@_1EG@EHJFMBHJ@?$AAm?$AAa?$AAp?$AA?1?$AAs?$AAe?$AAt?$AA?5?$AAi?$AAt?$AAe?$AAr?$AAa?$AAt?$AAo?$AAr?$AA?5?$AAn?$AAo?$AAt?$AA?5?$AAi?$AAn?$AAc?$AAr?$AAe?$AAm?$AAe?$AAn?$AAt?$AAa?$AAb@ 00477100     CommonPathfindingLib:GraphicsBufferManager.obj
 0003:00002158       ??_C@_1BKM@BBBIHDHC@?$AAs?$AAt?$AAd?$AA?3?$AA?3?$AA_?$AAT?$AAr?$AAe?$AAe?$AA_?$AAc?$AAo?$AAn?$AAs?$AAt?$AA_?$AAi?$AAt?$AAe?$AAr?$AAa?$AAt?$AAo?$AAr?$AA?$DM?$AAc?$AAl?$AAa?$AAs?$AAs?$AA?5@ 00477158     CommonPathfindingLib:GraphicsBufferManager.obj
 0003:00002360       ??_C@_1BCK@EJFMHMHL@?$AAs?$AAt?$AAd?$AA?3?$AA?3?$AA_?$AAT?$AAr?$AAe?$AAe?$AA_?$AAc?$AAo?$AAn?$AAs?$AAt?$AA_?$AAi?$AAt?$AAe?$AAr?$AAa?$AAt?$AAo?$AAr?$AA?$DM?$AAc?$AAl?$AAa?$AAs?$AAs?$AA?5@ 00477360     CommonPathfindingLib:GraphicsBufferManager.obj
 0003:000024c8       ??_C@_1EI@FHEHNNNM@?$AAm?$AAa?$AAp?$AA?1?$AAs?$AAe?$AAt?$AA?5?$AAi?$AAt?$AAe?$AAr?$AAa?$AAt?$AAo?$AAr?$AA?5?$AAn?$AAo?$AAt?$AA?5?$AAd?$AAe?$AAr?$AAe?$AAf?$AAe?$AAr?$AAe?$AAn?$AAc?$AAa@ 004774c8     CommonPathfindingLib:GraphicsBufferManager.obj
 0003:00002520       ??_C@_1BKK@NKNEDAJK@?$AAs?$AAt?$AAd?$AA?3?$AA?3?$AA_?$AAT?$AAr?$AAe?$AAe?$AA_?$AAc?$AAo?$AAn?$AAs?$AAt?$AA_?$AAi?$AAt?$AAe?$AAr?$AAa?$AAt?$AAo?$AAr?$AA?$DM?$AAc?$AAl?$AAa?$AAs?$AAs?$AA?5@ 00477520     CommonPathfindingLib:GraphicsBufferManager.obj
 0003:00002720       ??_C@_1BCI@EAFCIGCE@?$AAs?$AAt?$AAd?$AA?3?$AA?3?$AA_?$AAT?$AAr?$AAe?$AAe?$AA_?$AAc?$AAo?$AAn?$AAs?$AAt?$AA_?$AAi?$AAt?$AAe?$AAr?$AAa?$AAt?$AAo?$AAr?$AA?$DM?$AAc?$AAl?$AAa?$AAs?$AAs?$AA?5@ 00477720     CommonPathfindingLib:GraphicsBufferManager.obj
 0003:00002884       ??_C@_1CG@LEJCKCBB@?$AAi?$AAn?$AAv?$AAa?$AAl?$AAi?$AAd?$AA?5?$AAc?$AAo?$AAm?$AAp?$AAa?$AAr?$AAa?$AAt?$AAo?$AAr?$AA?$AA@ 00477884     CommonPathfindingLib:GraphicsBufferManager.obj
 0003:000028b8       ??_C@_1IG@CDANFHMM@?$AAc?$AA?3?$AA?2?$AAp?$AAr?$AAo?$AAg?$AAr?$AAa?$AAm?$AA?5?$AAf?$AAi?$AAl?$AAe?$AAs?$AA?5?$AA?$CI?$AAx?$AA8?$AA6?$AA?$CJ?$AA?2?$AAm?$AAi?$AAc?$AAr?$AAo?$AAs?$AAo?$AAf?$AAt@ 004778b8     CommonPathfindingLib:GraphicsBufferManager.obj
 0003:00002958       ??_C@_1EM@MHOKKPFH@?$AAm?$AAa?$AAp?$AA?1?$AAs?$AAe?$AAt?$AA?5?$AAi?$AAn?$AAs?$AAe?$AAr?$AAt?$AA?5?$AAi?$AAt?$AAe?$AAr?$AAa?$AAt?$AAo?$AAr?$AA?5?$AAo?$AAu?$AAt?$AAs?$AAi?$AAd?$AAe?$AA?5@ 00477958     CommonPathfindingLib:GraphicsBufferManager.obj
 0003:000029b8       ??_C@_1EG@OKCGOALM@?$AAm?$AAa?$AAp?$AA?1?$AAs?$AAe?$AAt?$AA?5?$AAi?$AAt?$AAe?$AAr?$AAa?$AAt?$AAo?$AAr?$AA?5?$AAn?$AAo?$AAt?$AA?5?$AAd?$AAe?$AAc?$AAr?$AAe?$AAm?$AAe?$AAn?$AAt?$AAa?$AAb@ 004779b8     CommonPathfindingLib:GraphicsBufferManager.obj
 0003:00002a10       ??_C@_1BKM@OCCKMPLD@?$AAs?$AAt?$AAd?$AA?3?$AA?3?$AA_?$AAT?$AAr?$AAe?$AAe?$AA_?$AAc?$AAo?$AAn?$AAs?$AAt?$AA_?$AAi?$AAt?$AAe?$AAr?$AAa?$AAt?$AAo?$AAr?$AA?$DM?$AAc?$AAl?$AAa?$AAs?$AAs?$AA?5@ 00477a10     CommonPathfindingLib:GraphicsBufferManager.obj
 0003:00002c18       ??_C@_1BCK@LKGOMALK@?$AAs?$AAt?$AAd?$AA?3?$AA?3?$AA_?$AAT?$AAr?$AAe?$AAe?$AA_?$AAc?$AAo?$AAn?$AAs?$AAt?$AA_?$AAi?$AAt?$AAe?$AAr?$AAa?$AAt?$AAo?$AAr?$AA?$DM?$AAc?$AAl?$AAa?$AAs?$AAs?$AA?5@ 00477c18     CommonPathfindingLib:GraphicsBufferManager.obj
 0003:00002d80       ??_C@_0BE@JONHPENG@map?1set?$DMT?$DO?5too?5long?$AA@ 00477d80     CommonPathfindingLib:GraphicsBufferManager.obj
 0003:00002d9c       ??_C@_01CLKCMJKC@?5?$AA@   00477d9c     CommonPathfindingLib:Grid.obj
 0003:00002da0       ??_C@_0BD@OLBABOEK@vector?$DMT?$DO?5too?5long?$AA@ 00477da0     CommonPathfindingLib:Grid.obj
 0003:00002dd0       ??_C@_01CPLAODJH@S?$AA@    00477dd0     CommonPathfindingLib:GridVisualizer.obj
 0003:00002dd8       ??_C@_1IM@NCODKBJH@?$AAc?$AA?3?$AA?2?$AAp?$AAr?$AAo?$AAg?$AAr?$AAa?$AAm?$AA?5?$AAf?$AAi?$AAl?$AAe?$AAs?$AA?5?$AA?$CI?$AAx?$AA8?$AA6?$AA?$CJ?$AA?2?$AAm?$AAi?$AAc?$AAr?$AAo?$AAs?$AAo?$AAf?$AAt@ 00477dd8     CommonPathfindingLib:GridVisualizer.obj
 0003:00002e80       ??_C@_1DM@LHGCHCBA@?$AAv?$AAe?$AAc?$AAt?$AAo?$AAr?$AA?5?$AAs?$AAu?$AAb?$AAs?$AAc?$AAr?$AAi?$AAp?$AAt?$AA?5?$AAo?$AAu?$AAt?$AA?5?$AAo?$AAf?$AA?5?$AAr?$AAa?$AAn?$AAg?$AAe?$AA?$AA@ 00477e80     CommonPathfindingLib:GridVisualizer.obj
 0003:00002ec8       ??_C@_1HC@HBCEAHKD@?$AAs?$AAt?$AAd?$AA?3?$AA?3?$AAv?$AAe?$AAc?$AAt?$AAo?$AAr?$AA?$DM?$AAi?$AAn?$AAt?$AA?0?$AAc?$AAl?$AAa?$AAs?$AAs?$AA?5?$AAs?$AAt?$AAd?$AA?3?$AA?3?$AAa?$AAl?$AAl?$AAo?$AAc@ 00477ec8     CommonPathfindingLib:GridVisualizer.obj
 0003:00002f50       ??_C@_1BIE@CKJBPEOB@?$AAs?$AAt?$AAd?$AA?3?$AA?3?$AA_?$AAT?$AAr?$AAe?$AAe?$AA_?$AAc?$AAo?$AAn?$AAs?$AAt?$AA_?$AAi?$AAt?$AAe?$AAr?$AAa?$AAt?$AAo?$AAr?$AA?$DM?$AAc?$AAl?$AAa?$AAs?$AAs?$AA?5@ 00477f50     CommonPathfindingLib:GridVisualizer.obj
 0003:00003128       ??_C@_1BIE@IKGMBNCE@?$AAs?$AAt?$AAd?$AA?3?$AA?3?$AA_?$AAT?$AAr?$AAe?$AAe?$AA_?$AAc?$AAo?$AAn?$AAs?$AAt?$AA_?$AAi?$AAt?$AAe?$AAr?$AAa?$AAt?$AAo?$AAr?$AA?$DM?$AAc?$AAl?$AAa?$AAs?$AAs?$AA?5@ 00478128     CommonPathfindingLib:GridVisualizer.obj
 0003:00003300       ??_C@_1BIC@KMEIKKAA@?$AAs?$AAt?$AAd?$AA?3?$AA?3?$AA_?$AAT?$AAr?$AAe?$AAe?$AA_?$AAc?$AAo?$AAn?$AAs?$AAt?$AA_?$AAi?$AAt?$AAe?$AAr?$AAa?$AAt?$AAo?$AAr?$AA?$DM?$AAc?$AAl?$AAa?$AAs?$AAs?$AA?5@ 00478300     CommonPathfindingLib:GridVisualizer.obj
 0003:000034d0       ??_C@_1BIE@HJFOKBOF@?$AAs?$AAt?$AAd?$AA?3?$AA?3?$AA_?$AAT?$AAr?$AAe?$AAe?$AA_?$AAc?$AAo?$AAn?$AAs?$AAt?$AA_?$AAi?$AAt?$AAe?$AAr?$AAa?$AAt?$AAo?$AAr?$AA?$DM?$AAc?$AAl?$AAa?$AAs?$AAs?$AA?5@ 004784d0     CommonPathfindingLib:GridVisualizer.obj
 0003:000036a8       ??_C@_1BBK@NOPGMEMI@?$AAs?$AAt?$AAd?$AA?3?$AA?3?$AA_?$AAT?$AAr?$AAe?$AAe?$AA_?$AAc?$AAo?$AAn?$AAs?$AAt?$AA_?$AAi?$AAt?$AAe?$AAr?$AAa?$AAt?$AAo?$AAr?$AA?$DM?$AAc?$AAl?$AAa?$AAs?$AAs?$AA?5@ 004786a8     CommonPathfindingLib:SpriteManager.obj
 0003:00003800       ??_C@_1BBK@HOALCNAN@?$AAs?$AAt?$AAd?$AA?3?$AA?3?$AA_?$AAT?$AAr?$AAe?$AAe?$AA_?$AAc?$AAo?$AAn?$AAs?$AAt?$AA_?$AAi?$AAt?$AAe?$AAr?$AAa?$AAt?$AAo?$AAr?$AA?$DM?$AAc?$AAl?$AAa?$AAs?$AAs?$AA?5@ 00478800     CommonPathfindingLib:SpriteManager.obj
 0003:00003958       ??_C@_1BBI@EPEKJCPI@?$AAs?$AAt?$AAd?$AA?3?$AA?3?$AA_?$AAT?$AAr?$AAe?$AAe?$AA_?$AAc?$AAo?$AAn?$AAs?$AAt?$AA_?$AAi?$AAt?$AAe?$AAr?$AAa?$AAt?$AAo?$AAr?$AA?$DM?$AAc?$AAl?$AAa?$AAs?$AAs?$AA?5@ 00478958     CommonPathfindingLib:SpriteManager.obj
 0003:00003aa8       ??_C@_1BBK@INDJJBMM@?$AAs?$AAt?$AAd?$AA?3?$AA?3?$AA_?$AAT?$AAr?$AAe?$AAe?$AA_?$AAc?$AAo?$AAn?$AAs?$AAt?$AA_?$AAi?$AAt?$AAe?$AAr?$AAa?$AAt?$AAo?$AAr?$AA?$DM?$AAc?$AAl?$AAa?$AAs?$AAs?$AA?5@ 00478aa8     CommonPathfindingLib:SpriteManager.obj
 0003:00003bfc       ??_C@_0CL@CGPALMN@GraphicsSystem?3?3failed?5to?5create@ 00478bfc     CommonPathfindingLib:GraphicsSystem.obj
 0003:00003c30       __real@3f800000            00478c30     CommonPathfindingLib:GraphicsSystem.obj
 0003:00003c34       __real@00000000            00478c34     CommonPathfindingLib:Sprite.obj
 0003:00003c38       __real@0000000000000000    00478c38     DeanLib:Timer.obj
 0003:00003c48       __real@4024000000000000    00478c48     DeanLib:Timer.obj
 0003:00003c58       __real@408f400000000000    00478c58     DeanLib:Timer.obj
 0003:00003c64       ??_C@_0DI@GKEBKCHH@MemoryTracker?5being?5deleted?3?5fin@ 00478c64     DeanLib:MemoryTracker.obj
 0003:00003ca8       ??_C@_0BN@IJFAENGF@Current?5memory?5allocations?3?6?$AA@ 00478ca8     DeanLib:MemoryTracker.obj
 0003:00003ccc       ??_C@_05FGNEEEOC@?5num?3?$AA@ 00478ccc     DeanLib:MemoryTracker.obj
 0003:00003cd4       ??_C@_06NLINOEAE@?5size?3?$AA@ 00478cd4     DeanLib:MemoryTracker.obj
 0003:00003cdc       ??_C@_08GEBKOLPE@address?3?$AA@ 00478cdc     DeanLib:MemoryTracker.obj
 0003:00003ce8       ??_C@_1BDA@PAJOLEOP@?$AAs?$AAt?$AAd?$AA?3?$AA?3?$AA_?$AAT?$AAr?$AAe?$AAe?$AA_?$AAc?$AAo?$AAn?$AAs?$AAt?$AA_?$AAi?$AAt?$AAe?$AAr?$AAa?$AAt?$AAo?$AAr?$AA?$DM?$AAc?$AAl?$AAa?$AAs?$AAs?$AA?5@ 00478ce8     DeanLib:MemoryTracker.obj
 0003:00003e58       ??_C@_1BDA@FAGDFNCK@?$AAs?$AAt?$AAd?$AA?3?$AA?3?$AA_?$AAT?$AAr?$AAe?$AAe?$AA_?$AAc?$AAo?$AAn?$AAs?$AAt?$AA_?$AAi?$AAt?$AAe?$AAr?$AAa?$AAt?$AAo?$AAr?$AA?$DM?$AAc?$AAl?$AAa?$AAs?$AAs?$AA?5@ 00478e58     DeanLib:MemoryTracker.obj
 0003:00003fc8       ??_C@_1BCO@OEOBCANG@?$AAs?$AAt?$AAd?$AA?3?$AA?3?$AA_?$AAT?$AAr?$AAe?$AAe?$AA_?$AAc?$AAo?$AAn?$AAs?$AAt?$AA_?$AAi?$AAt?$AAe?$AAr?$AAa?$AAt?$AAo?$AAr?$AA?$DM?$AAc?$AAl?$AAa?$AAs?$AAs?$AA?5@ 00478fc8     DeanLib:MemoryTracker.obj
 0003:00004138       ??_C@_1BDA@KDFBOBOL@?$AAs?$AAt?$AAd?$AA?3?$AA?3?$AA_?$AAT?$AAr?$AAe?$AAe?$AA_?$AAc?$AAo?$AAn?$AAs?$AAt?$AA_?$AAi?$AAt?$AAe?$AAr?$AAa?$AAt?$AAo?$AAr?$AA?$DM?$AAc?$AAl?$AAa?$AAs?$AAs?$AA?5@ 00479138     DeanLib:MemoryTracker.obj
 0003:000042a4       __real@00800000            004792a4     DeanLib:Vector2D.obj
 0003:000042a8       ??_C@_0CM@OKINAFCK@f?3?2dd?2vctools?2crt?2crtw32?2stdcpp?2@ 004792a8     msvcprtd:locale0_implib.obj
 0003:000042e0       ??_7type_info@@6B@         004792e0     MSVCRTD:std_type_info_static.obj
 0003:00004390       ??_7bad_alloc@std@@6B@     00479390     MSVCRTD:throw_bad_alloc.obj
 0003:0000439c       ??_C@_0P@GHFPNOJB@bad?5allocation?$AA@ 0047939c     MSVCRTD:throw_bad_alloc.obj
 0003:000043b4       ??_7bad_array_new_length@std@@6B@ 004793b4     MSVCRTD:throw_bad_alloc.obj
 0003:000043c0       ??_C@_0BF@KINCDENJ@bad?5array?5new?5length?$AA@ 004793c0     MSVCRTD:throw_bad_alloc.obj
 0003:00004498       ??_C@_0NN@NGPKDKPD@The?5value?5of?5ESP?5was?5not?5properl@ 00479498     MSVCRTD:_error_.obj
 0003:000045a8       ??_C@_0BBN@GPMLNJCF@A?5cast?5to?5a?5smaller?5data?5type?5ha@ 004795a8     MSVCRTD:_error_.obj
 0003:00004700       ??_C@_0BN@FFOINMNJ@Stack?5memory?5was?5corrupted?6?$AN?$AA@ 00479700     MSVCRTD:_error_.obj
 0003:00004724       ??_C@_0DG@HKJMLLLP@A?5local?5variable?5was?5used?5before@ 00479724     MSVCRTD:_error_.obj
 0003:00004764       ??_C@_0CM@NGINOKPC@Stack?5memory?5around?5_alloca?5was?5@ 00479764     MSVCRTD:_error_.obj
 0003:00004798       ??_C@_0BO@GNIAFIKK@Unknown?5Runtime?5Check?5Error?6?$AN?$AA@ 00479798     MSVCRTD:_error_.obj
 0003:000047c0       ??_C@_1GM@OLMCBDMB@?$AAR?$AAu?$AAn?$AAt?$AAi?$AAm?$AAe?$AA?5?$AAC?$AAh?$AAe?$AAc?$AAk?$AA?5?$AAE?$AAr?$AAr?$AAo?$AAr?$AA?4?$AA?6?$AA?$AN?$AA?5?$AAU?$AAn?$AAa?$AAb?$AAl?$AAe?$AA?5?$AAt?$AAo@ 004797c0     MSVCRTD:_error_.obj
 0003:00004848       ??_C@_1EA@NFKNIFJP@?$AAR?$AAu?$AAn?$AA?9?$AAT?$AAi?$AAm?$AAe?$AA?5?$AAC?$AAh?$AAe?$AAc?$AAk?$AA?5?$AAF?$AAa?$AAi?$AAl?$AAu?$AAr?$AAe?$AA?5?$AA?$CD?$AA?$CF?$AAd?$AA?5?$AA?9?$AA?5?$AA?$CF?$AAs?$AA?$AA@ 00479848     MSVCRTD:_error_.obj
 0003:00004894       ??_C@_0BB@PFFGGCJP@Unknown?5Filename?$AA@ 00479894     MSVCRTD:_error_.obj
 0003:000048a8       ??_C@_0BE@GNBOBNCK@Unknown?5Module?5Name?$AA@ 004798a8     MSVCRTD:_error_.obj
 0003:000048c0       ??_C@_0CA@IODNCDPG@Run?9Time?5Check?5Failure?5?$CD?$CFd?5?9?5?$CFs?$AA@ 004798c0     MSVCRTD:_error_.obj
 0003:000048e8       ??_C@_0CG@IAFNJNEE@Stack?5corrupted?5near?5unknown?5var@ 004798e8     MSVCRTD:_error_.obj
 0003:00004918       ??_C@_05MKKEDADM@?$CF?42X?5?$AA@ 00479918     MSVCRTD:_error_.obj
 0003:00004920       ??_C@_0EJ@LJKNEOLN@Stack?5area?5around?5_alloca?5memory@ 00479920     MSVCRTD:_error_.obj
 0003:00004978       ??_C@_08OMAHNMHJ@?6Data?3?5?$DM?$AA@ 00479978     MSVCRTD:_error_.obj
 0003:00004984       ??_C@_0CK@DKGBICFE@?6Allocation?5number?5within?5this?5f@ 00479984     MSVCRTD:_error_.obj
 0003:000049b8       ??_C@_07DFDJCKFN@?6Size?3?5?$AA@ 004799b8     MSVCRTD:_error_.obj
 0003:000049c4       ??_C@_0N@MHFFIMFG@?6Address?3?50x?$AA@ 004799c4     MSVCRTD:_error_.obj
 0003:000049d8       ??_C@_0EI@CLEPFNGI@Stack?5area?5around?5_alloca?5memory@ 004799d8     MSVCRTD:_error_.obj
 0003:00004a30       ??_C@_0BC@HHMKLAND@?$CFs?$CFs?$CFp?$CFs?$CFzd?$CFs?$CFd?$CFs?$AA@ 00479a30     MSVCRTD:_error_.obj
 0003:00004a48       ??_C@_01EEMJAFIK@?6?$AA@   00479a48     MSVCRTD:_error_.obj
 0003:00004a4c       ??_C@_02LLMPMKNF@?$DO?5?$AA@ 00479a4c     MSVCRTD:_error_.obj
 0003:00004a50       ??_C@_08KJEDNCKC@?$CFs?$CFs?$CFs?$CFs?$AA@ 00479a50     MSVCRTD:_error_.obj
 0003:00004a5c       ??_C@_0DE@OHJBPMBP@A?5variable?5is?5being?5used?5without@ 00479a5c     MSVCRTD:_error_.obj
 0003:00004ac0       ??_C@_0BJ@HEGAHDFO@Stack?5pointer?5corruption?$AA@ 00479ac0     MSVCRTD:_userapi_.obj
 0003:00004ae0       ??_C@_0CK@FEGOIOPB@Cast?5to?5smaller?5type?5causing?5los@ 00479ae0     MSVCRTD:_userapi_.obj
 0003:00004b14       ??_C@_0BI@CIGMDCBH@Stack?5memory?5corruption?$AA@ 00479b14     MSVCRTD:_userapi_.obj
 0003:00004b30       ??_C@_0CK@CNLNOEPB@Local?5variable?5used?5before?5initi@ 00479b30     MSVCRTD:_userapi_.obj
 0003:00004b64       ??_C@_0BP@OGBCLIBO@Stack?5around?5_alloca?5corrupted?$AA@ 00479b64     MSVCRTD:_userapi_.obj
 0003:00004be8       ??_C@_1EI@MLPKHBGE@?$AAa?$AAp?$AAi?$AA?9?$AAm?$AAs?$AA?9?$AAw?$AAi?$AAn?$AA?9?$AAc?$AAo?$AAr?$AAe?$AA?9?$AAr?$AAe?$AAg?$AAi?$AAs?$AAt?$AAr?$AAy?$AA?9?$AAl?$AA1?$AA?9?$AA1?$AA?9?$AA0?$AA?4@ 00479be8     MSVCRTD:_pdblkup_.obj
 0003:00004c40       ??_C@_1BK@JHLNAEJL@?$AAa?$AAd?$AAv?$AAa?$AAp?$AAi?$AA3?$AA2?$AA?4?$AAd?$AAl?$AAl?$AA?$AA@ 00479c40     MSVCRTD:_pdblkup_.obj
 0003:00004c60       ??_C@_0O@COHOBMLB@RegOpenKeyExW?$AA@ 00479c60     MSVCRTD:_pdblkup_.obj
 0003:00004c70       ??_C@_0BB@GLNAEDBD@RegQueryValueExW?$AA@ 00479c70     MSVCRTD:_pdblkup_.obj
 0003:00004c84       ??_C@_0M@HLOHPNFA@RegCloseKey?$AA@ 00479c84     MSVCRTD:_pdblkup_.obj
 0003:00004c98       ??_C@_1HE@EBEAGLFB@?$AAS?$AAO?$AAF?$AAT?$AAW?$AAA?$AAR?$AAE?$AA?2?$AAW?$AAo?$AAw?$AA6?$AA4?$AA3?$AA2?$AAN?$AAo?$AAd?$AAe?$AA?2?$AAM?$AAi?$AAc?$AAr?$AAo?$AAs?$AAo?$AAf?$AAt?$AA?2?$AAV@ 00479c98     MSVCRTD:_pdblkup_.obj
 0003:00004d24       ??_C@_1BG@EABPBLLF@?$AAP?$AAr?$AAo?$AAd?$AAu?$AAc?$AAt?$AAD?$AAi?$AAr?$AA?$AA@ 00479d24     MSVCRTD:_pdblkup_.obj
 0003:00004d64       ??_C@_1BC@JINFINNJ@?$AAM?$AAS?$AAP?$AAD?$AAB?$AA1?$AA4?$AA0?$AA?$AA@ 00479d64     MSVCRTD:_pdblkup_.obj
 0003:00004d7c       ??_C@_0BB@KCIACLNC@PDBOpenValidate5?$AA@ 00479d7c     MSVCRTD:_pdblkup_.obj
 0003:00004d90       ??_C@_01KDCPPGHE@r?$AA@    00479d90     MSVCRTD:_pdblkup_.obj
 0003:00004dd8       __load_config_used         00479dd8     MSVCRTD:loadcfg.obj
 0003:00004ff4       ??_R4Editor@@6B@           00479ff4     Editor.obj
 0003:0000500c       ??_R3Editor@@8             0047a00c     Editor.obj
 0003:00005020       ??_R2Editor@@8             0047a020     Editor.obj
 0003:00005030       ??_R1A@?0A@EA@Editor@@8    0047a030     Editor.obj
 0003:00005054       ??_R1A@?0A@EA@Game@@8      0047a054     Editor.obj
 0003:00005078       ??_R3Game@@8               0047a078     Editor.obj
 0003:0000508c       ??_R2Game@@8               0047a08c     Editor.obj
 0003:00005098       ??_R13?0A@EA@Trackable@@8  0047a098     Editor.obj
 0003:000050bc       ??_R3Trackable@@8          0047a0bc     Editor.obj
 0003:000050d0       ??_R2Trackable@@8          0047a0d0     Editor.obj
 0003:000050d8       ??_R1A@?0A@EA@Trackable@@8 0047a0d8     Editor.obj
 0003:000050fc       ??_R4exception@std@@6B@    0047a0fc     main.obj
 0003:00005114       ??_R3exception@std@@8      0047a114     main.obj
 0003:00005128       ??_R2exception@std@@8      0047a128     main.obj
 0003:00005130       ??_R1A@?0A@EA@exception@std@@8 0047a130     main.obj
 0003:00005154       ??_R4?$basic_filebuf@DU?$char_traits@D@std@@@std@@6B@ 0047a154     main.obj
 0003:0000516c       ??_R3?$basic_filebuf@DU?$char_traits@D@std@@@std@@8 0047a16c     main.obj
 0003:00005180       ??_R2?$basic_filebuf@DU?$char_traits@D@std@@@std@@8 0047a180     main.obj
 0003:0000518c       ??_R1A@?0A@EA@?$basic_filebuf@DU?$char_traits@D@std@@@std@@8 0047a18c     main.obj
 0003:000051b0       ??_R1A@?0A@EA@?$basic_streambuf@DU?$char_traits@D@std@@@std@@8 0047a1b0     main.obj
 0003:000051d4       ??_R3?$basic_streambuf@DU?$char_traits@D@std@@@std@@8 0047a1d4     main.obj
 0003:000051e8       ??_R2?$basic_streambuf@DU?$char_traits@D@std@@@std@@8 0047a1e8     main.obj
 0003:000051f0       ??_R4?$basic_ifstream@DU?$char_traits@D@std@@@std@@6B@ 0047a1f0     main.obj
 0003:00005208       ??_R3?$basic_ifstream@DU?$char_traits@D@std@@@std@@8 0047a208     main.obj
 0003:0000521c       ??_R2?$basic_ifstream@DU?$char_traits@D@std@@@std@@8 0047a21c     main.obj
 0003:00005238       ??_R1A@?0A@EA@?$basic_ifstream@DU?$char_traits@D@std@@@std@@8 0047a238     main.obj
 0003:0000525c       ??_R1A@?0A@EA@?$basic_istream@DU?$char_traits@D@std@@@std@@8 0047a25c     main.obj
 0003:00005280       ??_R3?$basic_istream@DU?$char_traits@D@std@@@std@@8 0047a280     main.obj
 0003:00005294       ??_R2?$basic_istream@DU?$char_traits@D@std@@@std@@8 0047a294     main.obj
 0003:000052a8       ??_R1A@A@3FA@?$basic_ios@DU?$char_traits@D@std@@@std@@8 0047a2a8     main.obj
 0003:000052cc       ??_R3?$basic_ios@DU?$char_traits@D@std@@@std@@8 0047a2cc     main.obj
 0003:000052e0       ??_R2?$basic_ios@DU?$char_traits@D@std@@@std@@8 0047a2e0     main.obj
 0003:000052f0       ??_R1A@?0A@EA@?$basic_ios@DU?$char_traits@D@std@@@std@@8 0047a2f0     main.obj
 0003:00005314       ??_R1A@?0A@EA@ios_base@std@@8 0047a314     main.obj
 0003:00005338       ??_R3ios_base@std@@8       0047a338     main.obj
 0003:0000534c       ??_R2ios_base@std@@8       0047a34c     main.obj
 0003:00005358       ??_R17?0A@EA@?$_Iosb@H@std@@8 0047a358     main.obj
 0003:0000537c       ??_R3?$_Iosb@H@std@@8      0047a37c     main.obj
 0003:00005390       ??_R2?$_Iosb@H@std@@8      0047a390     main.obj
 0003:00005398       ??_R1A@?0A@EA@?$_Iosb@H@std@@8 0047a398     main.obj
 0003:000053bc       ??_R1A@A@3EA@ios_base@std@@8 0047a3bc     main.obj
 0003:000053e0       ??_R17A@3EA@?$_Iosb@H@std@@8 0047a3e0     main.obj
 0003:00005404       ??_R4?$basic_ofstream@DU?$char_traits@D@std@@@std@@6B@ 0047a404     main.obj
 0003:0000541c       ??_R3?$basic_ofstream@DU?$char_traits@D@std@@@std@@8 0047a41c     main.obj
 0003:00005430       ??_R2?$basic_ofstream@DU?$char_traits@D@std@@@std@@8 0047a430     main.obj
 0003:0000544c       ??_R1A@?0A@EA@?$basic_ofstream@DU?$char_traits@D@std@@@std@@8 0047a44c     main.obj
 0003:00005470       ??_R1A@?0A@EA@?$basic_ostream@DU?$char_traits@D@std@@@std@@8 0047a470     main.obj
 0003:00005494       ??_R3?$basic_ostream@DU?$char_traits@D@std@@@std@@8 0047a494     main.obj
 0003:000054a8       ??_R2?$basic_ostream@DU?$char_traits@D@std@@@std@@8 0047a4a8     main.obj
 0003:000054bc       ??_R4bad_cast@std@@6B@     0047a4bc     main.obj
 0003:000054d4       ??_R3bad_cast@std@@8       0047a4d4     main.obj
 0003:000054e8       ??_R2bad_cast@std@@8       0047a4e8     main.obj
 0003:000054f4       ??_R1A@?0A@EA@bad_cast@std@@8 0047a4f4     main.obj
 0003:00005518       ??_R4Game@@6B@             0047a518     CommonPathfindingLib:Game.obj
 0003:00005530       ??_R4type_info@@6B@        0047a530     MSVCRTD:std_type_info_static.obj
 0003:00005548       ??_R3type_info@@8          0047a548     MSVCRTD:std_type_info_static.obj
 0003:0000555c       ??_R2type_info@@8          0047a55c     MSVCRTD:std_type_info_static.obj
 0003:00005564       ??_R1A@?0A@EA@type_info@@8 0047a564     MSVCRTD:std_type_info_static.obj
 0003:00005588       ??_R4bad_alloc@std@@6B@    0047a588     MSVCRTD:throw_bad_alloc.obj
 0003:000055a0       ??_R3bad_alloc@std@@8      0047a5a0     MSVCRTD:throw_bad_alloc.obj
 0003:000055b4       ??_R2bad_alloc@std@@8      0047a5b4     MSVCRTD:throw_bad_alloc.obj
 0003:000055c0       ??_R1A@?0A@EA@bad_alloc@std@@8 0047a5c0     MSVCRTD:throw_bad_alloc.obj
 0003:000055e4       ??_R4bad_array_new_length@std@@6B@ 0047a5e4     MSVCRTD:throw_bad_alloc.obj
 0003:000055fc       ??_R3bad_array_new_length@std@@8 0047a5fc     MSVCRTD:throw_bad_alloc.obj
 0003:00005610       ??_R2bad_array_new_length@std@@8 0047a610     MSVCRTD:throw_bad_alloc.obj
 0003:00005620       ??_R1A@?0A@EA@bad_array_new_length@std@@8 0047a620     MSVCRTD:throw_bad_alloc.obj
 0003:00005914       ___rtc_iaa                 0047a914     MSVCRTD:_initsect_.obj
 0003:00005b5c       ___rtc_izz                 0047ab5c     MSVCRTD:_initsect_.obj
 0003:00005c60       ___rtc_taa                 0047ac60     MSVCRTD:_initsect_.obj
 0003:00005ea8       ___rtc_tzz                 0047aea8     MSVCRTD:_initsect_.obj
 0003:00006698       __CT??_R0?AVexception@std@@@8??0exception@std@@QAE@ABV01@@Z12 0047b698     main.obj
 0003:000066b8       __TI2?AVbad_cast@std@@     0047b6b8     main.obj
 0003:000066cc       __CTA2?AVbad_cast@std@@    0047b6cc     main.obj
 0003:000066dc       __CT??_R0?AVbad_cast@std@@@8??0bad_cast@std@@QAE@ABV01@@Z12 0047b6dc     main.obj
 0003:00009110       __TI2?AVbad_alloc@std@@    0047e110     MSVCRTD:throw_bad_alloc.obj
 0003:00009124       __CTA2?AVbad_alloc@std@@   0047e124     MSVCRTD:throw_bad_alloc.obj
 0003:00009134       __CT??_R0?AVbad_alloc@std@@@8??0bad_alloc@std@@QAE@ABV01@@Z12 0047e134     MSVCRTD:throw_bad_alloc.obj
 0003:00009154       __TI3?AVbad_array_new_length@std@@ 0047e154     MSVCRTD:throw_bad_alloc.obj
 0003:00009168       __CTA3?AVbad_array_new_length@std@@ 0047e168     MSVCRTD:throw_bad_alloc.obj
 0003:0000917c       __CT??_R0?AVbad_array_new_length@std@@@8??0bad_array_new_length@std@@QAE@ABV01@@Z12 0047e17c     MSVCRTD:throw_bad_alloc.obj
 0004:00000000       ?__LINE__Var@?0??_Allocate@std@@YAPAXII_N@Z@4JA 0047f000     Editor.obj
 0004:00000004       ?__LINE__Var@?0??_Deallocate@std@@YAXPAXII@Z@4JA 0047f004     Editor.obj
 0004:00000008       ?__LINE__Var@?0??lerp@@YAMHHH@Z@4JA 0047f008     CommonPathfindingLib:Game.obj
 0004:00000058       ___security_cookie_complement 0047f058     MSVCRTD:gs_cookie.obj
 0004:0000005c       ___security_cookie         0047f05c     MSVCRTD:gs_cookie.obj
 0004:00000064       __fltused                  0047f064     MSVCRTD:fltused.obj
 0004:00000068       ___scrt_native_dllmain_reason 0047f068     MSVCRTD:utility.obj
 0004:00000070       ?_RTC_ErrorLevels@@3PAHA   0047f070     MSVCRTD:_error_.obj
 0004:00000088       ___isa_enabled             0047f088     MSVCRTD:_cpu_disp_.obj
 0004:0000008c       ___scrt_default_matherr    0047f08c     MSVCRTD:matherr.obj
 0004:00000090       ___scrt_ucrt_dll_is_in_use 0047f090     MSVCRTD:ucrt_stubs.obj
 0004:000001a0       ??_R0?AVEditor@@@8         0047f1a0     Editor.obj
 0004:000001bc       ??_R0?AVGame@@@8           0047f1bc     Editor.obj
 0004:000001d4       ??_R0?AVTrackable@@@8      0047f1d4     Editor.obj
 0004:000001f0       ??_R0?AVexception@std@@@8  0047f1f0     main.obj
 0004:00000214       ??_R0?AVbad_cast@std@@@8   0047f214     main.obj
 0004:00000234       ??_R0?AV?$basic_filebuf@DU?$char_traits@D@std@@@std@@@8 0047f234     main.obj
 0004:0000027c       ??_R0?AV?$basic_streambuf@DU?$char_traits@D@std@@@std@@@8 0047f27c     main.obj
 0004:000002c4       ??_R0?AV?$basic_ifstream@DU?$char_traits@D@std@@@std@@@8 0047f2c4     main.obj
 0004:0000030c       ??_R0?AV?$basic_istream@DU?$char_traits@D@std@@@std@@@8 0047f30c     main.obj
 0004:00000354       ??_R0?AV?$basic_ios@DU?$char_traits@D@std@@@std@@@8 0047f354     main.obj
 0004:00000394       ??_R0?AVios_base@std@@@8   0047f394     main.obj
 0004:000003b4       ??_R0?AV?$_Iosb@H@std@@@8  0047f3b4     main.obj
 0004:000003d8       ??_R0?AV?$basic_ofstream@DU?$char_traits@D@std@@@std@@@8 0047f3d8     main.obj
 0004:00000420       ??_R0?AV?$basic_ostream@DU?$char_traits@D@std@@@std@@@8 0047f420     main.obj
 0004:00000468       ??_R0?AVtype_info@@@8      0047f468     MSVCRTD:std_type_info_static.obj
 0004:00000484       ??_R0?AVbad_alloc@std@@@8  0047f484     MSVCRTD:throw_bad_alloc.obj
 0004:000004a8       ??_R0?AVbad_array_new_length@std@@@8 0047f4a8     MSVCRTD:throw_bad_alloc.obj
 0004:00000628       ?_Stinit@?1??_Init@?$basic_filebuf@DU?$char_traits@D@std@@@std@@IAEXPAU_iobuf@@W4_Initfl@23@@Z@4U_Mbstatet@@A 0047f628     main.obj
 0004:00000634       ?_Psave@?$_Facetptr@V?$codecvt@DDU_Mbstatet@@@std@@@std@@2PBVfacet@locale@2@B 0047f634     main.obj
 0004:00000638       ?gpGame@@3PAVGame@@A       0047f638     CommonPathfindingLib:Game.obj
 0004:00000650       ?_OptionsStorage@?1??__local_stdio_printf_options@@9@4_KA 0047f650     CommonPathfindingLib:Game.obj
 0004:00000660       ?msNextID@GraphicsBufferManager@@0HA 0047f660     CommonPathfindingLib:GraphicsBufferManager.obj
 0004:00000694       ?msAllocationNum@MemoryTracker@@0HA 0047f694     DeanLib:MemoryTracker.obj
 0004:00000698       ?gMemoryTracker@@3VMemoryTracker@@A 0047f698     DeanLib:MemoryTracker.obj
 0004:000006a8       ?gZeroVector2D@@3VVector2D@@A 0047f6a8     DeanLib:Vector2D.obj
 0004:000006bc       ___scrt_current_native_startup_state 0047f6bc     MSVCRTD:utility.obj
 0004:000006c0       ___scrt_native_startup_lock 0047f6c0     MSVCRTD:utility.obj
 0004:00000ab0       ___isa_available           0047fab0     MSVCRTD:_cpu_disp_.obj
 0004:00000ab4       ___favor                   0047fab4     MSVCRTD:_cpu_disp_.obj
 0004:00000abc       ___scrt_debugger_hook_flag 0047fabc     MSVCRTD:utility_desktop.obj
 0004:00000ac0       ?__type_info_root_node@@3U__type_info_node@@A 0047fac0     MSVCRTD:tncleanup.obj
 0004:00000ad0       ?_OptionsStorage@?1??__local_stdio_scanf_options@@9@4_KA 0047fad0     MSVCRTD:default_local_stdio_options.obj
 0004:00000ae4       ___dyn_tls_dtor_callback   0047fae4     <common>
 0004:00000af0       ___dyn_tls_init_callback   0047faf0     <common>
 0005:00000000       __imp__GetProcAddress@8    00480000     kernel32:KERNEL32.dll
 0005:00000004       __imp__FreeLibrary@4       00480004     kernel32:KERNEL32.dll
 0005:00000008       __imp__VirtualQuery@12     00480008     kernel32:KERNEL32.dll
 0005:0000000c       __imp__GetProcessHeap@0    0048000c     kernel32:KERNEL32.dll
 0005:00000010       __imp__HeapFree@12         00480010     kernel32:KERNEL32.dll
 0005:00000014       __imp__HeapAlloc@12        00480014     kernel32:KERNEL32.dll
 0005:00000018       __imp__GetLastError@0      00480018     kernel32:KERNEL32.dll
 0005:0000001c       __imp__InitializeSListHead@4 0048001c     kernel32:KERNEL32.dll
 0005:00000020       __imp__GetSystemTimeAsFileTime@4 00480020     kernel32:KERNEL32.dll
 0005:00000024       __imp__GetCurrentThreadId@0 00480024     kernel32:KERNEL32.dll
 0005:00000028       __imp__GetCurrentProcessId@0 00480028     kernel32:KERNEL32.dll
 0005:0000002c       __imp__GetModuleHandleW@4  0048002c     kernel32:KERNEL32.dll
 0005:00000030       __imp__GetStartupInfoW@4   00480030     kernel32:KERNEL32.dll
 0005:00000034       __imp__IsProcessorFeaturePresent@4 00480034     kernel32:KERNEL32.dll
 0005:00000038       __imp__TerminateProcess@8  00480038     kernel32:KERNEL32.dll
 0005:0000003c       __imp__GetCurrentProcess@0 0048003c     kernel32:KERNEL32.dll
 0005:00000040       __imp__SetUnhandledExceptionFilter@4 00480040     kernel32:KERNEL32.dll
 0005:00000044       __imp__UnhandledExceptionFilter@4 00480044     kernel32:KERNEL32.dll
 0005:00000048       __imp__WideCharToMultiByte@32 00480048     kernel32:KERNEL32.dll
 0005:0000004c       __imp__MultiByteToWideChar@24 0048004c     kernel32:KERNEL32.dll
 0005:00000050       __imp__RaiseException@16   00480050     kernel32:KERNEL32.dll
 0005:00000054       __imp__IsDebuggerPresent@0 00480054     kernel32:KERNEL32.dll
 0005:00000058       __imp__QueryPerformanceFrequency@4 00480058     kernel32:KERNEL32.dll
 0005:0000005c       __imp__QueryPerformanceCounter@4 0048005c     kernel32:KERNEL32.dll
 0005:00000060       __imp__Sleep@4             00480060     kernel32:KERNEL32.dll
 0005:00000064       \177KERNEL32_NULL_THUNK_DATA 00480064     kernel32:KERNEL32.dll
 0005:000000a4       __imp_??6?$basic_ostream@DU?$char_traits@D@std@@@std@@QAEAAV01@P6AAAV01@AAV01@@Z@Z 004800a4     msvcprtd:MSVCP140D.dll
 0005:000000a8       __imp_?widen@?$basic_ios@DU?$char_traits@D@std@@@std@@QBEDD@Z 004800a8     msvcprtd:MSVCP140D.dll
 0005:000000ac       __imp_??5?$basic_istream@DU?$char_traits@D@std@@@std@@QAEAAV01@AAH@Z 004800ac     msvcprtd:MSVCP140D.dll
 0005:000000b0       __imp_??6?$basic_ostream@DU?$char_traits@D@std@@@std@@QAEAAV01@H@Z 004800b0     msvcprtd:MSVCP140D.dll
 0005:000000b4       __imp_?cout@std@@3V?$basic_ostream@DU?$char_traits@D@std@@@1@A 004800b4     msvcprtd:MSVCP140D.dll
 0005:000000b8       __imp_?id@?$codecvt@DDU_Mbstatet@@@std@@2V0locale@2@A 004800b8     msvcprtd:MSVCP140D.dll
 0005:000000bc       __imp_?_BADOFF@std@@3_JB   004800bc     msvcprtd:MSVCP140D.dll
 0005:000000c0       __imp_?xsputn@?$basic_streambuf@DU?$char_traits@D@std@@@std@@MAE_JPBD_J@Z 004800c0     msvcprtd:MSVCP140D.dll
 0005:000000c4       __imp_?xsgetn@?$basic_streambuf@DU?$char_traits@D@std@@@std@@MAE_JPAD_J@Z 004800c4     msvcprtd:MSVCP140D.dll
 0005:000000c8       __imp_?showmanyc@?$basic_streambuf@DU?$char_traits@D@std@@@std@@MAE_JXZ 004800c8     msvcprtd:MSVCP140D.dll
 0005:000000cc       __imp_?_Fiopen@std@@YAPAU_iobuf@@PBDHH@Z 004800cc     msvcprtd:MSVCP140D.dll
 0005:000000d0       __imp_??1?$basic_istream@DU?$char_traits@D@std@@@std@@UAE@XZ 004800d0     msvcprtd:MSVCP140D.dll
 0005:000000d4       __imp_??0?$basic_istream@DU?$char_traits@D@std@@@std@@QAE@PAV?$basic_streambuf@DU?$char_traits@D@std@@@1@_N@Z 004800d4     msvcprtd:MSVCP140D.dll
 0005:000000d8       __imp_??6?$basic_ostream@DU?$char_traits@D@std@@@std@@QAEAAV01@PBX@Z 004800d8     msvcprtd:MSVCP140D.dll
 0005:000000dc       __imp_?put@?$basic_ostream@DU?$char_traits@D@std@@@std@@QAEAAV12@D@Z 004800dc     msvcprtd:MSVCP140D.dll
 0005:000000e0       __imp_??6?$basic_ostream@DU?$char_traits@D@std@@@std@@QAEAAV01@I@Z 004800e0     msvcprtd:MSVCP140D.dll
 0005:000000e4       __imp_??0_Lockit@std@@QAE@H@Z 004800e4     msvcprtd:MSVCP140D.dll
 0005:000000e8       __imp_??1_Lockit@std@@QAE@XZ 004800e8     msvcprtd:MSVCP140D.dll
 0005:000000ec       __imp_?_Debug_message@std@@YAXPB_W0I@Z 004800ec     msvcprtd:MSVCP140D.dll
 0005:000000f0       __imp_?_Xbad_alloc@std@@YAXXZ 004800f0     msvcprtd:MSVCP140D.dll
 0005:000000f4       __imp_?_Xlength_error@std@@YAXPBD@Z 004800f4     msvcprtd:MSVCP140D.dll
 0005:000000f8       __imp_?_Xout_of_range@std@@YAXPBD@Z 004800f8     msvcprtd:MSVCP140D.dll
 0005:000000fc       __imp_?uncaught_exception@std@@YA_NXZ 004800fc     msvcprtd:MSVCP140D.dll
 0005:00000100       __imp_??Bid@locale@std@@QAEIXZ 00480100     msvcprtd:MSVCP140D.dll
 0005:00000104       __imp_?_Getgloballocale@locale@std@@CAPAV_Locimp@12@XZ 00480104     msvcprtd:MSVCP140D.dll
 0005:00000108       __imp_?always_noconv@codecvt_base@std@@QBE_NXZ 00480108     msvcprtd:MSVCP140D.dll
 0005:0000010c       __imp_?in@?$codecvt@DDU_Mbstatet@@@std@@QBEHAAU_Mbstatet@@PBD1AAPBDPAD3AAPAD@Z 0048010c     msvcprtd:MSVCP140D.dll
 0005:00000110       __imp_?out@?$codecvt@DDU_Mbstatet@@@std@@QBEHAAU_Mbstatet@@PBD1AAPBDPAD3AAPAD@Z 00480110     msvcprtd:MSVCP140D.dll
 0005:00000114       __imp_?unshift@?$codecvt@DDU_Mbstatet@@@std@@QBEHAAU_Mbstatet@@PAD1AAPAD@Z 00480114     msvcprtd:MSVCP140D.dll
 0005:00000118       __imp_?_Getcat@?$codecvt@DDU_Mbstatet@@@std@@SAIPAPBVfacet@locale@2@PBV42@@Z 00480118     msvcprtd:MSVCP140D.dll
 0005:0000011c       __imp_?good@ios_base@std@@QBE_NXZ 0048011c     msvcprtd:MSVCP140D.dll
 0005:00000120       __imp_?flags@ios_base@std@@QBEHXZ 00480120     msvcprtd:MSVCP140D.dll
 0005:00000124       __imp_?width@ios_base@std@@QBE_JXZ 00480124     msvcprtd:MSVCP140D.dll
 0005:00000128       __imp_?width@ios_base@std@@QAE_J_J@Z 00480128     msvcprtd:MSVCP140D.dll
 0005:0000012c       __imp_??0?$basic_streambuf@DU?$char_traits@D@std@@@std@@IAE@XZ 0048012c     msvcprtd:MSVCP140D.dll
 0005:00000130       __imp_??1?$basic_streambuf@DU?$char_traits@D@std@@@std@@UAE@XZ 00480130     msvcprtd:MSVCP140D.dll
 0005:00000134       __imp_?getloc@?$basic_streambuf@DU?$char_traits@D@std@@@std@@QBE?AVlocale@2@XZ 00480134     msvcprtd:MSVCP140D.dll
 0005:00000138       __imp_?sputc@?$basic_streambuf@DU?$char_traits@D@std@@@std@@QAEHD@Z 00480138     msvcprtd:MSVCP140D.dll
 0005:0000013c       __imp_?sputn@?$basic_streambuf@DU?$char_traits@D@std@@@std@@QAE_JPBD_J@Z 0048013c     msvcprtd:MSVCP140D.dll
 0005:00000140       __imp_?eback@?$basic_streambuf@DU?$char_traits@D@std@@@std@@IBEPADXZ 00480140     msvcprtd:MSVCP140D.dll
 0005:00000144       __imp_?gptr@?$basic_streambuf@DU?$char_traits@D@std@@@std@@IBEPADXZ 00480144     msvcprtd:MSVCP140D.dll
 0005:00000148       __imp_?pptr@?$basic_streambuf@DU?$char_traits@D@std@@@std@@IBEPADXZ 00480148     msvcprtd:MSVCP140D.dll
 0005:0000014c       __imp_?egptr@?$basic_streambuf@DU?$char_traits@D@std@@@std@@IBEPADXZ 0048014c     msvcprtd:MSVCP140D.dll
 0005:00000150       __imp_?setg@?$basic_streambuf@DU?$char_traits@D@std@@@std@@IAEXPAD00@Z 00480150     msvcprtd:MSVCP140D.dll
 0005:00000154       __imp_?epptr@?$basic_streambuf@DU?$char_traits@D@std@@@std@@IBEPADXZ 00480154     msvcprtd:MSVCP140D.dll
 0005:00000158       __imp_?_Gndec@?$basic_streambuf@DU?$char_traits@D@std@@@std@@IAEPADXZ 00480158     msvcprtd:MSVCP140D.dll
 0005:0000015c       __imp_?_Gninc@?$basic_streambuf@DU?$char_traits@D@std@@@std@@IAEPADXZ 0048015c     msvcprtd:MSVCP140D.dll
 0005:00000160       __imp_?_Pninc@?$basic_streambuf@DU?$char_traits@D@std@@@std@@IAEPADXZ 00480160     msvcprtd:MSVCP140D.dll
 0005:00000164       __imp_?_Init@?$basic_streambuf@DU?$char_traits@D@std@@@std@@IAEXXZ 00480164     msvcprtd:MSVCP140D.dll
 0005:00000168       __imp_?_Init@?$basic_streambuf@DU?$char_traits@D@std@@@std@@IAEXPAPAD0PAH001@Z 00480168     msvcprtd:MSVCP140D.dll
 0005:0000016c       __imp_??1?$basic_ios@DU?$char_traits@D@std@@@std@@UAE@XZ 0048016c     msvcprtd:MSVCP140D.dll
 0005:00000170       __imp_?setstate@?$basic_ios@DU?$char_traits@D@std@@@std@@QAEXH_N@Z 00480170     msvcprtd:MSVCP140D.dll
 0005:00000174       __imp_?tie@?$basic_ios@DU?$char_traits@D@std@@@std@@QBEPAV?$basic_ostream@DU?$char_traits@D@std@@@2@XZ 00480174     msvcprtd:MSVCP140D.dll
 0005:00000178       __imp_?rdbuf@?$basic_ios@DU?$char_traits@D@std@@@std@@QBEPAV?$basic_streambuf@DU?$char_traits@D@std@@@2@XZ 00480178     msvcprtd:MSVCP140D.dll
 0005:0000017c       __imp_?fill@?$basic_ios@DU?$char_traits@D@std@@@std@@QBEDXZ 0048017c     msvcprtd:MSVCP140D.dll
 0005:00000180       __imp_??0?$basic_ios@DU?$char_traits@D@std@@@std@@IAE@XZ 00480180     msvcprtd:MSVCP140D.dll
 0005:00000184       __imp_??0?$basic_ostream@DU?$char_traits@D@std@@@std@@QAE@PAV?$basic_streambuf@DU?$char_traits@D@std@@@1@_N@Z 00480184     msvcprtd:MSVCP140D.dll
 0005:00000188       __imp_??1?$basic_ostream@DU?$char_traits@D@std@@@std@@UAE@XZ 00480188     msvcprtd:MSVCP140D.dll
 0005:0000018c       __imp_?_Osfx@?$basic_ostream@DU?$char_traits@D@std@@@std@@QAEXXZ 0048018c     msvcprtd:MSVCP140D.dll
 0005:00000190       __imp_?flush@?$basic_ostream@DU?$char_traits@D@std@@@std@@QAEAAV12@XZ 00480190     msvcprtd:MSVCP140D.dll
 0005:00000194       \177MSVCP140D_NULL_THUNK_DATA 00480194     msvcprtd:MSVCP140D.dll
 0005:000001f0       __imp____vcrt_GetModuleHandleW 004801f0     vcruntimed:VCRUNTIME140D.dll
 0005:000001f4       __imp____vcrt_GetModuleFileNameW 004801f4     vcruntimed:VCRUNTIME140D.dll
 0005:000001f8       __imp____std_type_info_destroy_list 004801f8     vcruntimed:VCRUNTIME140D.dll
 0005:000001fc       __imp___except_handler4_common 004801fc     vcruntimed:VCRUNTIME140D.dll
 0005:00000200       __imp__memcmp              00480200     vcruntimed:VCRUNTIME140D.dll
 0005:00000204       __imp____RTDynamicCast     00480204     vcruntimed:VCRUNTIME140D.dll
 0005:00000208       __imp____std_exception_destroy 00480208     vcruntimed:VCRUNTIME140D.dll
 0005:0000020c       __imp____std_exception_copy 0048020c     vcruntimed:VCRUNTIME140D.dll
 0005:00000210       __imp__memset              00480210     vcruntimed:VCRUNTIME140D.dll
 0005:00000214       __imp____CxxFrameHandler3  00480214     vcruntimed:VCRUNTIME140D.dll
 0005:00000218       __imp___CxxThrowException@8 00480218     vcruntimed:VCRUNTIME140D.dll
 0005:0000021c       __imp__memmove             0048021c     vcruntimed:VCRUNTIME140D.dll
 0005:00000220       __imp__memcpy              00480220     vcruntimed:VCRUNTIME140D.dll
 0005:00000224       __imp____vcrt_LoadLibraryExW 00480224     vcruntimed:VCRUNTIME140D.dll
 0005:00000228       \177VCRUNTIME140D_NULL_THUNK_DATA 00480228     vcruntimed:VCRUNTIME140D.dll
 0005:0000025c       __imp__al_create_display   0048025c     allegro-5.0.10-monolith-md-debug:allegro-5.0.10-monolith-md-debug.dll
 0005:00000260       __imp__al_draw_filled_rectangle 00480260     allegro-5.0.10-monolith-md-debug:allegro-5.0.10-monolith-md-debug.dll
 0005:00000264       __imp__al_destroy_display  00480264     allegro-5.0.10-monolith-md-debug:allegro-5.0.10-monolith-md-debug.dll
 0005:00000268       __imp__al_set_target_bitmap 00480268     allegro-5.0.10-monolith-md-debug:allegro-5.0.10-monolith-md-debug.dll
 0005:0000026c       __imp__al_get_backbuffer   0048026c     allegro-5.0.10-monolith-md-debug:allegro-5.0.10-monolith-md-debug.dll
 0005:00000270       __imp__al_get_target_bitmap 00480270     allegro-5.0.10-monolith-md-debug:allegro-5.0.10-monolith-md-debug.dll
 0005:00000274       __imp__al_flip_display     00480274     allegro-5.0.10-monolith-md-debug:allegro-5.0.10-monolith-md-debug.dll
 0005:00000278       __imp__al_create_sub_bitmap 00480278     allegro-5.0.10-monolith-md-debug:allegro-5.0.10-monolith-md-debug.dll
 0005:0000027c       __imp__al_draw_bitmap      0048027c     allegro-5.0.10-monolith-md-debug:allegro-5.0.10-monolith-md-debug.dll
 0005:00000280       __imp__al_draw_rotated_bitmap 00480280     allegro-5.0.10-monolith-md-debug:allegro-5.0.10-monolith-md-debug.dll
 0005:00000284       __imp__al_create_bitmap    00480284     allegro-5.0.10-monolith-md-debug:allegro-5.0.10-monolith-md-debug.dll
 0005:00000288       __imp__al_destroy_bitmap   00480288     allegro-5.0.10-monolith-md-debug:allegro-5.0.10-monolith-md-debug.dll
 0005:0000028c       __imp__al_clone_bitmap     0048028c     allegro-5.0.10-monolith-md-debug:allegro-5.0.10-monolith-md-debug.dll
 0005:00000290       __imp__al_load_bitmap      00480290     allegro-5.0.10-monolith-md-debug:allegro-5.0.10-monolith-md-debug.dll
 0005:00000294       __imp__al_clear_to_color   00480294     allegro-5.0.10-monolith-md-debug:allegro-5.0.10-monolith-md-debug.dll
 0005:00000298       __imp__al_draw_text        00480298     allegro-5.0.10-monolith-md-debug:allegro-5.0.10-monolith-md-debug.dll
 0005:0000029c       __imp__al_get_bitmap_height 0048029c     allegro-5.0.10-monolith-md-debug:allegro-5.0.10-monolith-md-debug.dll
 0005:000002a0       __imp__al_get_mouse_state  004802a0     allegro-5.0.10-monolith-md-debug:allegro-5.0.10-monolith-md-debug.dll
 0005:000002a4       __imp__al_mouse_button_down 004802a4     allegro-5.0.10-monolith-md-debug:allegro-5.0.10-monolith-md-debug.dll
 0005:000002a8       __imp__al_get_keyboard_state 004802a8     allegro-5.0.10-monolith-md-debug:allegro-5.0.10-monolith-md-debug.dll
 0005:000002ac       __imp__al_key_down         004802ac     allegro-5.0.10-monolith-md-debug:allegro-5.0.10-monolith-md-debug.dll
 0005:000002b0       __imp__al_install_system   004802b0     allegro-5.0.10-monolith-md-debug:allegro-5.0.10-monolith-md-debug.dll
 0005:000002b4       __imp__al_install_audio    004802b4     allegro-5.0.10-monolith-md-debug:allegro-5.0.10-monolith-md-debug.dll
 0005:000002b8       __imp__al_uninstall_audio  004802b8     allegro-5.0.10-monolith-md-debug:allegro-5.0.10-monolith-md-debug.dll
 0005:000002bc       __imp__al_reserve_samples  004802bc     allegro-5.0.10-monolith-md-debug:allegro-5.0.10-monolith-md-debug.dll
 0005:000002c0       __imp__al_init_acodec_addon 004802c0     allegro-5.0.10-monolith-md-debug:allegro-5.0.10-monolith-md-debug.dll
 0005:000002c4       __imp__al_init_image_addon 004802c4     allegro-5.0.10-monolith-md-debug:allegro-5.0.10-monolith-md-debug.dll
 0005:000002c8       __imp__al_shutdown_image_addon 004802c8     allegro-5.0.10-monolith-md-debug:allegro-5.0.10-monolith-md-debug.dll
 0005:000002cc       __imp__al_destroy_font     004802cc     allegro-5.0.10-monolith-md-debug:allegro-5.0.10-monolith-md-debug.dll
 0005:000002d0       __imp__al_init_font_addon  004802d0     allegro-5.0.10-monolith-md-debug:allegro-5.0.10-monolith-md-debug.dll
 0005:000002d4       __imp__al_shutdown_font_addon 004802d4     allegro-5.0.10-monolith-md-debug:allegro-5.0.10-monolith-md-debug.dll
 0005:000002d8       __imp__al_load_ttf_font    004802d8     allegro-5.0.10-monolith-md-debug:allegro-5.0.10-monolith-md-debug.dll
 0005:000002dc       __imp__al_init_ttf_addon   004802dc     allegro-5.0.10-monolith-md-debug:allegro-5.0.10-monolith-md-debug.dll
 0005:000002e0       __imp__al_shutdown_ttf_addon 004802e0     allegro-5.0.10-monolith-md-debug:allegro-5.0.10-monolith-md-debug.dll
 0005:000002e4       __imp__al_init_primitives_addon 004802e4     allegro-5.0.10-monolith-md-debug:allegro-5.0.10-monolith-md-debug.dll
 0005:000002e8       __imp__al_shutdown_primitives_addon 004802e8     allegro-5.0.10-monolith-md-debug:allegro-5.0.10-monolith-md-debug.dll
 0005:000002ec       __imp__al_map_rgb          004802ec     allegro-5.0.10-monolith-md-debug:allegro-5.0.10-monolith-md-debug.dll
 0005:000002f0       __imp__al_get_bitmap_width 004802f0     allegro-5.0.10-monolith-md-debug:allegro-5.0.10-monolith-md-debug.dll
 0005:000002f4       \177allegro-5.0.10-monolith-md-debug_NULL_THUNK_DATA 004802f4     allegro-5.0.10-monolith-md-debug:allegro-5.0.10-monolith-md-debug.dll
 0005:0000033c       __imp___time64             0048033c     ucrtd:ucrtbased.dll
 0005:00000340       __imp___wassert            00480340     ucrtd:ucrtbased.dll
 0005:00000344       __imp____acrt_iob_func     00480344     ucrtd:ucrtbased.dll
 0005:00000348       __imp____stdio_common_vfprintf 00480348     ucrtd:ucrtbased.dll
 0005:0000034c       __imp__free                0048034c     ucrtd:ucrtbased.dll
 0005:00000350       __imp__malloc              00480350     ucrtd:ucrtbased.dll
 0005:00000354       __imp__rand                00480354     ucrtd:ucrtbased.dll
 0005:00000358       __imp___free_dbg           00480358     ucrtd:ucrtbased.dll
 0005:0000035c       __imp___malloc_dbg         0048035c     ucrtd:ucrtbased.dll
 0005:00000360       __imp___callnewh           00480360     ucrtd:ucrtbased.dll
 0005:00000364       __imp___CrtDbgReport       00480364     ucrtd:ucrtbased.dll
 0005:00000368       __imp___seh_filter_dll     00480368     ucrtd:ucrtbased.dll
 0005:0000036c       __imp___configure_narrow_argv 0048036c     ucrtd:ucrtbased.dll
 0005:00000370       __imp___initialize_narrow_environment 00480370     ucrtd:ucrtbased.dll
 0005:00000374       __imp___initialize_onexit_table 00480374     ucrtd:ucrtbased.dll
 0005:00000378       __imp___register_onexit_function 00480378     ucrtd:ucrtbased.dll
 0005:0000037c       __imp___execute_onexit_table 0048037c     ucrtd:ucrtbased.dll
 0005:00000380       __imp___crt_atexit         00480380     ucrtd:ucrtbased.dll
 0005:00000384       __imp___crt_at_quick_exit  00480384     ucrtd:ucrtbased.dll
 0005:00000388       __imp___cexit              00480388     ucrtd:ucrtbased.dll
 0005:0000038c       __imp___seh_filter_exe     0048038c     ucrtd:ucrtbased.dll
 0005:00000390       __imp___set_app_type       00480390     ucrtd:ucrtbased.dll
 0005:00000394       __imp____setusermatherr    00480394     ucrtd:ucrtbased.dll
 0005:00000398       __imp___get_initial_narrow_environment 00480398     ucrtd:ucrtbased.dll
 0005:0000039c       __imp___initterm           0048039c     ucrtd:ucrtbased.dll
 0005:000003a0       __imp___initterm_e         004803a0     ucrtd:ucrtbased.dll
 0005:000003a4       __imp__exit                004803a4     ucrtd:ucrtbased.dll
 0005:000003a8       __imp___exit               004803a8     ucrtd:ucrtbased.dll
 0005:000003ac       __imp___set_fmode          004803ac     ucrtd:ucrtbased.dll
 0005:000003b0       __imp____p___argc          004803b0     ucrtd:ucrtbased.dll
 0005:000003b4       __imp____p___argv          004803b4     ucrtd:ucrtbased.dll
 0005:000003b8       __imp___c_exit             004803b8     ucrtd:ucrtbased.dll
 0005:000003bc       __imp___register_thread_local_exe_atexit_callback 004803bc     ucrtd:ucrtbased.dll
 0005:000003c0       __imp___configthreadlocale 004803c0     ucrtd:ucrtbased.dll
 0005:000003c4       __imp___set_new_mode       004803c4     ucrtd:ucrtbased.dll
 0005:000003c8       __imp____p__commode        004803c8     ucrtd:ucrtbased.dll
 0005:000003cc       __imp___except1            004803cc     ucrtd:ucrtbased.dll
 0005:000003d0       __imp____stdio_common_vsprintf_s 004803d0     ucrtd:ucrtbased.dll
 0005:000003d4       __imp__terminate           004803d4     ucrtd:ucrtbased.dll
 0005:000003d8       __imp___controlfp_s        004803d8     ucrtd:ucrtbased.dll
 0005:000003dc       __imp___wmakepath_s        004803dc     ucrtd:ucrtbased.dll
 0005:000003e0       __imp___wsplitpath_s       004803e0     ucrtd:ucrtbased.dll
 0005:000003e4       __imp__wcscpy_s            004803e4     ucrtd:ucrtbased.dll
 0005:000003e8       __imp__srand               004803e8     ucrtd:ucrtbased.dll
 0005:000003ec       __imp___unlock_file        004803ec     ucrtd:ucrtbased.dll
 0005:000003f0       __imp___lock_file          004803f0     ucrtd:ucrtbased.dll
 0005:000003f4       __imp__ungetc              004803f4     ucrtd:ucrtbased.dll
 0005:000003f8       __imp__setvbuf             004803f8     ucrtd:ucrtbased.dll
 0005:000003fc       __imp__fwrite              004803fc     ucrtd:ucrtbased.dll
 0005:00000400       __imp___fseeki64           00480400     ucrtd:ucrtbased.dll
 0005:00000404       __imp__fsetpos             00480404     ucrtd:ucrtbased.dll
 0005:00000408       __imp__fputc               00480408     ucrtd:ucrtbased.dll
 0005:0000040c       __imp__fgetpos             0048040c     ucrtd:ucrtbased.dll
 0005:00000410       __imp__fgetc               00480410     ucrtd:ucrtbased.dll
 0005:00000414       __imp__fflush              00480414     ucrtd:ucrtbased.dll
 0005:00000418       __imp__fclose              00480418     ucrtd:ucrtbased.dll
 0005:0000041c       __imp___get_stream_buffer_pointers 0048041c     ucrtd:ucrtbased.dll
 0005:00000420       __imp__system              00480420     ucrtd:ucrtbased.dll
 0005:00000424       __imp___errno              00480424     ucrtd:ucrtbased.dll
 0005:00000428       __imp___invalid_parameter_noinfo 00480428     ucrtd:ucrtbased.dll
 0005:0000042c       __imp___CrtDbgReportW      0048042c     ucrtd:ucrtbased.dll
 0005:00000430       __imp__strlen              00480430     ucrtd:ucrtbased.dll
 0005:00000434       __imp__atan                00480434     ucrtd:ucrtbased.dll
 0005:00000438       __imp___invalid_parameter  00480438     ucrtd:ucrtbased.dll
 0005:0000043c       __imp__sqrt                0048043c     ucrtd:ucrtbased.dll
 0005:00000440       \177ucrtbased_NULL_THUNK_DATA 00480440     ucrtd:ucrtbased.dll
 0005:000004a0       __IMPORT_DESCRIPTOR_allegro-5.0.10-monolith-md-debug 004804a0     allegro-5.0.10-monolith-md-debug:allegro-5.0.10-monolith-md-debug.dll
 0005:000004b4       __IMPORT_DESCRIPTOR_KERNEL32 004804b4     kernel32:KERNEL32.dll
 0005:000004c8       __IMPORT_DESCRIPTOR_MSVCP140D 004804c8     msvcprtd:MSVCP140D.dll
 0005:000004dc       __IMPORT_DESCRIPTOR_VCRUNTIME140D 004804dc     vcruntimed:VCRUNTIME140D.dll
 0005:000004f0       __IMPORT_DESCRIPTOR_ucrtbased 004804f0     ucrtd:ucrtbased.dll
 0005:00000504       __NULL_IMPORT_DESCRIPTOR   00480504     allegro-5.0.10-monolith-md-debug:allegro-5.0.10-monolith-md-debug.dll
 0007:00000000       ___guard_check_icall_fptr  00484000     MSVCRTD:guard_support.obj
